ARM GAS  /tmp/ccktbAOa.s 			page 1


   1              		.cpu cortex-m4
   2              		.eabi_attribute 27, 1
   3              		.eabi_attribute 28, 1
   4              		.eabi_attribute 20, 1
   5              		.eabi_attribute 21, 1
   6              		.eabi_attribute 23, 3
   7              		.eabi_attribute 24, 1
   8              		.eabi_attribute 25, 1
   9              		.eabi_attribute 26, 1
  10              		.eabi_attribute 30, 1
  11              		.eabi_attribute 34, 1
  12              		.eabi_attribute 18, 4
  13              		.file	"ff.c"
  14              		.text
  15              	.Ltext0:
  16              		.cfi_sections	.debug_frame
  17              		.section	.text.mem_cpy,"ax",%progbits
  18              		.align	1
  19              		.syntax unified
  20              		.thumb
  21              		.thumb_func
  22              		.fpu fpv4-sp-d16
  24              	mem_cpy:
  25              	.LFB126:
  26              		.file 1 "Middlewares/Third_Party/FatFs/src/ff.c"
   1:Middlewares/Third_Party/FatFs/src/ff.c **** /*----------------------------------------------------------------------------/
   2:Middlewares/Third_Party/FatFs/src/ff.c **** /  FatFs - FAT file system module  R0.11                 (C)ChaN, 2015
   3:Middlewares/Third_Party/FatFs/src/ff.c **** /-----------------------------------------------------------------------------/
   4:Middlewares/Third_Party/FatFs/src/ff.c **** / FatFs module is a free software that opened under license policy of
   5:Middlewares/Third_Party/FatFs/src/ff.c **** / following conditions.
   6:Middlewares/Third_Party/FatFs/src/ff.c **** /
   7:Middlewares/Third_Party/FatFs/src/ff.c **** / Copyright (C) 2015, ChaN, all right reserved.
   8:Middlewares/Third_Party/FatFs/src/ff.c **** /
   9:Middlewares/Third_Party/FatFs/src/ff.c **** / 1. Redistributions of source code must retain the above copyright notice,
  10:Middlewares/Third_Party/FatFs/src/ff.c **** /    this condition and the following disclaimer.
  11:Middlewares/Third_Party/FatFs/src/ff.c **** /
  12:Middlewares/Third_Party/FatFs/src/ff.c **** / This software is provided by the copyright holder and contributors "AS IS"
  13:Middlewares/Third_Party/FatFs/src/ff.c **** / and any warranties related to this software are DISCLAIMED.
  14:Middlewares/Third_Party/FatFs/src/ff.c **** / The copyright owner or contributors be NOT LIABLE for any damages caused
  15:Middlewares/Third_Party/FatFs/src/ff.c **** / by use of this software.
  16:Middlewares/Third_Party/FatFs/src/ff.c **** /-----------------------------------------------------------------------------/
  17:Middlewares/Third_Party/FatFs/src/ff.c **** / Feb 26,'06 R0.00  Prototype.
  18:Middlewares/Third_Party/FatFs/src/ff.c **** /
  19:Middlewares/Third_Party/FatFs/src/ff.c **** / Apr 29,'06 R0.01  First stable version.
  20:Middlewares/Third_Party/FatFs/src/ff.c **** /
  21:Middlewares/Third_Party/FatFs/src/ff.c **** / Jun 01,'06 R0.02  Added FAT12 support.
  22:Middlewares/Third_Party/FatFs/src/ff.c **** /                   Removed unbuffered mode.
  23:Middlewares/Third_Party/FatFs/src/ff.c **** /                   Fixed a problem on small (<32M) partition.
  24:Middlewares/Third_Party/FatFs/src/ff.c **** / Jun 10,'06 R0.02a Added a configuration option (_FS_MINIMUM).
  25:Middlewares/Third_Party/FatFs/src/ff.c **** /
  26:Middlewares/Third_Party/FatFs/src/ff.c **** / Sep 22,'06 R0.03  Added f_rename().
  27:Middlewares/Third_Party/FatFs/src/ff.c **** /                   Changed option _FS_MINIMUM to _FS_MINIMIZE.
  28:Middlewares/Third_Party/FatFs/src/ff.c **** / Dec 11,'06 R0.03a Improved cluster scan algorithm to write files fast.
  29:Middlewares/Third_Party/FatFs/src/ff.c **** /                   Fixed f_mkdir() creates incorrect directory on FAT32.
  30:Middlewares/Third_Party/FatFs/src/ff.c **** /
  31:Middlewares/Third_Party/FatFs/src/ff.c **** / Feb 04,'07 R0.04  Supported multiple drive system.
  32:Middlewares/Third_Party/FatFs/src/ff.c **** /                   Changed some interfaces for multiple drive system.
ARM GAS  /tmp/ccktbAOa.s 			page 2


  33:Middlewares/Third_Party/FatFs/src/ff.c **** /                   Changed f_mountdrv() to f_mount().
  34:Middlewares/Third_Party/FatFs/src/ff.c **** /                   Added f_mkfs().
  35:Middlewares/Third_Party/FatFs/src/ff.c **** / Apr 01,'07 R0.04a Supported multiple partitions on a physical drive.
  36:Middlewares/Third_Party/FatFs/src/ff.c **** /                   Added a capability of extending file size to f_lseek().
  37:Middlewares/Third_Party/FatFs/src/ff.c **** /                   Added minimization level 3.
  38:Middlewares/Third_Party/FatFs/src/ff.c **** /                   Fixed an endian sensitive code in f_mkfs().
  39:Middlewares/Third_Party/FatFs/src/ff.c **** / May 05,'07 R0.04b Added a configuration option _USE_NTFLAG.
  40:Middlewares/Third_Party/FatFs/src/ff.c **** /                   Added FSINFO support.
  41:Middlewares/Third_Party/FatFs/src/ff.c **** /                   Fixed DBCS name can result FR_INVALID_NAME.
  42:Middlewares/Third_Party/FatFs/src/ff.c **** /                   Fixed short seek (<= csize) collapses the file object.
  43:Middlewares/Third_Party/FatFs/src/ff.c **** /
  44:Middlewares/Third_Party/FatFs/src/ff.c **** / Aug 25,'07 R0.05  Changed arguments of f_read(), f_write() and f_mkfs().
  45:Middlewares/Third_Party/FatFs/src/ff.c **** /                   Fixed f_mkfs() on FAT32 creates incorrect FSINFO.
  46:Middlewares/Third_Party/FatFs/src/ff.c **** /                   Fixed f_mkdir() on FAT32 creates incorrect directory.
  47:Middlewares/Third_Party/FatFs/src/ff.c **** / Feb 03,'08 R0.05a Added f_truncate() and f_utime().
  48:Middlewares/Third_Party/FatFs/src/ff.c **** /                   Fixed off by one error at FAT sub-type determination.
  49:Middlewares/Third_Party/FatFs/src/ff.c **** /                   Fixed btr in f_read() can be mistruncated.
  50:Middlewares/Third_Party/FatFs/src/ff.c **** /                   Fixed cached sector is not flushed when create and close without write.
  51:Middlewares/Third_Party/FatFs/src/ff.c **** /
  52:Middlewares/Third_Party/FatFs/src/ff.c **** / Apr 01,'08 R0.06  Added fputc(), fputs(), fprintf() and fgets().
  53:Middlewares/Third_Party/FatFs/src/ff.c **** /                   Improved performance of f_lseek() on moving to the same or following cluster.
  54:Middlewares/Third_Party/FatFs/src/ff.c **** /
  55:Middlewares/Third_Party/FatFs/src/ff.c **** / Apr 01,'09 R0.07  Merged Tiny-FatFs as a configuration option. (_FS_TINY)
  56:Middlewares/Third_Party/FatFs/src/ff.c **** /                   Added long file name feature.
  57:Middlewares/Third_Party/FatFs/src/ff.c **** /                   Added multiple code page feature.
  58:Middlewares/Third_Party/FatFs/src/ff.c **** /                   Added re-entrancy for multitask operation.
  59:Middlewares/Third_Party/FatFs/src/ff.c **** /                   Added auto cluster size selection to f_mkfs().
  60:Middlewares/Third_Party/FatFs/src/ff.c **** /                   Added rewind option to f_readdir().
  61:Middlewares/Third_Party/FatFs/src/ff.c **** /                   Changed result code of critical errors.
  62:Middlewares/Third_Party/FatFs/src/ff.c **** /                   Renamed string functions to avoid name collision.
  63:Middlewares/Third_Party/FatFs/src/ff.c **** / Apr 14,'09 R0.07a Separated out OS dependent code on reentrant cfg.
  64:Middlewares/Third_Party/FatFs/src/ff.c **** /                   Added multiple sector size feature.
  65:Middlewares/Third_Party/FatFs/src/ff.c **** / Jun 21,'09 R0.07c Fixed f_unlink() can return FR_OK on error.
  66:Middlewares/Third_Party/FatFs/src/ff.c **** /                   Fixed wrong cache control in f_lseek().
  67:Middlewares/Third_Party/FatFs/src/ff.c **** /                   Added relative path feature.
  68:Middlewares/Third_Party/FatFs/src/ff.c **** /                   Added f_chdir() and f_chdrive().
  69:Middlewares/Third_Party/FatFs/src/ff.c **** /                   Added proper case conversion to extended character.
  70:Middlewares/Third_Party/FatFs/src/ff.c **** / Nov 03,'09 R0.07e Separated out configuration options from ff.h to ffconf.h.
  71:Middlewares/Third_Party/FatFs/src/ff.c **** /                   Fixed f_unlink() fails to remove a sub-directory on _FS_RPATH.
  72:Middlewares/Third_Party/FatFs/src/ff.c **** /                   Fixed name matching error on the 13 character boundary.
  73:Middlewares/Third_Party/FatFs/src/ff.c **** /                   Added a configuration option, _LFN_UNICODE.
  74:Middlewares/Third_Party/FatFs/src/ff.c **** /                   Changed f_readdir() to return the SFN with always upper case on non-LFN cfg.
  75:Middlewares/Third_Party/FatFs/src/ff.c **** /
  76:Middlewares/Third_Party/FatFs/src/ff.c **** / May 15,'10 R0.08  Added a memory configuration option. (_USE_LFN = 3)
  77:Middlewares/Third_Party/FatFs/src/ff.c **** /                   Added file lock feature. (_FS_SHARE)
  78:Middlewares/Third_Party/FatFs/src/ff.c **** /                   Added fast seek feature. (_USE_FASTSEEK)
  79:Middlewares/Third_Party/FatFs/src/ff.c **** /                   Changed some types on the API, XCHAR->TCHAR.
  80:Middlewares/Third_Party/FatFs/src/ff.c **** /                   Changed .fname in the FILINFO structure on Unicode cfg.
  81:Middlewares/Third_Party/FatFs/src/ff.c **** /                   String functions support UTF-8 encoding files on Unicode cfg.
  82:Middlewares/Third_Party/FatFs/src/ff.c **** / Aug 16,'10 R0.08a Added f_getcwd().
  83:Middlewares/Third_Party/FatFs/src/ff.c **** /                   Added sector erase feature. (_USE_ERASE)
  84:Middlewares/Third_Party/FatFs/src/ff.c **** /                   Moved file lock semaphore table from fs object to the bss.
  85:Middlewares/Third_Party/FatFs/src/ff.c **** /                   Fixed a wrong directory entry is created on non-LFN cfg when the given name con
  86:Middlewares/Third_Party/FatFs/src/ff.c **** /                   Fixed f_mkfs() creates wrong FAT32 volume.
  87:Middlewares/Third_Party/FatFs/src/ff.c **** / Jan 15,'11 R0.08b Fast seek feature is also applied to f_read() and f_write().
  88:Middlewares/Third_Party/FatFs/src/ff.c **** /                   f_lseek() reports required table size on creating CLMP.
  89:Middlewares/Third_Party/FatFs/src/ff.c **** /                   Extended format syntax of f_printf().
ARM GAS  /tmp/ccktbAOa.s 			page 3


  90:Middlewares/Third_Party/FatFs/src/ff.c **** /                   Ignores duplicated directory separators in given path name.
  91:Middlewares/Third_Party/FatFs/src/ff.c **** /
  92:Middlewares/Third_Party/FatFs/src/ff.c **** / Sep 06,'11 R0.09  f_mkfs() supports multiple partition to complete the multiple partition feature
  93:Middlewares/Third_Party/FatFs/src/ff.c **** /                   Added f_fdisk().
  94:Middlewares/Third_Party/FatFs/src/ff.c **** / Aug 27,'12 R0.09a Changed f_open() and f_opendir() reject null object pointer to avoid crash.
  95:Middlewares/Third_Party/FatFs/src/ff.c **** /                   Changed option name _FS_SHARE to _FS_LOCK.
  96:Middlewares/Third_Party/FatFs/src/ff.c **** /                   Fixed assertion failure due to OS/2 EA on FAT12/16 volume.
  97:Middlewares/Third_Party/FatFs/src/ff.c **** / Jan 24,'13 R0.09b Added f_setlabel() and f_getlabel().
  98:Middlewares/Third_Party/FatFs/src/ff.c **** /
  99:Middlewares/Third_Party/FatFs/src/ff.c **** / Oct 02,'13 R0.10  Added selection of character encoding on the file. (_STRF_ENCODE)
 100:Middlewares/Third_Party/FatFs/src/ff.c **** /                   Added f_closedir().
 101:Middlewares/Third_Party/FatFs/src/ff.c **** /                   Added forced full FAT scan for f_getfree(). (_FS_NOFSINFO)
 102:Middlewares/Third_Party/FatFs/src/ff.c **** /                   Added forced mount feature with changes of f_mount().
 103:Middlewares/Third_Party/FatFs/src/ff.c **** /                   Improved behavior of volume auto detection.
 104:Middlewares/Third_Party/FatFs/src/ff.c **** /                   Improved write throughput of f_puts() and f_printf().
 105:Middlewares/Third_Party/FatFs/src/ff.c **** /                   Changed argument of f_chdrive(), f_mkfs(), disk_read() and disk_write().
 106:Middlewares/Third_Party/FatFs/src/ff.c **** /                   Fixed f_write() can be truncated when the file size is close to 4GB.
 107:Middlewares/Third_Party/FatFs/src/ff.c **** /                   Fixed f_open(), f_mkdir() and f_setlabel() can return incorrect error code.
 108:Middlewares/Third_Party/FatFs/src/ff.c **** / Jan 15,'14 R0.10a Added arbitrary strings as drive number in the path name. (_STR_VOLUME_ID)
 109:Middlewares/Third_Party/FatFs/src/ff.c **** /                   Added a configuration option of minimum sector size. (_MIN_SS)
 110:Middlewares/Third_Party/FatFs/src/ff.c **** /                   2nd argument of f_rename() can have a drive number and it will be ignored.
 111:Middlewares/Third_Party/FatFs/src/ff.c **** /                   Fixed f_mount() with forced mount fails when drive number is >= 1.
 112:Middlewares/Third_Party/FatFs/src/ff.c **** /                   Fixed f_close() invalidates the file object without volume lock.
 113:Middlewares/Third_Party/FatFs/src/ff.c **** /                   Fixed f_closedir() returns but the volume lock is left acquired.
 114:Middlewares/Third_Party/FatFs/src/ff.c **** /                   Fixed creation of an entry with LFN fails on too many SFN collisions.
 115:Middlewares/Third_Party/FatFs/src/ff.c **** / May 19,'14 R0.10b Fixed a hard error in the disk I/O layer can collapse the directory entry.
 116:Middlewares/Third_Party/FatFs/src/ff.c **** /                   Fixed LFN entry is not deleted on delete/rename an object with lossy converted 
 117:Middlewares/Third_Party/FatFs/src/ff.c **** / Nov  9,'14 R0.10c Added a configuration option for the platforms without RTC. (_FS_NORTC)
 118:Middlewares/Third_Party/FatFs/src/ff.c **** /                   Fixed volume label created by Mac OS X cannot be retrieved with f_getlabel(). (
 119:Middlewares/Third_Party/FatFs/src/ff.c **** /                   Fixed a potential problem of FAT access that can appear on disk error.
 120:Middlewares/Third_Party/FatFs/src/ff.c **** /                   Fixed null pointer dereference on attempting to delete the root direcotry. (app
 121:Middlewares/Third_Party/FatFs/src/ff.c **** / Feb 02,'15 R0.11  Added f_findfirst() and f_findnext(). (_USE_FIND)
 122:Middlewares/Third_Party/FatFs/src/ff.c **** /                   Fixed f_unlink() does not remove cluster chain of the file. (appeared at R0.10c
 123:Middlewares/Third_Party/FatFs/src/ff.c **** /                   Fixed _FS_NORTC option does not work properly. (appeared at R0.10c)
 124:Middlewares/Third_Party/FatFs/src/ff.c **** /---------------------------------------------------------------------------*/
 125:Middlewares/Third_Party/FatFs/src/ff.c **** 
 126:Middlewares/Third_Party/FatFs/src/ff.c **** #include "ff.h"			/* Declarations of FatFs API */
 127:Middlewares/Third_Party/FatFs/src/ff.c **** #include "diskio.h"		/* Declarations of disk I/O functions */
 128:Middlewares/Third_Party/FatFs/src/ff.c **** 
 129:Middlewares/Third_Party/FatFs/src/ff.c **** 
 130:Middlewares/Third_Party/FatFs/src/ff.c **** /*--------------------------------------------------------------------------
 131:Middlewares/Third_Party/FatFs/src/ff.c **** 
 132:Middlewares/Third_Party/FatFs/src/ff.c ****    Module Private Definitions
 133:Middlewares/Third_Party/FatFs/src/ff.c **** 
 134:Middlewares/Third_Party/FatFs/src/ff.c **** ---------------------------------------------------------------------------*/
 135:Middlewares/Third_Party/FatFs/src/ff.c **** 
 136:Middlewares/Third_Party/FatFs/src/ff.c **** #if _FATFS != 32020	/* Revision ID */
 137:Middlewares/Third_Party/FatFs/src/ff.c **** #error Wrong include file (ff.h).
 138:Middlewares/Third_Party/FatFs/src/ff.c **** #endif
 139:Middlewares/Third_Party/FatFs/src/ff.c **** 
 140:Middlewares/Third_Party/FatFs/src/ff.c **** 
 141:Middlewares/Third_Party/FatFs/src/ff.c **** /* Reentrancy related */
 142:Middlewares/Third_Party/FatFs/src/ff.c **** #if _FS_REENTRANT
 143:Middlewares/Third_Party/FatFs/src/ff.c **** #if _USE_LFN == 1
 144:Middlewares/Third_Party/FatFs/src/ff.c **** #error Static LFN work area cannot be used at thread-safe configuration
 145:Middlewares/Third_Party/FatFs/src/ff.c **** #endif
 146:Middlewares/Third_Party/FatFs/src/ff.c **** #define	ENTER_FF(fs)		{ if (!lock_fs(fs)) return FR_TIMEOUT; }
ARM GAS  /tmp/ccktbAOa.s 			page 4


 147:Middlewares/Third_Party/FatFs/src/ff.c **** #define	LEAVE_FF(fs, res)	{ unlock_fs(fs, res); return res; }
 148:Middlewares/Third_Party/FatFs/src/ff.c **** #else
 149:Middlewares/Third_Party/FatFs/src/ff.c **** #define	ENTER_FF(fs)
 150:Middlewares/Third_Party/FatFs/src/ff.c **** #define LEAVE_FF(fs, res)	return res
 151:Middlewares/Third_Party/FatFs/src/ff.c **** #endif
 152:Middlewares/Third_Party/FatFs/src/ff.c **** 
 153:Middlewares/Third_Party/FatFs/src/ff.c **** #define	ABORT(fs, res)		{ fp->err = (BYTE)(res); LEAVE_FF(fs, res); }
 154:Middlewares/Third_Party/FatFs/src/ff.c **** 
 155:Middlewares/Third_Party/FatFs/src/ff.c **** 
 156:Middlewares/Third_Party/FatFs/src/ff.c **** /* Definitions of sector size */
 157:Middlewares/Third_Party/FatFs/src/ff.c **** #if (_MAX_SS < _MIN_SS) || (_MAX_SS != 512 && _MAX_SS != 1024 && _MAX_SS != 2048 && _MAX_SS != 4096
 158:Middlewares/Third_Party/FatFs/src/ff.c **** #error Wrong sector size configuration
 159:Middlewares/Third_Party/FatFs/src/ff.c **** #endif
 160:Middlewares/Third_Party/FatFs/src/ff.c **** #if _MAX_SS == _MIN_SS
 161:Middlewares/Third_Party/FatFs/src/ff.c **** #define	SS(fs)	((UINT)_MAX_SS)	/* Fixed sector size */
 162:Middlewares/Third_Party/FatFs/src/ff.c **** #else
 163:Middlewares/Third_Party/FatFs/src/ff.c **** #define	SS(fs)	((fs)->ssize)	/* Variable sector size */
 164:Middlewares/Third_Party/FatFs/src/ff.c **** #endif
 165:Middlewares/Third_Party/FatFs/src/ff.c **** 
 166:Middlewares/Third_Party/FatFs/src/ff.c **** 
 167:Middlewares/Third_Party/FatFs/src/ff.c **** /* Timestamp feature */
 168:Middlewares/Third_Party/FatFs/src/ff.c **** #if _FS_NORTC == 1
 169:Middlewares/Third_Party/FatFs/src/ff.c **** #if _NORTC_YEAR < 1980 || _NORTC_YEAR > 2107 || _NORTC_MON < 1 || _NORTC_MON > 12 || _NORTC_MDAY < 
 170:Middlewares/Third_Party/FatFs/src/ff.c **** #error Invalid _FS_NORTC settings
 171:Middlewares/Third_Party/FatFs/src/ff.c **** #endif
 172:Middlewares/Third_Party/FatFs/src/ff.c **** #define GET_FATTIME()	((DWORD)(_NORTC_YEAR - 1980) << 25 | (DWORD)_NORTC_MON << 21 | (DWORD)_NORTC_
 173:Middlewares/Third_Party/FatFs/src/ff.c **** #else
 174:Middlewares/Third_Party/FatFs/src/ff.c **** #define GET_FATTIME()	get_fattime()
 175:Middlewares/Third_Party/FatFs/src/ff.c **** #endif
 176:Middlewares/Third_Party/FatFs/src/ff.c **** 
 177:Middlewares/Third_Party/FatFs/src/ff.c **** 
 178:Middlewares/Third_Party/FatFs/src/ff.c **** /* File access control feature */
 179:Middlewares/Third_Party/FatFs/src/ff.c **** #if _FS_LOCK
 180:Middlewares/Third_Party/FatFs/src/ff.c **** #if _FS_READONLY
 181:Middlewares/Third_Party/FatFs/src/ff.c **** #error _FS_LOCK must be 0 at read-only configuration
 182:Middlewares/Third_Party/FatFs/src/ff.c **** #endif
 183:Middlewares/Third_Party/FatFs/src/ff.c **** typedef struct {
 184:Middlewares/Third_Party/FatFs/src/ff.c **** 	FATFS *fs;		/* Object ID 1, volume (NULL:blank entry) */
 185:Middlewares/Third_Party/FatFs/src/ff.c **** 	DWORD clu;		/* Object ID 2, directory (0:root) */
 186:Middlewares/Third_Party/FatFs/src/ff.c **** 	WORD idx;		/* Object ID 3, directory index */
 187:Middlewares/Third_Party/FatFs/src/ff.c **** 	WORD ctr;		/* Object open counter, 0:none, 0x01..0xFF:read mode open count, 0x100:write mode */
 188:Middlewares/Third_Party/FatFs/src/ff.c **** } FILESEM;
 189:Middlewares/Third_Party/FatFs/src/ff.c **** #endif
 190:Middlewares/Third_Party/FatFs/src/ff.c **** 
 191:Middlewares/Third_Party/FatFs/src/ff.c **** 
 192:Middlewares/Third_Party/FatFs/src/ff.c **** 
 193:Middlewares/Third_Party/FatFs/src/ff.c **** /* DBCS code ranges and SBCS extend character conversion table */
 194:Middlewares/Third_Party/FatFs/src/ff.c **** 
 195:Middlewares/Third_Party/FatFs/src/ff.c **** #if _CODE_PAGE == 932	/* Japanese Shift-JIS */
 196:Middlewares/Third_Party/FatFs/src/ff.c **** #define _DF1S	0x81	/* DBC 1st byte range 1 start */
 197:Middlewares/Third_Party/FatFs/src/ff.c **** #define _DF1E	0x9F	/* DBC 1st byte range 1 end */
 198:Middlewares/Third_Party/FatFs/src/ff.c **** #define _DF2S	0xE0	/* DBC 1st byte range 2 start */
 199:Middlewares/Third_Party/FatFs/src/ff.c **** #define _DF2E	0xFC	/* DBC 1st byte range 2 end */
 200:Middlewares/Third_Party/FatFs/src/ff.c **** #define _DS1S	0x40	/* DBC 2nd byte range 1 start */
 201:Middlewares/Third_Party/FatFs/src/ff.c **** #define _DS1E	0x7E	/* DBC 2nd byte range 1 end */
 202:Middlewares/Third_Party/FatFs/src/ff.c **** #define _DS2S	0x80	/* DBC 2nd byte range 2 start */
 203:Middlewares/Third_Party/FatFs/src/ff.c **** #define _DS2E	0xFC	/* DBC 2nd byte range 2 end */
ARM GAS  /tmp/ccktbAOa.s 			page 5


 204:Middlewares/Third_Party/FatFs/src/ff.c **** 
 205:Middlewares/Third_Party/FatFs/src/ff.c **** #elif _CODE_PAGE == 936	/* Simplified Chinese GBK */
 206:Middlewares/Third_Party/FatFs/src/ff.c **** #define _DF1S	0x81
 207:Middlewares/Third_Party/FatFs/src/ff.c **** #define _DF1E	0xFE
 208:Middlewares/Third_Party/FatFs/src/ff.c **** #define _DS1S	0x40
 209:Middlewares/Third_Party/FatFs/src/ff.c **** #define _DS1E	0x7E
 210:Middlewares/Third_Party/FatFs/src/ff.c **** #define _DS2S	0x80
 211:Middlewares/Third_Party/FatFs/src/ff.c **** #define _DS2E	0xFE
 212:Middlewares/Third_Party/FatFs/src/ff.c **** 
 213:Middlewares/Third_Party/FatFs/src/ff.c **** #elif _CODE_PAGE == 949	/* Korean */
 214:Middlewares/Third_Party/FatFs/src/ff.c **** #define _DF1S	0x81
 215:Middlewares/Third_Party/FatFs/src/ff.c **** #define _DF1E	0xFE
 216:Middlewares/Third_Party/FatFs/src/ff.c **** #define _DS1S	0x41
 217:Middlewares/Third_Party/FatFs/src/ff.c **** #define _DS1E	0x5A
 218:Middlewares/Third_Party/FatFs/src/ff.c **** #define _DS2S	0x61
 219:Middlewares/Third_Party/FatFs/src/ff.c **** #define _DS2E	0x7A
 220:Middlewares/Third_Party/FatFs/src/ff.c **** #define _DS3S	0x81
 221:Middlewares/Third_Party/FatFs/src/ff.c **** #define _DS3E	0xFE
 222:Middlewares/Third_Party/FatFs/src/ff.c **** 
 223:Middlewares/Third_Party/FatFs/src/ff.c **** #elif _CODE_PAGE == 950	/* Traditional Chinese Big5 */
 224:Middlewares/Third_Party/FatFs/src/ff.c **** #define _DF1S	0x81
 225:Middlewares/Third_Party/FatFs/src/ff.c **** #define _DF1E	0xFE
 226:Middlewares/Third_Party/FatFs/src/ff.c **** #define _DS1S	0x40
 227:Middlewares/Third_Party/FatFs/src/ff.c **** #define _DS1E	0x7E
 228:Middlewares/Third_Party/FatFs/src/ff.c **** #define _DS2S	0xA1
 229:Middlewares/Third_Party/FatFs/src/ff.c **** #define _DS2E	0xFE
 230:Middlewares/Third_Party/FatFs/src/ff.c **** 
 231:Middlewares/Third_Party/FatFs/src/ff.c **** #elif _CODE_PAGE == 437	/* U.S. (OEM) */
 232:Middlewares/Third_Party/FatFs/src/ff.c **** #define _DF1S	0
 233:Middlewares/Third_Party/FatFs/src/ff.c **** #define _EXCVT {0x80,0x9A,0x90,0x41,0x8E,0x41,0x8F,0x80,0x45,0x45,0x45,0x49,0x49,0x49,0x8E,0x8F,0x9
 234:Middlewares/Third_Party/FatFs/src/ff.c **** 				0x41,0x49,0x4F,0x55,0xA5,0xA5,0xA6,0xA7,0xA8,0xA9,0xAA,0xAB,0xAC,0x21,0xAE,0xAF,0xB0,0xB1,0xB2,
 235:Middlewares/Third_Party/FatFs/src/ff.c **** 				0xC0,0xC1,0xC2,0xC3,0xC4,0xC5,0xC6,0xC7,0xC8,0xC9,0xCA,0xCB,0xCC,0xCD,0xCE,0xCF,0xD0,0xD1,0xD2,
 236:Middlewares/Third_Party/FatFs/src/ff.c **** 				0xE0,0xE1,0xE2,0xE3,0xE4,0xE5,0xE6,0xE7,0xE8,0xE9,0xEA,0xEB,0xEC,0xED,0xEE,0xEF,0xF0,0xF1,0xF2,
 237:Middlewares/Third_Party/FatFs/src/ff.c **** 
 238:Middlewares/Third_Party/FatFs/src/ff.c **** #elif _CODE_PAGE == 720	/* Arabic (OEM) */
 239:Middlewares/Third_Party/FatFs/src/ff.c **** #define _DF1S	0
 240:Middlewares/Third_Party/FatFs/src/ff.c **** #define _EXCVT {0x80,0x81,0x45,0x41,0x84,0x41,0x86,0x43,0x45,0x45,0x45,0x49,0x49,0x8D,0x8E,0x8F,0x9
 241:Middlewares/Third_Party/FatFs/src/ff.c **** 				0xA0,0xA1,0xA2,0xA3,0xA4,0xA5,0xA6,0xA7,0xA8,0xA9,0xAA,0xAB,0xAC,0xAD,0xAE,0xAF,0xB0,0xB1,0xB2,
 242:Middlewares/Third_Party/FatFs/src/ff.c **** 				0xC0,0xC1,0xC2,0xC3,0xC4,0xC5,0xC6,0xC7,0xC8,0xC9,0xCA,0xCB,0xCC,0xCD,0xCE,0xCF,0xD0,0xD1,0xD2,
 243:Middlewares/Third_Party/FatFs/src/ff.c **** 				0xE0,0xE1,0xE2,0xE3,0xE4,0xE5,0xE6,0xE7,0xE8,0xE9,0xEA,0xEB,0xEC,0xED,0xEE,0xEF,0xF0,0xF1,0xF2,
 244:Middlewares/Third_Party/FatFs/src/ff.c **** 
 245:Middlewares/Third_Party/FatFs/src/ff.c **** #elif _CODE_PAGE == 737	/* Greek (OEM) */
 246:Middlewares/Third_Party/FatFs/src/ff.c **** #define _DF1S	0
 247:Middlewares/Third_Party/FatFs/src/ff.c **** #define _EXCVT {0x80,0x81,0x82,0x83,0x84,0x85,0x86,0x87,0x88,0x89,0x8A,0x8B,0x8C,0x8D,0x8E,0x8F,0x9
 248:Middlewares/Third_Party/FatFs/src/ff.c **** 				0x88,0x89,0x8A,0x8B,0x8C,0x8D,0x8E,0x8F,0x90,0x91,0xAA,0x92,0x93,0x94,0x95,0x96,0xB0,0xB1,0xB2,
 249:Middlewares/Third_Party/FatFs/src/ff.c **** 				0xC0,0xC1,0xC2,0xC3,0xC4,0xC5,0xC6,0xC7,0xC8,0xC9,0xCA,0xCB,0xCC,0xCD,0xCE,0xCF,0xD0,0xD1,0xD2,
 250:Middlewares/Third_Party/FatFs/src/ff.c **** 				0x97,0xEA,0xEB,0xEC,0xE4,0xED,0xEE,0xE7,0xE8,0xF1,0xEA,0xEB,0xEC,0xED,0xEE,0xEF,0xF0,0xF1,0xF2,
 251:Middlewares/Third_Party/FatFs/src/ff.c **** 
 252:Middlewares/Third_Party/FatFs/src/ff.c **** #elif _CODE_PAGE == 775	/* Baltic (OEM) */
 253:Middlewares/Third_Party/FatFs/src/ff.c **** #define _DF1S	0
 254:Middlewares/Third_Party/FatFs/src/ff.c **** #define _EXCVT {0x80,0x9A,0x91,0xA0,0x8E,0x95,0x8F,0x80,0xAD,0xED,0x8A,0x8A,0xA1,0x8D,0x8E,0x8F,0x9
 255:Middlewares/Third_Party/FatFs/src/ff.c **** 				0xA0,0xA1,0xE0,0xA3,0xA3,0xA5,0xA6,0xA7,0xA8,0xA9,0xAA,0xAB,0xAC,0xAD,0xAE,0xAF,0xB0,0xB1,0xB2,
 256:Middlewares/Third_Party/FatFs/src/ff.c **** 				0xC0,0xC1,0xC2,0xC3,0xC4,0xC5,0xC6,0xC7,0xC8,0xC9,0xCA,0xCB,0xCC,0xCD,0xCE,0xCF,0xB5,0xB6,0xB7,
 257:Middlewares/Third_Party/FatFs/src/ff.c **** 				0xE0,0xE1,0xE2,0xE3,0xE5,0xE5,0xE6,0xE3,0xE8,0xE8,0xEA,0xEA,0xEE,0xED,0xEE,0xEF,0xF0,0xF1,0xF2,
 258:Middlewares/Third_Party/FatFs/src/ff.c **** 
 259:Middlewares/Third_Party/FatFs/src/ff.c **** #elif _CODE_PAGE == 850	/* Multilingual Latin 1 (OEM) */
 260:Middlewares/Third_Party/FatFs/src/ff.c **** #define _DF1S	0
ARM GAS  /tmp/ccktbAOa.s 			page 6


 261:Middlewares/Third_Party/FatFs/src/ff.c **** #define _EXCVT {0x80,0x9A,0x90,0xB6,0x8E,0xB7,0x8F,0x80,0xD2,0xD3,0xD4,0xD8,0xD7,0xDE,0x8E,0x8F,0x9
 262:Middlewares/Third_Party/FatFs/src/ff.c **** 				0xB5,0xD6,0xE0,0xE9,0xA5,0xA5,0xA6,0xA7,0xA8,0xA9,0xAA,0xAB,0xAC,0x21,0xAE,0xAF,0xB0,0xB1,0xB2,
 263:Middlewares/Third_Party/FatFs/src/ff.c **** 				0xC0,0xC1,0xC2,0xC3,0xC4,0xC5,0xC7,0xC7,0xC8,0xC9,0xCA,0xCB,0xCC,0xCD,0xCE,0xCF,0xD0,0xD1,0xD2,
 264:Middlewares/Third_Party/FatFs/src/ff.c **** 				0xE0,0xE1,0xE2,0xE3,0xE5,0xE5,0xE6,0xE7,0xE7,0xE9,0xEA,0xEB,0xED,0xED,0xEE,0xEF,0xF0,0xF1,0xF2,
 265:Middlewares/Third_Party/FatFs/src/ff.c **** 
 266:Middlewares/Third_Party/FatFs/src/ff.c **** #elif _CODE_PAGE == 852	/* Latin 2 (OEM) */
 267:Middlewares/Third_Party/FatFs/src/ff.c **** #define _DF1S	0
 268:Middlewares/Third_Party/FatFs/src/ff.c **** #define _EXCVT {0x80,0x9A,0x90,0xB6,0x8E,0xDE,0x8F,0x80,0x9D,0xD3,0x8A,0x8A,0xD7,0x8D,0x8E,0x8F,0x9
 269:Middlewares/Third_Party/FatFs/src/ff.c **** 				0xB5,0xD6,0xE0,0xE9,0xA4,0xA4,0xA6,0xA6,0xA8,0xA8,0xAA,0x8D,0xAC,0xB8,0xAE,0xAF,0xB0,0xB1,0xB2,
 270:Middlewares/Third_Party/FatFs/src/ff.c **** 				0xC0,0xC1,0xC2,0xC3,0xC4,0xC5,0xC6,0xC6,0xC8,0xC9,0xCA,0xCB,0xCC,0xCD,0xCE,0xCF,0xD1,0xD1,0xD2,
 271:Middlewares/Third_Party/FatFs/src/ff.c **** 				0xE0,0xE1,0xE2,0xE3,0xE3,0xD5,0xE6,0xE6,0xE8,0xE9,0xE8,0xEB,0xED,0xED,0xDD,0xEF,0xF0,0xF1,0xF2,
 272:Middlewares/Third_Party/FatFs/src/ff.c **** 
 273:Middlewares/Third_Party/FatFs/src/ff.c **** #elif _CODE_PAGE == 855	/* Cyrillic (OEM) */
 274:Middlewares/Third_Party/FatFs/src/ff.c **** #define _DF1S	0
 275:Middlewares/Third_Party/FatFs/src/ff.c **** #define _EXCVT {0x81,0x81,0x83,0x83,0x85,0x85,0x87,0x87,0x89,0x89,0x8B,0x8B,0x8D,0x8D,0x8F,0x8F,0x9
 276:Middlewares/Third_Party/FatFs/src/ff.c **** 				0xA1,0xA1,0xA3,0xA3,0xA5,0xA5,0xA7,0xA7,0xA9,0xA9,0xAB,0xAB,0xAD,0xAD,0xAE,0xAF,0xB0,0xB1,0xB2,
 277:Middlewares/Third_Party/FatFs/src/ff.c **** 				0xC0,0xC1,0xC2,0xC3,0xC4,0xC5,0xC7,0xC7,0xC8,0xC9,0xCA,0xCB,0xCC,0xCD,0xCE,0xCF,0xD1,0xD1,0xD3,
 278:Middlewares/Third_Party/FatFs/src/ff.c **** 				0xE0,0xE2,0xE2,0xE4,0xE4,0xE6,0xE6,0xE8,0xE8,0xEA,0xEA,0xEC,0xEC,0xEE,0xEE,0xEF,0xF0,0xF2,0xF2,
 279:Middlewares/Third_Party/FatFs/src/ff.c **** 
 280:Middlewares/Third_Party/FatFs/src/ff.c **** #elif _CODE_PAGE == 857	/* Turkish (OEM) */
 281:Middlewares/Third_Party/FatFs/src/ff.c **** #define _DF1S	0
 282:Middlewares/Third_Party/FatFs/src/ff.c **** #define _EXCVT {0x80,0x9A,0x90,0xB6,0x8E,0xB7,0x8F,0x80,0xD2,0xD3,0xD4,0xD8,0xD7,0x98,0x8E,0x8F,0x9
 283:Middlewares/Third_Party/FatFs/src/ff.c **** 				0xB5,0xD6,0xE0,0xE9,0xA5,0xA5,0xA6,0xA6,0xA8,0xA9,0xAA,0xAB,0xAC,0x21,0xAE,0xAF,0xB0,0xB1,0xB2,
 284:Middlewares/Third_Party/FatFs/src/ff.c **** 				0xC0,0xC1,0xC2,0xC3,0xC4,0xC5,0xC7,0xC7,0xC8,0xC9,0xCA,0xCB,0xCC,0xCD,0xCE,0xCF,0xD0,0xD1,0xD2,
 285:Middlewares/Third_Party/FatFs/src/ff.c **** 				0xE0,0xE1,0xE2,0xE3,0xE5,0xE5,0xE6,0xE7,0xE8,0xE9,0xEA,0xEB,0xDE,0x59,0xEE,0xEF,0xF0,0xF1,0xF2,
 286:Middlewares/Third_Party/FatFs/src/ff.c **** 
 287:Middlewares/Third_Party/FatFs/src/ff.c **** #elif _CODE_PAGE == 858	/* Multilingual Latin 1 + Euro (OEM) */
 288:Middlewares/Third_Party/FatFs/src/ff.c **** #define _DF1S	0
 289:Middlewares/Third_Party/FatFs/src/ff.c **** #define _EXCVT {0x80,0x9A,0x90,0xB6,0x8E,0xB7,0x8F,0x80,0xD2,0xD3,0xD4,0xD8,0xD7,0xDE,0x8E,0x8F,0x9
 290:Middlewares/Third_Party/FatFs/src/ff.c **** 				0xB5,0xD6,0xE0,0xE9,0xA5,0xA5,0xA6,0xA7,0xA8,0xA9,0xAA,0xAB,0xAC,0x21,0xAE,0xAF,0xB0,0xB1,0xB2,
 291:Middlewares/Third_Party/FatFs/src/ff.c **** 				0xC0,0xC1,0xC2,0xC3,0xC4,0xC5,0xC7,0xC7,0xC8,0xC9,0xCA,0xCB,0xCC,0xCD,0xCE,0xCF,0xD1,0xD1,0xD2,
 292:Middlewares/Third_Party/FatFs/src/ff.c **** 				0xE0,0xE1,0xE2,0xE3,0xE5,0xE5,0xE6,0xE7,0xE7,0xE9,0xEA,0xEB,0xED,0xED,0xEE,0xEF,0xF0,0xF1,0xF2,
 293:Middlewares/Third_Party/FatFs/src/ff.c **** 
 294:Middlewares/Third_Party/FatFs/src/ff.c **** #elif _CODE_PAGE == 862	/* Hebrew (OEM) */
 295:Middlewares/Third_Party/FatFs/src/ff.c **** #define _DF1S	0
 296:Middlewares/Third_Party/FatFs/src/ff.c **** #define _EXCVT {0x80,0x81,0x82,0x83,0x84,0x85,0x86,0x87,0x88,0x89,0x8A,0x8B,0x8C,0x8D,0x8E,0x8F,0x9
 297:Middlewares/Third_Party/FatFs/src/ff.c **** 				0x41,0x49,0x4F,0x55,0xA5,0xA5,0xA6,0xA7,0xA8,0xA9,0xAA,0xAB,0xAC,0x21,0xAE,0xAF,0xB0,0xB1,0xB2,
 298:Middlewares/Third_Party/FatFs/src/ff.c **** 				0xC0,0xC1,0xC2,0xC3,0xC4,0xC5,0xC6,0xC7,0xC8,0xC9,0xCA,0xCB,0xCC,0xCD,0xCE,0xCF,0xD0,0xD1,0xD2,
 299:Middlewares/Third_Party/FatFs/src/ff.c **** 				0xE0,0xE1,0xE2,0xE3,0xE4,0xE5,0xE6,0xE7,0xE8,0xE9,0xEA,0xEB,0xEC,0xED,0xEE,0xEF,0xF0,0xF1,0xF2,
 300:Middlewares/Third_Party/FatFs/src/ff.c **** 
 301:Middlewares/Third_Party/FatFs/src/ff.c **** #elif _CODE_PAGE == 866	/* Russian (OEM) */
 302:Middlewares/Third_Party/FatFs/src/ff.c **** #define _DF1S	0
 303:Middlewares/Third_Party/FatFs/src/ff.c **** #define _EXCVT {0x80,0x81,0x82,0x83,0x84,0x85,0x86,0x87,0x88,0x89,0x8A,0x8B,0x8C,0x8D,0x8E,0x8F,0x9
 304:Middlewares/Third_Party/FatFs/src/ff.c **** 				0x80,0x81,0x82,0x83,0x84,0x85,0x86,0x87,0x88,0x89,0x8A,0x8B,0x8C,0x8D,0x8E,0x8F,0xB0,0xB1,0xB2,
 305:Middlewares/Third_Party/FatFs/src/ff.c **** 				0xC0,0xC1,0xC2,0xC3,0xC4,0xC5,0xC6,0xC7,0xC8,0xC9,0xCA,0xCB,0xCC,0xCD,0xCE,0xCF,0xD0,0xD1,0xD2,
 306:Middlewares/Third_Party/FatFs/src/ff.c **** 				0x90,0x91,0x92,0x93,0x9d,0x95,0x96,0x97,0x98,0x99,0x9A,0x9B,0x9C,0x9D,0x9E,0x9F,0xF0,0xF0,0xF2,
 307:Middlewares/Third_Party/FatFs/src/ff.c **** 
 308:Middlewares/Third_Party/FatFs/src/ff.c **** #elif _CODE_PAGE == 874	/* Thai (OEM, Windows) */
 309:Middlewares/Third_Party/FatFs/src/ff.c **** #define _DF1S	0
 310:Middlewares/Third_Party/FatFs/src/ff.c **** #define _EXCVT {0x80,0x81,0x82,0x83,0x84,0x85,0x86,0x87,0x88,0x89,0x8A,0x8B,0x8C,0x8D,0x8E,0x8F,0x9
 311:Middlewares/Third_Party/FatFs/src/ff.c **** 				0xA0,0xA1,0xA2,0xA3,0xA4,0xA5,0xA6,0xA7,0xA8,0xA9,0xAA,0xAB,0xAC,0xAD,0xAE,0xAF,0xB0,0xB1,0xB2,
 312:Middlewares/Third_Party/FatFs/src/ff.c **** 				0xC0,0xC1,0xC2,0xC3,0xC4,0xC5,0xC6,0xC7,0xC8,0xC9,0xCA,0xCB,0xCC,0xCD,0xCE,0xCF,0xD0,0xD1,0xD2,
 313:Middlewares/Third_Party/FatFs/src/ff.c **** 				0xE0,0xE1,0xE2,0xE3,0xE4,0xE5,0xE6,0xE7,0xE8,0xE9,0xEA,0xEB,0xEC,0xED,0xEE,0xEF,0xF0,0xF1,0xF2,
 314:Middlewares/Third_Party/FatFs/src/ff.c **** 
 315:Middlewares/Third_Party/FatFs/src/ff.c **** #elif _CODE_PAGE == 1250 /* Central Europe (Windows) */
 316:Middlewares/Third_Party/FatFs/src/ff.c **** #define _DF1S	0
 317:Middlewares/Third_Party/FatFs/src/ff.c **** #define _EXCVT {0x80,0x81,0x82,0x83,0x84,0x85,0x86,0x87,0x88,0x89,0x8A,0x8B,0x8C,0x8D,0x8E,0x8F,0x9
ARM GAS  /tmp/ccktbAOa.s 			page 7


 318:Middlewares/Third_Party/FatFs/src/ff.c **** 				0xA0,0xA1,0xA2,0xA3,0xA4,0xA5,0xA6,0xA7,0xA8,0xA9,0xAA,0xAB,0xAC,0xAD,0xAE,0xAF,0xB0,0xB1,0xB2,
 319:Middlewares/Third_Party/FatFs/src/ff.c **** 				0xC0,0xC1,0xC2,0xC3,0xC4,0xC5,0xC6,0xC7,0xC8,0xC9,0xCA,0xCB,0xCC,0xCD,0xCE,0xCF,0xD0,0xD1,0xD2,
 320:Middlewares/Third_Party/FatFs/src/ff.c **** 				0xC0,0xC1,0xC2,0xC3,0xC4,0xC5,0xC6,0xC7,0xC8,0xC9,0xCA,0xCB,0xCC,0xCD,0xCE,0xCF,0xD0,0xD1,0xD2,
 321:Middlewares/Third_Party/FatFs/src/ff.c **** 
 322:Middlewares/Third_Party/FatFs/src/ff.c **** #elif _CODE_PAGE == 1251 /* Cyrillic (Windows) */
 323:Middlewares/Third_Party/FatFs/src/ff.c **** #define _DF1S	0
 324:Middlewares/Third_Party/FatFs/src/ff.c **** #define _EXCVT {0x80,0x81,0x82,0x82,0x84,0x85,0x86,0x87,0x88,0x89,0x8A,0x8B,0x8C,0x8D,0x8E,0x8F,0x8
 325:Middlewares/Third_Party/FatFs/src/ff.c **** 				0xA0,0xA2,0xA2,0xA3,0xA4,0xA5,0xA6,0xA7,0xA8,0xA9,0xAA,0xAB,0xAC,0xAD,0xAE,0xAF,0xB0,0xB1,0xB2,
 326:Middlewares/Third_Party/FatFs/src/ff.c **** 				0xC0,0xC1,0xC2,0xC3,0xC4,0xC5,0xC6,0xC7,0xC8,0xC9,0xCA,0xCB,0xCC,0xCD,0xCE,0xCF,0xD0,0xD1,0xD2,
 327:Middlewares/Third_Party/FatFs/src/ff.c **** 				0xC0,0xC1,0xC2,0xC3,0xC4,0xC5,0xC6,0xC7,0xC8,0xC9,0xCA,0xCB,0xCC,0xCD,0xCE,0xCF,0xD0,0xD1,0xD2,
 328:Middlewares/Third_Party/FatFs/src/ff.c **** 
 329:Middlewares/Third_Party/FatFs/src/ff.c **** #elif _CODE_PAGE == 1252 /* Latin 1 (Windows) */
 330:Middlewares/Third_Party/FatFs/src/ff.c **** #define _DF1S	0
 331:Middlewares/Third_Party/FatFs/src/ff.c **** #define _EXCVT {0x80,0x81,0x82,0x83,0x84,0x85,0x86,0x87,0x88,0x89,0x8A,0x8B,0x8C,0x8D,0x8E,0x8F,0x9
 332:Middlewares/Third_Party/FatFs/src/ff.c **** 				0xA0,0x21,0xA2,0xA3,0xA4,0xA5,0xA6,0xA7,0xA8,0xA9,0xAA,0xAB,0xAC,0xAD,0xAE,0xAF,0xB0,0xB1,0xB2,
 333:Middlewares/Third_Party/FatFs/src/ff.c **** 				0xC0,0xC1,0xC2,0xC3,0xC4,0xC5,0xC6,0xC7,0xC8,0xC9,0xCA,0xCB,0xCC,0xCD,0xCE,0xCF,0xD0,0xD1,0xD2,
 334:Middlewares/Third_Party/FatFs/src/ff.c **** 				0xC0,0xC1,0xC2,0xC3,0xC4,0xC5,0xC6,0xC7,0xC8,0xC9,0xCA,0xCB,0xCC,0xCD,0xCE,0xCF,0xD0,0xD1,0xD2,
 335:Middlewares/Third_Party/FatFs/src/ff.c **** 
 336:Middlewares/Third_Party/FatFs/src/ff.c **** #elif _CODE_PAGE == 1253 /* Greek (Windows) */
 337:Middlewares/Third_Party/FatFs/src/ff.c **** #define _DF1S	0
 338:Middlewares/Third_Party/FatFs/src/ff.c **** #define _EXCVT {0x80,0x81,0x82,0x83,0x84,0x85,0x86,0x87,0x88,0x89,0x8A,0x8B,0x8C,0x8D,0x8E,0x8F,0x9
 339:Middlewares/Third_Party/FatFs/src/ff.c **** 				0xA0,0xA1,0xA2,0xA3,0xA4,0xA5,0xA6,0xA7,0xA8,0xA9,0xAA,0xAB,0xAC,0xAD,0xAE,0xAF,0xB0,0xB1,0xB2,
 340:Middlewares/Third_Party/FatFs/src/ff.c **** 				0xC0,0xC1,0xC2,0xC3,0xC4,0xC5,0xC6,0xC7,0xC8,0xC9,0xCA,0xCB,0xCC,0xCD,0xCE,0xCF,0xD0,0xD1,0xD2,
 341:Middlewares/Third_Party/FatFs/src/ff.c **** 				0xE0,0xC1,0xC2,0xC3,0xC4,0xC5,0xC6,0xC7,0xC8,0xC9,0xCA,0xCB,0xCC,0xCD,0xCE,0xCF,0xD0,0xD1,0xF2,
 342:Middlewares/Third_Party/FatFs/src/ff.c **** 
 343:Middlewares/Third_Party/FatFs/src/ff.c **** #elif _CODE_PAGE == 1254 /* Turkish (Windows) */
 344:Middlewares/Third_Party/FatFs/src/ff.c **** #define _DF1S	0
 345:Middlewares/Third_Party/FatFs/src/ff.c **** #define _EXCVT {0x80,0x81,0x82,0x83,0x84,0x85,0x86,0x87,0x88,0x89,0x8A,0x8B,0x8C,0x8D,0x8E,0x8F,0x9
 346:Middlewares/Third_Party/FatFs/src/ff.c **** 				0xA0,0x21,0xA2,0xA3,0xA4,0xA5,0xA6,0xA7,0xA8,0xA9,0xAA,0xAB,0xAC,0xAD,0xAE,0xAF,0xB0,0xB1,0xB2,
 347:Middlewares/Third_Party/FatFs/src/ff.c **** 				0xC0,0xC1,0xC2,0xC3,0xC4,0xC5,0xC6,0xC7,0xC8,0xC9,0xCA,0xCB,0xCC,0xCD,0xCE,0xCF,0xD0,0xD1,0xD2,
 348:Middlewares/Third_Party/FatFs/src/ff.c **** 				0xC0,0xC1,0xC2,0xC3,0xC4,0xC5,0xC6,0xC7,0xC8,0xC9,0xCA,0xCB,0xCC,0xCD,0xCE,0xCF,0xD0,0xD1,0xD2,
 349:Middlewares/Third_Party/FatFs/src/ff.c **** 
 350:Middlewares/Third_Party/FatFs/src/ff.c **** #elif _CODE_PAGE == 1255 /* Hebrew (Windows) */
 351:Middlewares/Third_Party/FatFs/src/ff.c **** #define _DF1S	0
 352:Middlewares/Third_Party/FatFs/src/ff.c **** #define _EXCVT {0x80,0x81,0x82,0x83,0x84,0x85,0x86,0x87,0x88,0x89,0x8A,0x8B,0x8C,0x8D,0x8E,0x8F,0x9
 353:Middlewares/Third_Party/FatFs/src/ff.c **** 				0xA0,0x21,0xA2,0xA3,0xA4,0xA5,0xA6,0xA7,0xA8,0xA9,0xAA,0xAB,0xAC,0xAD,0xAE,0xAF,0xB0,0xB1,0xB2,
 354:Middlewares/Third_Party/FatFs/src/ff.c **** 				0xC0,0xC1,0xC2,0xC3,0xC4,0xC5,0xC6,0xC7,0xC8,0xC9,0xCA,0xCB,0xCC,0xCD,0xCE,0xCF,0xD0,0xD1,0xD2,
 355:Middlewares/Third_Party/FatFs/src/ff.c **** 				0xE0,0xE1,0xE2,0xE3,0xE4,0xE5,0xE6,0xE7,0xE8,0xE9,0xEA,0xEB,0xEC,0xED,0xEE,0xEF,0xF0,0xF1,0xF2,
 356:Middlewares/Third_Party/FatFs/src/ff.c **** 
 357:Middlewares/Third_Party/FatFs/src/ff.c **** #elif _CODE_PAGE == 1256 /* Arabic (Windows) */
 358:Middlewares/Third_Party/FatFs/src/ff.c **** #define _DF1S	0
 359:Middlewares/Third_Party/FatFs/src/ff.c **** #define _EXCVT {0x80,0x81,0x82,0x83,0x84,0x85,0x86,0x87,0x88,0x89,0x8A,0x8B,0x8C,0x8D,0x8E,0x8F,0x9
 360:Middlewares/Third_Party/FatFs/src/ff.c **** 				0xA0,0xA1,0xA2,0xA3,0xA4,0xA5,0xA6,0xA7,0xA8,0xA9,0xAA,0xAB,0xAC,0xAD,0xAE,0xAF,0xB0,0xB1,0xB2,
 361:Middlewares/Third_Party/FatFs/src/ff.c **** 				0xC0,0xC1,0xC2,0xC3,0xC4,0xC5,0xC6,0xC7,0xC8,0xC9,0xCA,0xCB,0xCC,0xCD,0xCE,0xCF,0xD0,0xD1,0xD2,
 362:Middlewares/Third_Party/FatFs/src/ff.c **** 				0x41,0xE1,0x41,0xE3,0xE4,0xE5,0xE6,0x43,0x45,0x45,0x45,0x45,0xEC,0xED,0x49,0x49,0xF0,0xF1,0xF2,
 363:Middlewares/Third_Party/FatFs/src/ff.c **** 
 364:Middlewares/Third_Party/FatFs/src/ff.c **** #elif _CODE_PAGE == 1257 /* Baltic (Windows) */
 365:Middlewares/Third_Party/FatFs/src/ff.c **** #define _DF1S	0
 366:Middlewares/Third_Party/FatFs/src/ff.c **** #define _EXCVT {0x80,0x81,0x82,0x83,0x84,0x85,0x86,0x87,0x88,0x89,0x8A,0x8B,0x8C,0x8D,0x8E,0x8F,0x9
 367:Middlewares/Third_Party/FatFs/src/ff.c **** 				0xA0,0xA1,0xA2,0xA3,0xA4,0xA5,0xA6,0xA7,0xA8,0xA9,0xAA,0xAB,0xAC,0xAD,0xAE,0xAF,0xB0,0xB1,0xB2,
 368:Middlewares/Third_Party/FatFs/src/ff.c **** 				0xC0,0xC1,0xC2,0xC3,0xC4,0xC5,0xC6,0xC7,0xC8,0xC9,0xCA,0xCB,0xCC,0xCD,0xCE,0xCF,0xD0,0xD1,0xD2,
 369:Middlewares/Third_Party/FatFs/src/ff.c **** 				0xC0,0xC1,0xC2,0xC3,0xC4,0xC5,0xC6,0xC7,0xC8,0xC9,0xCA,0xCB,0xCC,0xCD,0xCE,0xCF,0xD0,0xD1,0xD2,
 370:Middlewares/Third_Party/FatFs/src/ff.c **** 
 371:Middlewares/Third_Party/FatFs/src/ff.c **** #elif _CODE_PAGE == 1258 /* Vietnam (OEM, Windows) */
 372:Middlewares/Third_Party/FatFs/src/ff.c **** #define _DF1S	0
 373:Middlewares/Third_Party/FatFs/src/ff.c **** #define _EXCVT {0x80,0x81,0x82,0x83,0x84,0x85,0x86,0x87,0x88,0x89,0x8A,0x8B,0x8C,0x8D,0x8E,0x8F,0x9
 374:Middlewares/Third_Party/FatFs/src/ff.c **** 				0xA0,0x21,0xA2,0xA3,0xA4,0xA5,0xA6,0xA7,0xA8,0xA9,0xAA,0xAB,0xAC,0xAD,0xAE,0xAF,0xB0,0xB1,0xB2,
ARM GAS  /tmp/ccktbAOa.s 			page 8


 375:Middlewares/Third_Party/FatFs/src/ff.c **** 				0xC0,0xC1,0xC2,0xC3,0xC4,0xC5,0xC6,0xC7,0xC8,0xC9,0xCA,0xCB,0xCC,0xCD,0xCE,0xCF,0xD0,0xD1,0xD2,
 376:Middlewares/Third_Party/FatFs/src/ff.c **** 				0xC0,0xC1,0xC2,0xC3,0xC4,0xC5,0xC6,0xC7,0xC8,0xC9,0xCA,0xCB,0xEC,0xCD,0xCE,0xCF,0xD0,0xD1,0xF2,
 377:Middlewares/Third_Party/FatFs/src/ff.c **** 
 378:Middlewares/Third_Party/FatFs/src/ff.c **** #elif _CODE_PAGE == 1	/* ASCII (for only non-LFN cfg) */
 379:Middlewares/Third_Party/FatFs/src/ff.c **** #if _USE_LFN
 380:Middlewares/Third_Party/FatFs/src/ff.c **** #error Cannot use LFN feature without valid code page.
 381:Middlewares/Third_Party/FatFs/src/ff.c **** #endif
 382:Middlewares/Third_Party/FatFs/src/ff.c **** #define _DF1S	0
 383:Middlewares/Third_Party/FatFs/src/ff.c **** 
 384:Middlewares/Third_Party/FatFs/src/ff.c **** #else
 385:Middlewares/Third_Party/FatFs/src/ff.c **** #error Unknown code page
 386:Middlewares/Third_Party/FatFs/src/ff.c **** 
 387:Middlewares/Third_Party/FatFs/src/ff.c **** #endif
 388:Middlewares/Third_Party/FatFs/src/ff.c **** 
 389:Middlewares/Third_Party/FatFs/src/ff.c **** 
 390:Middlewares/Third_Party/FatFs/src/ff.c **** /* Character code support macros */
 391:Middlewares/Third_Party/FatFs/src/ff.c **** #define IsUpper(c)	(((c)>='A')&&((c)<='Z'))
 392:Middlewares/Third_Party/FatFs/src/ff.c **** #define IsLower(c)	(((c)>='a')&&((c)<='z'))
 393:Middlewares/Third_Party/FatFs/src/ff.c **** #define IsDigit(c)	(((c)>='0')&&((c)<='9'))
 394:Middlewares/Third_Party/FatFs/src/ff.c **** 
 395:Middlewares/Third_Party/FatFs/src/ff.c **** #if _DF1S		/* Code page is DBCS */
 396:Middlewares/Third_Party/FatFs/src/ff.c **** 
 397:Middlewares/Third_Party/FatFs/src/ff.c **** #ifdef _DF2S	/* Two 1st byte areas */
 398:Middlewares/Third_Party/FatFs/src/ff.c **** #define IsDBCS1(c)	(((BYTE)(c) >= _DF1S && (BYTE)(c) <= _DF1E) || ((BYTE)(c) >= _DF2S && (BYTE)(c) 
 399:Middlewares/Third_Party/FatFs/src/ff.c **** #else			/* One 1st byte area */
 400:Middlewares/Third_Party/FatFs/src/ff.c **** #define IsDBCS1(c)	((BYTE)(c) >= _DF1S && (BYTE)(c) <= _DF1E)
 401:Middlewares/Third_Party/FatFs/src/ff.c **** #endif
 402:Middlewares/Third_Party/FatFs/src/ff.c **** 
 403:Middlewares/Third_Party/FatFs/src/ff.c **** #ifdef _DS3S	/* Three 2nd byte areas */
 404:Middlewares/Third_Party/FatFs/src/ff.c **** #define IsDBCS2(c)	(((BYTE)(c) >= _DS1S && (BYTE)(c) <= _DS1E) || ((BYTE)(c) >= _DS2S && (BYTE)(c) 
 405:Middlewares/Third_Party/FatFs/src/ff.c **** #else			/* Two 2nd byte areas */
 406:Middlewares/Third_Party/FatFs/src/ff.c **** #define IsDBCS2(c)	(((BYTE)(c) >= _DS1S && (BYTE)(c) <= _DS1E) || ((BYTE)(c) >= _DS2S && (BYTE)(c) 
 407:Middlewares/Third_Party/FatFs/src/ff.c **** #endif
 408:Middlewares/Third_Party/FatFs/src/ff.c **** 
 409:Middlewares/Third_Party/FatFs/src/ff.c **** #else			/* Code page is SBCS */
 410:Middlewares/Third_Party/FatFs/src/ff.c **** 
 411:Middlewares/Third_Party/FatFs/src/ff.c **** #define IsDBCS1(c)	0
 412:Middlewares/Third_Party/FatFs/src/ff.c **** #define IsDBCS2(c)	0
 413:Middlewares/Third_Party/FatFs/src/ff.c **** 
 414:Middlewares/Third_Party/FatFs/src/ff.c **** #endif /* _DF1S */
 415:Middlewares/Third_Party/FatFs/src/ff.c **** 
 416:Middlewares/Third_Party/FatFs/src/ff.c **** 
 417:Middlewares/Third_Party/FatFs/src/ff.c **** /* Name status flags */
 418:Middlewares/Third_Party/FatFs/src/ff.c **** #define NSFLAG		11		/* Index of name status byte in fn[] */
 419:Middlewares/Third_Party/FatFs/src/ff.c **** #define NS_LOSS		0x01	/* Out of 8.3 format */
 420:Middlewares/Third_Party/FatFs/src/ff.c **** #define NS_LFN		0x02	/* Force to create LFN entry */
 421:Middlewares/Third_Party/FatFs/src/ff.c **** #define NS_LAST		0x04	/* Last segment */
 422:Middlewares/Third_Party/FatFs/src/ff.c **** #define NS_BODY		0x08	/* Lower case flag (body) */
 423:Middlewares/Third_Party/FatFs/src/ff.c **** #define NS_EXT		0x10	/* Lower case flag (ext) */
 424:Middlewares/Third_Party/FatFs/src/ff.c **** #define NS_DOT		0x20	/* Dot entry */
 425:Middlewares/Third_Party/FatFs/src/ff.c **** 
 426:Middlewares/Third_Party/FatFs/src/ff.c **** 
 427:Middlewares/Third_Party/FatFs/src/ff.c **** /* FAT sub-type boundaries (Differ from specs but correct for real DOS/Windows) */
 428:Middlewares/Third_Party/FatFs/src/ff.c **** #define MIN_FAT16	4086U	/* Minimum number of clusters as FAT16 */
 429:Middlewares/Third_Party/FatFs/src/ff.c **** #define	MIN_FAT32	65526U	/* Minimum number of clusters as FAT32 */
 430:Middlewares/Third_Party/FatFs/src/ff.c **** 
 431:Middlewares/Third_Party/FatFs/src/ff.c **** 
ARM GAS  /tmp/ccktbAOa.s 			page 9


 432:Middlewares/Third_Party/FatFs/src/ff.c **** /* FatFs refers the members in the FAT structures as byte array instead of
 433:Middlewares/Third_Party/FatFs/src/ff.c **** / structure member because the structure is not binary compatible between
 434:Middlewares/Third_Party/FatFs/src/ff.c **** / different platforms */
 435:Middlewares/Third_Party/FatFs/src/ff.c **** 
 436:Middlewares/Third_Party/FatFs/src/ff.c **** #define BS_jmpBoot			0		/* x86 jump instruction (3) */
 437:Middlewares/Third_Party/FatFs/src/ff.c **** #define BS_OEMName			3		/* OEM name (8) */
 438:Middlewares/Third_Party/FatFs/src/ff.c **** #define BPB_BytsPerSec		11		/* Sector size [byte] (2) */
 439:Middlewares/Third_Party/FatFs/src/ff.c **** #define BPB_SecPerClus		13		/* Cluster size [sector] (1) */
 440:Middlewares/Third_Party/FatFs/src/ff.c **** #define BPB_RsvdSecCnt		14		/* Size of reserved area [sector] (2) */
 441:Middlewares/Third_Party/FatFs/src/ff.c **** #define BPB_NumFATs			16		/* Number of FAT copies (1) */
 442:Middlewares/Third_Party/FatFs/src/ff.c **** #define BPB_RootEntCnt		17		/* Number of root directory entries for FAT12/16 (2) */
 443:Middlewares/Third_Party/FatFs/src/ff.c **** #define BPB_TotSec16		19		/* Volume size [sector] (2) */
 444:Middlewares/Third_Party/FatFs/src/ff.c **** #define BPB_Media			21		/* Media descriptor (1) */
 445:Middlewares/Third_Party/FatFs/src/ff.c **** #define BPB_FATSz16			22		/* FAT size [sector] (2) */
 446:Middlewares/Third_Party/FatFs/src/ff.c **** #define BPB_SecPerTrk		24		/* Track size [sector] (2) */
 447:Middlewares/Third_Party/FatFs/src/ff.c **** #define BPB_NumHeads		26		/* Number of heads (2) */
 448:Middlewares/Third_Party/FatFs/src/ff.c **** #define BPB_HiddSec			28		/* Number of special hidden sectors (4) */
 449:Middlewares/Third_Party/FatFs/src/ff.c **** #define BPB_TotSec32		32		/* Volume size [sector] (4) */
 450:Middlewares/Third_Party/FatFs/src/ff.c **** #define BS_DrvNum			36		/* Physical drive number (2) */
 451:Middlewares/Third_Party/FatFs/src/ff.c **** #define BS_BootSig			38		/* Extended boot signature (1) */
 452:Middlewares/Third_Party/FatFs/src/ff.c **** #define BS_VolID			39		/* Volume serial number (4) */
 453:Middlewares/Third_Party/FatFs/src/ff.c **** #define BS_VolLab			43		/* Volume label (8) */
 454:Middlewares/Third_Party/FatFs/src/ff.c **** #define BS_FilSysType		54		/* File system type (1) */
 455:Middlewares/Third_Party/FatFs/src/ff.c **** #define BPB_FATSz32			36		/* FAT size [sector] (4) */
 456:Middlewares/Third_Party/FatFs/src/ff.c **** #define BPB_ExtFlags		40		/* Extended flags (2) */
 457:Middlewares/Third_Party/FatFs/src/ff.c **** #define BPB_FSVer			42		/* File system version (2) */
 458:Middlewares/Third_Party/FatFs/src/ff.c **** #define BPB_RootClus		44		/* Root directory first cluster (4) */
 459:Middlewares/Third_Party/FatFs/src/ff.c **** #define BPB_FSInfo			48		/* Offset of FSINFO sector (2) */
 460:Middlewares/Third_Party/FatFs/src/ff.c **** #define BPB_BkBootSec		50		/* Offset of backup boot sector (2) */
 461:Middlewares/Third_Party/FatFs/src/ff.c **** #define BS_DrvNum32			64		/* Physical drive number (2) */
 462:Middlewares/Third_Party/FatFs/src/ff.c **** #define BS_BootSig32		66		/* Extended boot signature (1) */
 463:Middlewares/Third_Party/FatFs/src/ff.c **** #define BS_VolID32			67		/* Volume serial number (4) */
 464:Middlewares/Third_Party/FatFs/src/ff.c **** #define BS_VolLab32			71		/* Volume label (8) */
 465:Middlewares/Third_Party/FatFs/src/ff.c **** #define BS_FilSysType32		82		/* File system type (1) */
 466:Middlewares/Third_Party/FatFs/src/ff.c **** #define	FSI_LeadSig			0		/* FSI: Leading signature (4) */
 467:Middlewares/Third_Party/FatFs/src/ff.c **** #define	FSI_StrucSig		484		/* FSI: Structure signature (4) */
 468:Middlewares/Third_Party/FatFs/src/ff.c **** #define	FSI_Free_Count		488		/* FSI: Number of free clusters (4) */
 469:Middlewares/Third_Party/FatFs/src/ff.c **** #define	FSI_Nxt_Free		492		/* FSI: Last allocated cluster (4) */
 470:Middlewares/Third_Party/FatFs/src/ff.c **** #define MBR_Table			446		/* MBR: Partition table offset (2) */
 471:Middlewares/Third_Party/FatFs/src/ff.c **** #define	SZ_PTE				16		/* MBR: Size of a partition table entry */
 472:Middlewares/Third_Party/FatFs/src/ff.c **** #define BS_55AA				510		/* Signature word (2) */
 473:Middlewares/Third_Party/FatFs/src/ff.c **** 
 474:Middlewares/Third_Party/FatFs/src/ff.c **** #define	DIR_Name			0		/* Short file name (11) */
 475:Middlewares/Third_Party/FatFs/src/ff.c **** #define	DIR_Attr			11		/* Attribute (1) */
 476:Middlewares/Third_Party/FatFs/src/ff.c **** #define	DIR_NTres			12		/* Lower case flag (1) */
 477:Middlewares/Third_Party/FatFs/src/ff.c **** #define DIR_CrtTimeTenth	13		/* Created time sub-second (1) */
 478:Middlewares/Third_Party/FatFs/src/ff.c **** #define	DIR_CrtTime			14		/* Created time (2) */
 479:Middlewares/Third_Party/FatFs/src/ff.c **** #define	DIR_CrtDate			16		/* Created date (2) */
 480:Middlewares/Third_Party/FatFs/src/ff.c **** #define DIR_LstAccDate		18		/* Last accessed date (2) */
 481:Middlewares/Third_Party/FatFs/src/ff.c **** #define	DIR_FstClusHI		20		/* Higher 16-bit of first cluster (2) */
 482:Middlewares/Third_Party/FatFs/src/ff.c **** #define	DIR_WrtTime			22		/* Modified time (2) */
 483:Middlewares/Third_Party/FatFs/src/ff.c **** #define	DIR_WrtDate			24		/* Modified date (2) */
 484:Middlewares/Third_Party/FatFs/src/ff.c **** #define	DIR_FstClusLO		26		/* Lower 16-bit of first cluster (2) */
 485:Middlewares/Third_Party/FatFs/src/ff.c **** #define	DIR_FileSize		28		/* File size (4) */
 486:Middlewares/Third_Party/FatFs/src/ff.c **** #define	LDIR_Ord			0		/* LFN entry order and LLE flag (1) */
 487:Middlewares/Third_Party/FatFs/src/ff.c **** #define	LDIR_Attr			11		/* LFN attribute (1) */
 488:Middlewares/Third_Party/FatFs/src/ff.c **** #define	LDIR_Type			12		/* LFN type (1) */
ARM GAS  /tmp/ccktbAOa.s 			page 10


 489:Middlewares/Third_Party/FatFs/src/ff.c **** #define	LDIR_Chksum			13		/* Sum of corresponding SFN entry */
 490:Middlewares/Third_Party/FatFs/src/ff.c **** #define	LDIR_FstClusLO		26		/* Must be zero (0) */
 491:Middlewares/Third_Party/FatFs/src/ff.c **** #define	SZ_DIRE				32		/* Size of a directory entry */
 492:Middlewares/Third_Party/FatFs/src/ff.c **** #define	LLEF				0x40	/* Last long entry flag in LDIR_Ord */
 493:Middlewares/Third_Party/FatFs/src/ff.c **** #define	DDEM				0xE5	/* Deleted directory entry mark at DIR_Name[0] */
 494:Middlewares/Third_Party/FatFs/src/ff.c **** #define	RDDEM				0x05	/* Replacement of the character collides with DDEM */
 495:Middlewares/Third_Party/FatFs/src/ff.c **** 
 496:Middlewares/Third_Party/FatFs/src/ff.c **** 
 497:Middlewares/Third_Party/FatFs/src/ff.c **** 
 498:Middlewares/Third_Party/FatFs/src/ff.c **** 
 499:Middlewares/Third_Party/FatFs/src/ff.c **** /*------------------------------------------------------------*/
 500:Middlewares/Third_Party/FatFs/src/ff.c **** /* Module private work area                                   */
 501:Middlewares/Third_Party/FatFs/src/ff.c **** /*------------------------------------------------------------*/
 502:Middlewares/Third_Party/FatFs/src/ff.c **** /* Remark: Uninitialized variables with static duration are
 503:Middlewares/Third_Party/FatFs/src/ff.c **** /  guaranteed zero/null at start-up. If not, either the linker
 504:Middlewares/Third_Party/FatFs/src/ff.c **** /  or start-up routine being used is out of ANSI-C standard.
 505:Middlewares/Third_Party/FatFs/src/ff.c **** */
 506:Middlewares/Third_Party/FatFs/src/ff.c **** 
 507:Middlewares/Third_Party/FatFs/src/ff.c **** #if _VOLUMES < 1 || _VOLUMES > 9
 508:Middlewares/Third_Party/FatFs/src/ff.c **** #error Wrong _VOLUMES setting
 509:Middlewares/Third_Party/FatFs/src/ff.c **** #endif
 510:Middlewares/Third_Party/FatFs/src/ff.c **** static FATFS *FatFs[_VOLUMES];	/* Pointer to the file system objects (logical drives) */
 511:Middlewares/Third_Party/FatFs/src/ff.c **** static WORD Fsid;				/* File system mount ID */
 512:Middlewares/Third_Party/FatFs/src/ff.c **** 
 513:Middlewares/Third_Party/FatFs/src/ff.c **** #if _FS_RPATH && _VOLUMES >= 2
 514:Middlewares/Third_Party/FatFs/src/ff.c **** static BYTE CurrVol;			/* Current drive */
 515:Middlewares/Third_Party/FatFs/src/ff.c **** #endif
 516:Middlewares/Third_Party/FatFs/src/ff.c **** 
 517:Middlewares/Third_Party/FatFs/src/ff.c **** #if _FS_LOCK
 518:Middlewares/Third_Party/FatFs/src/ff.c **** static FILESEM Files[_FS_LOCK];	/* Open object lock semaphores */
 519:Middlewares/Third_Party/FatFs/src/ff.c **** #endif
 520:Middlewares/Third_Party/FatFs/src/ff.c **** 
 521:Middlewares/Third_Party/FatFs/src/ff.c **** #if _USE_LFN == 0			/* Non LFN feature */
 522:Middlewares/Third_Party/FatFs/src/ff.c **** #define	DEFINE_NAMEBUF		BYTE sfn[12]
 523:Middlewares/Third_Party/FatFs/src/ff.c **** #define INIT_BUF(dobj)		(dobj).fn = sfn
 524:Middlewares/Third_Party/FatFs/src/ff.c **** #define	FREE_BUF()
 525:Middlewares/Third_Party/FatFs/src/ff.c **** #else
 526:Middlewares/Third_Party/FatFs/src/ff.c **** #if _MAX_LFN < 12 || _MAX_LFN > 255
 527:Middlewares/Third_Party/FatFs/src/ff.c **** #error Wrong _MAX_LFN setting
 528:Middlewares/Third_Party/FatFs/src/ff.c **** #endif
 529:Middlewares/Third_Party/FatFs/src/ff.c **** #if _USE_LFN == 1			/* LFN feature with static working buffer */
 530:Middlewares/Third_Party/FatFs/src/ff.c **** static WCHAR LfnBuf[_MAX_LFN + 1];
 531:Middlewares/Third_Party/FatFs/src/ff.c **** #define	DEFINE_NAMEBUF		BYTE sfn[12]
 532:Middlewares/Third_Party/FatFs/src/ff.c **** #define INIT_BUF(dobj)		{ (dobj).fn = sfn; (dobj).lfn = LfnBuf; }
 533:Middlewares/Third_Party/FatFs/src/ff.c **** #define	FREE_BUF()
 534:Middlewares/Third_Party/FatFs/src/ff.c **** #elif _USE_LFN == 2 		/* LFN feature with dynamic working buffer on the stack */
 535:Middlewares/Third_Party/FatFs/src/ff.c **** #define	DEFINE_NAMEBUF		BYTE sfn[12]; WCHAR lbuf[_MAX_LFN + 1]
 536:Middlewares/Third_Party/FatFs/src/ff.c **** #define INIT_BUF(dobj)		{ (dobj).fn = sfn; (dobj).lfn = lbuf; }
 537:Middlewares/Third_Party/FatFs/src/ff.c **** #define	FREE_BUF()
 538:Middlewares/Third_Party/FatFs/src/ff.c **** #elif _USE_LFN == 3 		/* LFN feature with dynamic working buffer on the heap */
 539:Middlewares/Third_Party/FatFs/src/ff.c **** #define	DEFINE_NAMEBUF		BYTE sfn[12]; WCHAR *lfn
 540:Middlewares/Third_Party/FatFs/src/ff.c **** #define INIT_BUF(dobj)		{ lfn = ff_memalloc((_MAX_LFN + 1) * 2); if (!lfn) LEAVE_FF((dobj).fs, FR_N
 541:Middlewares/Third_Party/FatFs/src/ff.c **** #define	FREE_BUF()			ff_memfree(lfn)
 542:Middlewares/Third_Party/FatFs/src/ff.c **** #else
 543:Middlewares/Third_Party/FatFs/src/ff.c **** #error Wrong _USE_LFN setting
 544:Middlewares/Third_Party/FatFs/src/ff.c **** #endif
 545:Middlewares/Third_Party/FatFs/src/ff.c **** #endif
ARM GAS  /tmp/ccktbAOa.s 			page 11


 546:Middlewares/Third_Party/FatFs/src/ff.c **** 
 547:Middlewares/Third_Party/FatFs/src/ff.c **** #ifdef _EXCVT
 548:Middlewares/Third_Party/FatFs/src/ff.c **** static const BYTE ExCvt[] = _EXCVT;	/* Upper conversion table for extended characters */
 549:Middlewares/Third_Party/FatFs/src/ff.c **** #endif
 550:Middlewares/Third_Party/FatFs/src/ff.c **** 
 551:Middlewares/Third_Party/FatFs/src/ff.c **** 
 552:Middlewares/Third_Party/FatFs/src/ff.c **** 
 553:Middlewares/Third_Party/FatFs/src/ff.c **** 
 554:Middlewares/Third_Party/FatFs/src/ff.c **** 
 555:Middlewares/Third_Party/FatFs/src/ff.c **** 
 556:Middlewares/Third_Party/FatFs/src/ff.c **** /*--------------------------------------------------------------------------
 557:Middlewares/Third_Party/FatFs/src/ff.c **** 
 558:Middlewares/Third_Party/FatFs/src/ff.c ****    Module Private Functions
 559:Middlewares/Third_Party/FatFs/src/ff.c **** 
 560:Middlewares/Third_Party/FatFs/src/ff.c **** ---------------------------------------------------------------------------*/
 561:Middlewares/Third_Party/FatFs/src/ff.c **** DWORD clust2sect (FATFS* fs, DWORD clst);
 562:Middlewares/Third_Party/FatFs/src/ff.c **** DWORD get_fat (FATFS* fs,	DWORD clst);
 563:Middlewares/Third_Party/FatFs/src/ff.c **** 
 564:Middlewares/Third_Party/FatFs/src/ff.c **** #if !_FS_READONLY
 565:Middlewares/Third_Party/FatFs/src/ff.c **** FRESULT put_fat (FATFS* fs,	DWORD clst,	DWORD val);
 566:Middlewares/Third_Party/FatFs/src/ff.c **** #endif /* !_FS_READONLY */
 567:Middlewares/Third_Party/FatFs/src/ff.c **** 
 568:Middlewares/Third_Party/FatFs/src/ff.c **** #if _USE_LFN
 569:Middlewares/Third_Party/FatFs/src/ff.c **** static void gen_numname (BYTE* dst, const BYTE* src, const WCHAR* lfn, UINT seq);
 570:Middlewares/Third_Party/FatFs/src/ff.c **** #endif /* !_USE_LFN */
 571:Middlewares/Third_Party/FatFs/src/ff.c **** 
 572:Middlewares/Third_Party/FatFs/src/ff.c **** 
 573:Middlewares/Third_Party/FatFs/src/ff.c **** 
 574:Middlewares/Third_Party/FatFs/src/ff.c **** /*-----------------------------------------------------------------------*/
 575:Middlewares/Third_Party/FatFs/src/ff.c **** /* String functions                                                      */
 576:Middlewares/Third_Party/FatFs/src/ff.c **** /*-----------------------------------------------------------------------*/
 577:Middlewares/Third_Party/FatFs/src/ff.c **** 
 578:Middlewares/Third_Party/FatFs/src/ff.c **** /* Copy memory to memory */
 579:Middlewares/Third_Party/FatFs/src/ff.c **** static
 580:Middlewares/Third_Party/FatFs/src/ff.c **** void mem_cpy (void* dst, const void* src, UINT cnt) {
  27              		.loc 1 580 0
  28              		.cfi_startproc
  29              		@ args = 0, pretend = 0, frame = 0
  30              		@ frame_needed = 0, uses_anonymous_args = 0
  31              		@ link register save eliminated.
  32              	.LVL0:
 581:Middlewares/Third_Party/FatFs/src/ff.c **** 	BYTE *d = (BYTE*)dst;
 582:Middlewares/Third_Party/FatFs/src/ff.c **** 	const BYTE *s = (const BYTE*)src;
 583:Middlewares/Third_Party/FatFs/src/ff.c **** 
 584:Middlewares/Third_Party/FatFs/src/ff.c **** #if _WORD_ACCESS == 1
 585:Middlewares/Third_Party/FatFs/src/ff.c **** 	while (cnt >= sizeof (int)) {
 586:Middlewares/Third_Party/FatFs/src/ff.c **** 		*(int*)d = *(int*)s;
 587:Middlewares/Third_Party/FatFs/src/ff.c **** 		d += sizeof (int); s += sizeof (int);
 588:Middlewares/Third_Party/FatFs/src/ff.c **** 		cnt -= sizeof (int);
 589:Middlewares/Third_Party/FatFs/src/ff.c **** 	}
 590:Middlewares/Third_Party/FatFs/src/ff.c **** #endif
 591:Middlewares/Third_Party/FatFs/src/ff.c **** 	while (cnt--)
  33              		.loc 1 591 0
  34 0000 3AB1     		cbz	r2, .L1
  35 0002 0138     		subs	r0, r0, #1
  36              	.LVL1:
  37 0004 8A18     		adds	r2, r1, r2
ARM GAS  /tmp/ccktbAOa.s 			page 12


  38              	.LVL2:
  39              	.L3:
 592:Middlewares/Third_Party/FatFs/src/ff.c **** 		*d++ = *s++;
  40              		.loc 1 592 0
  41 0006 11F8013B 		ldrb	r3, [r1], #1	@ zero_extendqisi2
  42              	.LVL3:
  43 000a 00F8013F 		strb	r3, [r0, #1]!
  44              	.LVL4:
 591:Middlewares/Third_Party/FatFs/src/ff.c **** 		*d++ = *s++;
  45              		.loc 1 591 0
  46 000e 9142     		cmp	r1, r2
  47 0010 F9D1     		bne	.L3
  48              	.LVL5:
  49              	.L1:
  50 0012 7047     		bx	lr
  51              		.cfi_endproc
  52              	.LFE126:
  54              		.section	.text.mem_set,"ax",%progbits
  55              		.align	1
  56              		.syntax unified
  57              		.thumb
  58              		.thumb_func
  59              		.fpu fpv4-sp-d16
  61              	mem_set:
  62              	.LFB127:
 593:Middlewares/Third_Party/FatFs/src/ff.c **** }
 594:Middlewares/Third_Party/FatFs/src/ff.c **** 
 595:Middlewares/Third_Party/FatFs/src/ff.c **** /* Fill memory */
 596:Middlewares/Third_Party/FatFs/src/ff.c **** static
 597:Middlewares/Third_Party/FatFs/src/ff.c **** void mem_set (void* dst, int val, UINT cnt) {
  63              		.loc 1 597 0
  64              		.cfi_startproc
  65              		@ args = 0, pretend = 0, frame = 0
  66              		@ frame_needed = 0, uses_anonymous_args = 0
  67              		@ link register save eliminated.
  68              	.LVL6:
 598:Middlewares/Third_Party/FatFs/src/ff.c **** 	BYTE *d = (BYTE*)dst;
 599:Middlewares/Third_Party/FatFs/src/ff.c **** 
 600:Middlewares/Third_Party/FatFs/src/ff.c **** 	while (cnt--)
  69              		.loc 1 600 0
  70 0000 22B1     		cbz	r2, .L5
  71 0002 8218     		adds	r2, r0, r2
  72              	.LVL7:
  73              	.L7:
 601:Middlewares/Third_Party/FatFs/src/ff.c **** 		*d++ = (BYTE)val;
  74              		.loc 1 601 0
  75 0004 00F8011B 		strb	r1, [r0], #1
  76              	.LVL8:
 600:Middlewares/Third_Party/FatFs/src/ff.c **** 		*d++ = (BYTE)val;
  77              		.loc 1 600 0
  78 0008 8242     		cmp	r2, r0
  79 000a FBD1     		bne	.L7
  80              	.LVL9:
  81              	.L5:
  82 000c 7047     		bx	lr
  83              		.cfi_endproc
  84              	.LFE127:
ARM GAS  /tmp/ccktbAOa.s 			page 13


  86              		.section	.text.chk_lock,"ax",%progbits
  87              		.align	1
  88              		.syntax unified
  89              		.thumb
  90              		.thumb_func
  91              		.fpu fpv4-sp-d16
  93              	chk_lock:
  94              	.LFB130:
 602:Middlewares/Third_Party/FatFs/src/ff.c **** }
 603:Middlewares/Third_Party/FatFs/src/ff.c **** 
 604:Middlewares/Third_Party/FatFs/src/ff.c **** /* Compare memory to memory */
 605:Middlewares/Third_Party/FatFs/src/ff.c **** static
 606:Middlewares/Third_Party/FatFs/src/ff.c **** int mem_cmp (const void* dst, const void* src, UINT cnt) {
 607:Middlewares/Third_Party/FatFs/src/ff.c **** 	const BYTE *d = (const BYTE *)dst, *s = (const BYTE *)src;
 608:Middlewares/Third_Party/FatFs/src/ff.c **** 	int r = 0;
 609:Middlewares/Third_Party/FatFs/src/ff.c **** 
 610:Middlewares/Third_Party/FatFs/src/ff.c **** 	while (cnt-- && (r = *d++ - *s++) == 0) ;
 611:Middlewares/Third_Party/FatFs/src/ff.c **** 	return r;
 612:Middlewares/Third_Party/FatFs/src/ff.c **** }
 613:Middlewares/Third_Party/FatFs/src/ff.c **** 
 614:Middlewares/Third_Party/FatFs/src/ff.c **** /* Check if chr is contained in the string */
 615:Middlewares/Third_Party/FatFs/src/ff.c **** static
 616:Middlewares/Third_Party/FatFs/src/ff.c **** int chk_chr (const char* str, int chr) {
 617:Middlewares/Third_Party/FatFs/src/ff.c **** 	while (*str && *str != chr) str++;
 618:Middlewares/Third_Party/FatFs/src/ff.c **** 	return *str;
 619:Middlewares/Third_Party/FatFs/src/ff.c **** }
 620:Middlewares/Third_Party/FatFs/src/ff.c **** 
 621:Middlewares/Third_Party/FatFs/src/ff.c **** 
 622:Middlewares/Third_Party/FatFs/src/ff.c **** 
 623:Middlewares/Third_Party/FatFs/src/ff.c **** 
 624:Middlewares/Third_Party/FatFs/src/ff.c **** /*-----------------------------------------------------------------------*/
 625:Middlewares/Third_Party/FatFs/src/ff.c **** /* Request/Release grant to access the volume                            */
 626:Middlewares/Third_Party/FatFs/src/ff.c **** /*-----------------------------------------------------------------------*/
 627:Middlewares/Third_Party/FatFs/src/ff.c **** #if _FS_REENTRANT
 628:Middlewares/Third_Party/FatFs/src/ff.c **** static
 629:Middlewares/Third_Party/FatFs/src/ff.c **** int lock_fs (
 630:Middlewares/Third_Party/FatFs/src/ff.c **** 	FATFS* fs		/* File system object */
 631:Middlewares/Third_Party/FatFs/src/ff.c **** )
 632:Middlewares/Third_Party/FatFs/src/ff.c **** {
 633:Middlewares/Third_Party/FatFs/src/ff.c **** 	return ff_req_grant(fs->sobj);
 634:Middlewares/Third_Party/FatFs/src/ff.c **** }
 635:Middlewares/Third_Party/FatFs/src/ff.c **** 
 636:Middlewares/Third_Party/FatFs/src/ff.c **** 
 637:Middlewares/Third_Party/FatFs/src/ff.c **** static
 638:Middlewares/Third_Party/FatFs/src/ff.c **** void unlock_fs (
 639:Middlewares/Third_Party/FatFs/src/ff.c **** 	FATFS* fs,		/* File system object */
 640:Middlewares/Third_Party/FatFs/src/ff.c **** 	FRESULT res		/* Result code to be returned */
 641:Middlewares/Third_Party/FatFs/src/ff.c **** )
 642:Middlewares/Third_Party/FatFs/src/ff.c **** {
 643:Middlewares/Third_Party/FatFs/src/ff.c **** 	if (fs &&
 644:Middlewares/Third_Party/FatFs/src/ff.c **** 		res != FR_NOT_ENABLED &&
 645:Middlewares/Third_Party/FatFs/src/ff.c **** 		res != FR_INVALID_DRIVE &&
 646:Middlewares/Third_Party/FatFs/src/ff.c **** 		res != FR_INVALID_OBJECT &&
 647:Middlewares/Third_Party/FatFs/src/ff.c **** 		res != FR_TIMEOUT) {
 648:Middlewares/Third_Party/FatFs/src/ff.c **** 		ff_rel_grant(fs->sobj);
 649:Middlewares/Third_Party/FatFs/src/ff.c **** 	}
 650:Middlewares/Third_Party/FatFs/src/ff.c **** }
ARM GAS  /tmp/ccktbAOa.s 			page 14


 651:Middlewares/Third_Party/FatFs/src/ff.c **** #endif
 652:Middlewares/Third_Party/FatFs/src/ff.c **** 
 653:Middlewares/Third_Party/FatFs/src/ff.c **** 
 654:Middlewares/Third_Party/FatFs/src/ff.c **** 
 655:Middlewares/Third_Party/FatFs/src/ff.c **** 
 656:Middlewares/Third_Party/FatFs/src/ff.c **** /*-----------------------------------------------------------------------*/
 657:Middlewares/Third_Party/FatFs/src/ff.c **** /* File lock control functions                                           */
 658:Middlewares/Third_Party/FatFs/src/ff.c **** /*-----------------------------------------------------------------------*/
 659:Middlewares/Third_Party/FatFs/src/ff.c **** #if _FS_LOCK
 660:Middlewares/Third_Party/FatFs/src/ff.c **** 
 661:Middlewares/Third_Party/FatFs/src/ff.c **** static
 662:Middlewares/Third_Party/FatFs/src/ff.c **** FRESULT chk_lock (	/* Check if the file can be accessed */
 663:Middlewares/Third_Party/FatFs/src/ff.c **** 	DIR* dp,		/* Directory object pointing the file to be checked */
 664:Middlewares/Third_Party/FatFs/src/ff.c **** 	int acc			/* Desired access type (0:Read, 1:Write, 2:Delete/Rename) */
 665:Middlewares/Third_Party/FatFs/src/ff.c **** )
 666:Middlewares/Third_Party/FatFs/src/ff.c **** {
  95              		.loc 1 666 0
  96              		.cfi_startproc
  97              		@ args = 0, pretend = 0, frame = 0
  98              		@ frame_needed = 0, uses_anonymous_args = 0
  99              	.LVL10:
 100 0000 F0B5     		push	{r4, r5, r6, r7, lr}
 101              	.LCFI0:
 102              		.cfi_def_cfa_offset 20
 103              		.cfi_offset 4, -20
 104              		.cfi_offset 5, -16
 105              		.cfi_offset 6, -12
 106              		.cfi_offset 7, -8
 107              		.cfi_offset 14, -4
 108              	.LVL11:
 109 0002 1A4B     		ldr	r3, .L25
 667:Middlewares/Third_Party/FatFs/src/ff.c **** 	UINT i, be;
 668:Middlewares/Third_Party/FatFs/src/ff.c **** 
 669:Middlewares/Third_Party/FatFs/src/ff.c **** 	/* Search file semaphore table */
 670:Middlewares/Third_Party/FatFs/src/ff.c **** 	for (i = be = 0; i < _FS_LOCK; i++) {
 110              		.loc 1 670 0
 111 0004 0026     		movs	r6, #0
 112 0006 3246     		mov	r2, r6
 671:Middlewares/Third_Party/FatFs/src/ff.c **** 		if (Files[i].fs) {	/* Existing entry */
 672:Middlewares/Third_Party/FatFs/src/ff.c **** 			if (Files[i].fs == dp->fs &&	 	/* Check if the object matched with an open object */
 673:Middlewares/Third_Party/FatFs/src/ff.c **** 				Files[i].clu == dp->sclust &&
 674:Middlewares/Third_Party/FatFs/src/ff.c **** 				Files[i].idx == dp->index) break;
 675:Middlewares/Third_Party/FatFs/src/ff.c **** 		} else {			/* Blank entry */
 676:Middlewares/Third_Party/FatFs/src/ff.c **** 			be = 1;
 113              		.loc 1 676 0
 114 0008 4FF0010E 		mov	lr, #1
 115              	.LVL12:
 116              	.L12:
 671:Middlewares/Third_Party/FatFs/src/ff.c **** 		if (Files[i].fs) {	/* Existing entry */
 117              		.loc 1 671 0
 118 000c 1C68     		ldr	r4, [r3]
 119 000e E4B1     		cbz	r4, .L16
 672:Middlewares/Third_Party/FatFs/src/ff.c **** 				Files[i].clu == dp->sclust &&
 120              		.loc 1 672 0
 121 0010 D0F80052 		ldr	r5, [r0, #512]
 122 0014 AC42     		cmp	r4, r5
 123 0016 09D0     		beq	.L23
ARM GAS  /tmp/ccktbAOa.s 			page 15


 124              	.L10:
 670:Middlewares/Third_Party/FatFs/src/ff.c **** 		if (Files[i].fs) {	/* Existing entry */
 125              		.loc 1 670 0 discriminator 2
 126 0018 0132     		adds	r2, r2, #1
 127              	.LVL13:
 128 001a 0C33     		adds	r3, r3, #12
 129 001c 022A     		cmp	r2, #2
 130 001e F5D1     		bne	.L12
 131              	.L13:
 677:Middlewares/Third_Party/FatFs/src/ff.c **** 		}
 678:Middlewares/Third_Party/FatFs/src/ff.c **** 	}
 679:Middlewares/Third_Party/FatFs/src/ff.c **** 	if (i == _FS_LOCK)	/* The object is not opened */
 680:Middlewares/Third_Party/FatFs/src/ff.c **** 		return (be || acc == 2) ? FR_OK : FR_TOO_MANY_OPEN_FILES;	/* Is there a blank entry for new objec
 132              		.loc 1 680 0
 133 0020 0EBB     		cbnz	r6, .L17
 134              		.loc 1 680 0 is_stmt 0 discriminator 2
 135 0022 0229     		cmp	r1, #2
 136 0024 0CBF     		ite	eq
 137 0026 0020     		moveq	r0, #0
 138              	.LVL14:
 139 0028 1220     		movne	r0, #18
 140 002a F0BD     		pop	{r4, r5, r6, r7, pc}
 141              	.LVL15:
 142              	.L23:
 672:Middlewares/Third_Party/FatFs/src/ff.c **** 				Files[i].clu == dp->sclust &&
 143              		.loc 1 672 0 is_stmt 1 discriminator 1
 144 002c 5D68     		ldr	r5, [r3, #4]
 145 002e D0F80842 		ldr	r4, [r0, #520]
 146 0032 A542     		cmp	r5, r4
 147 0034 F0D1     		bne	.L10
 673:Middlewares/Third_Party/FatFs/src/ff.c **** 				Files[i].idx == dp->index) break;
 148              		.loc 1 673 0
 149 0036 1D89     		ldrh	r5, [r3, #8]
 150 0038 B0F80642 		ldrh	r4, [r0, #518]
 151 003c A542     		cmp	r5, r4
 152 003e EBD1     		bne	.L10
 679:Middlewares/Third_Party/FatFs/src/ff.c **** 		return (be || acc == 2) ? FR_OK : FR_TOO_MANY_OPEN_FILES;	/* Is there a blank entry for new objec
 153              		.loc 1 679 0
 154 0040 022A     		cmp	r2, #2
 155 0042 EDD0     		beq	.L13
 681:Middlewares/Third_Party/FatFs/src/ff.c **** 
 682:Middlewares/Third_Party/FatFs/src/ff.c **** 	/* The object has been opened. Reject any open against writing file and all write mode open */
 683:Middlewares/Third_Party/FatFs/src/ff.c **** 	return (acc || Files[i].ctr == 0x100) ? FR_LOCKED : FR_OK;
 156              		.loc 1 683 0
 157 0044 19B1     		cbz	r1, .L24
 158 0046 1020     		movs	r0, #16
 159              	.LVL16:
 684:Middlewares/Third_Party/FatFs/src/ff.c **** }
 160              		.loc 1 684 0
 161 0048 F0BD     		pop	{r4, r5, r6, r7, pc}
 162              	.LVL17:
 163              	.L16:
 676:Middlewares/Third_Party/FatFs/src/ff.c **** 		}
 164              		.loc 1 676 0
 165 004a 7646     		mov	r6, lr
 166 004c E4E7     		b	.L10
 167              	.L24:
ARM GAS  /tmp/ccktbAOa.s 			page 16


 683:Middlewares/Third_Party/FatFs/src/ff.c **** }
 168              		.loc 1 683 0 discriminator 2
 169 004e 02EB4202 		add	r2, r2, r2, lsl #1
 170              	.LVL18:
 171 0052 064B     		ldr	r3, .L25
 172 0054 03EB8202 		add	r2, r3, r2, lsl #2
 173 0058 5389     		ldrh	r3, [r2, #10]
 174 005a B3F5807F 		cmp	r3, #256
 175 005e 0CBF     		ite	eq
 176 0060 1020     		moveq	r0, #16
 177              	.LVL19:
 178 0062 0020     		movne	r0, #0
 179 0064 F0BD     		pop	{r4, r5, r6, r7, pc}
 180              	.LVL20:
 181              	.L17:
 680:Middlewares/Third_Party/FatFs/src/ff.c **** 
 182              		.loc 1 680 0
 183 0066 0020     		movs	r0, #0
 184              	.LVL21:
 185 0068 F0BD     		pop	{r4, r5, r6, r7, pc}
 186              	.L26:
 187 006a 00BF     		.align	2
 188              	.L25:
 189 006c 00000000 		.word	.LANCHOR0
 190              		.cfi_endproc
 191              	.LFE130:
 193              		.section	.text.inc_lock,"ax",%progbits
 194              		.align	1
 195              		.syntax unified
 196              		.thumb
 197              		.thumb_func
 198              		.fpu fpv4-sp-d16
 200              	inc_lock:
 201              	.LFB132:
 685:Middlewares/Third_Party/FatFs/src/ff.c **** 
 686:Middlewares/Third_Party/FatFs/src/ff.c **** 
 687:Middlewares/Third_Party/FatFs/src/ff.c **** static
 688:Middlewares/Third_Party/FatFs/src/ff.c **** int enq_lock (void)	/* Check if an entry is available for a new object */
 689:Middlewares/Third_Party/FatFs/src/ff.c **** {
 690:Middlewares/Third_Party/FatFs/src/ff.c **** 	UINT i;
 691:Middlewares/Third_Party/FatFs/src/ff.c **** 
 692:Middlewares/Third_Party/FatFs/src/ff.c **** 	for (i = 0; i < _FS_LOCK && Files[i].fs; i++) ;
 693:Middlewares/Third_Party/FatFs/src/ff.c **** 	return (i == _FS_LOCK) ? 0 : 1;
 694:Middlewares/Third_Party/FatFs/src/ff.c **** }
 695:Middlewares/Third_Party/FatFs/src/ff.c **** 
 696:Middlewares/Third_Party/FatFs/src/ff.c **** 
 697:Middlewares/Third_Party/FatFs/src/ff.c **** static
 698:Middlewares/Third_Party/FatFs/src/ff.c **** UINT inc_lock (	/* Increment object open counter and returns its index (0:Internal error) */
 699:Middlewares/Third_Party/FatFs/src/ff.c **** 	DIR* dp,	/* Directory object pointing the file to register or increment */
 700:Middlewares/Third_Party/FatFs/src/ff.c **** 	int acc		/* Desired access (0:Read, 1:Write, 2:Delete/Rename) */
 701:Middlewares/Third_Party/FatFs/src/ff.c **** )
 702:Middlewares/Third_Party/FatFs/src/ff.c **** {
 202              		.loc 1 702 0
 203              		.cfi_startproc
 204              		@ args = 0, pretend = 0, frame = 0
 205              		@ frame_needed = 0, uses_anonymous_args = 0
 206              		@ link register save eliminated.
ARM GAS  /tmp/ccktbAOa.s 			page 17


 207              	.LVL22:
 208 0000 F0B4     		push	{r4, r5, r6, r7}
 209              	.LCFI1:
 210              		.cfi_def_cfa_offset 16
 211              		.cfi_offset 4, -16
 212              		.cfi_offset 5, -12
 213              		.cfi_offset 6, -8
 214              		.cfi_offset 7, -4
 215              	.LVL23:
 703:Middlewares/Third_Party/FatFs/src/ff.c **** 	UINT i;
 704:Middlewares/Third_Party/FatFs/src/ff.c **** 
 705:Middlewares/Third_Party/FatFs/src/ff.c **** 
 706:Middlewares/Third_Party/FatFs/src/ff.c **** 	for (i = 0; i < _FS_LOCK; i++) {	/* Find the object */
 707:Middlewares/Third_Party/FatFs/src/ff.c **** 		if (Files[i].fs == dp->fs &&
 216              		.loc 1 707 0
 217 0002 D0F80052 		ldr	r5, [r0, #512]
 218 0006 284A     		ldr	r2, .L46
 706:Middlewares/Third_Party/FatFs/src/ff.c **** 		if (Files[i].fs == dp->fs &&
 219              		.loc 1 706 0
 220 0008 0023     		movs	r3, #0
 221              	.LVL24:
 222              	.L30:
 223              		.loc 1 707 0
 224 000a 1468     		ldr	r4, [r2]
 225 000c AC42     		cmp	r4, r5
 226 000e 0CD0     		beq	.L43
 227              	.L28:
 706:Middlewares/Third_Party/FatFs/src/ff.c **** 		if (Files[i].fs == dp->fs &&
 228              		.loc 1 706 0 discriminator 2
 229 0010 0133     		adds	r3, r3, #1
 230              	.LVL25:
 231 0012 0C32     		adds	r2, r2, #12
 232 0014 022B     		cmp	r3, #2
 233 0016 F8D1     		bne	.L30
 234              	.L31:
 235              	.LVL26:
 708:Middlewares/Third_Party/FatFs/src/ff.c **** 			Files[i].clu == dp->sclust &&
 709:Middlewares/Third_Party/FatFs/src/ff.c **** 			Files[i].idx == dp->index) break;
 710:Middlewares/Third_Party/FatFs/src/ff.c **** 	}
 711:Middlewares/Third_Party/FatFs/src/ff.c **** 
 712:Middlewares/Third_Party/FatFs/src/ff.c **** 	if (i == _FS_LOCK) {				/* Not opened. Register it as new. */
 713:Middlewares/Third_Party/FatFs/src/ff.c **** 		for (i = 0; i < _FS_LOCK && Files[i].fs; i++) ;
 236              		.loc 1 713 0 discriminator 1
 237 0018 234B     		ldr	r3, .L46
 238 001a 1B68     		ldr	r3, [r3]
 239 001c 002B     		cmp	r3, #0
 240 001e 3BD0     		beq	.L37
 241              	.LVL27:
 242              		.loc 1 713 0 is_stmt 0 discriminator 3
 243 0020 214B     		ldr	r3, .L46
 244 0022 DB68     		ldr	r3, [r3, #12]
 245 0024 BBB1     		cbz	r3, .L44
 714:Middlewares/Third_Party/FatFs/src/ff.c **** 		if (i == _FS_LOCK) return 0;	/* No free entry to register (int err) */
 246              		.loc 1 714 0 is_stmt 1
 247 0026 0020     		movs	r0, #0
 248              	.LVL28:
 249 0028 34E0     		b	.L27
ARM GAS  /tmp/ccktbAOa.s 			page 18


 250              	.LVL29:
 251              	.L43:
 707:Middlewares/Third_Party/FatFs/src/ff.c **** 			Files[i].clu == dp->sclust &&
 252              		.loc 1 707 0 discriminator 1
 253 002a 5768     		ldr	r7, [r2, #4]
 254 002c D0F80842 		ldr	r4, [r0, #520]
 255 0030 A742     		cmp	r7, r4
 256 0032 EDD1     		bne	.L28
 708:Middlewares/Third_Party/FatFs/src/ff.c **** 			Files[i].clu == dp->sclust &&
 257              		.loc 1 708 0
 258 0034 1689     		ldrh	r6, [r2, #8]
 259 0036 B0F80642 		ldrh	r4, [r0, #518]
 260 003a A642     		cmp	r6, r4
 261 003c E8D1     		bne	.L28
 712:Middlewares/Third_Party/FatFs/src/ff.c **** 		for (i = 0; i < _FS_LOCK && Files[i].fs; i++) ;
 262              		.loc 1 712 0
 263 003e 022B     		cmp	r3, #2
 264 0040 EAD0     		beq	.L31
 715:Middlewares/Third_Party/FatFs/src/ff.c **** 		Files[i].fs = dp->fs;
 716:Middlewares/Third_Party/FatFs/src/ff.c **** 		Files[i].clu = dp->sclust;
 717:Middlewares/Third_Party/FatFs/src/ff.c **** 		Files[i].idx = dp->index;
 718:Middlewares/Third_Party/FatFs/src/ff.c **** 		Files[i].ctr = 0;
 719:Middlewares/Third_Party/FatFs/src/ff.c **** 	}
 720:Middlewares/Third_Party/FatFs/src/ff.c **** 
 721:Middlewares/Third_Party/FatFs/src/ff.c **** 	if (acc && Files[i].ctr) return 0;	/* Access violation (int err) */
 265              		.loc 1 721 0
 266 0042 C1B1     		cbz	r1, .L36
 267              		.loc 1 721 0 is_stmt 0 discriminator 1
 268 0044 03EB4302 		add	r2, r3, r3, lsl #1
 269 0048 1749     		ldr	r1, .L46
 270              	.LVL30:
 271 004a 01EB8202 		add	r2, r1, r2, lsl #2
 272 004e 5289     		ldrh	r2, [r2, #10]
 273 0050 22B3     		cbz	r2, .L45
 274              		.loc 1 721 0
 275 0052 0020     		movs	r0, #0
 276              	.LVL31:
 277 0054 1EE0     		b	.L27
 278              	.LVL32:
 279              	.L44:
 280 0056 0123     		movs	r3, #1
 281              	.LVL33:
 282              	.L33:
 715:Middlewares/Third_Party/FatFs/src/ff.c **** 		Files[i].fs = dp->fs;
 283              		.loc 1 715 0 is_stmt 1
 284 0058 134E     		ldr	r6, .L46
 285 005a 03EB4302 		add	r2, r3, r3, lsl #1
 286 005e 9200     		lsls	r2, r2, #2
 287 0060 B418     		adds	r4, r6, r2
 288 0062 B550     		str	r5, [r6, r2]
 716:Middlewares/Third_Party/FatFs/src/ff.c **** 		Files[i].idx = dp->index;
 289              		.loc 1 716 0
 290 0064 D0F80822 		ldr	r2, [r0, #520]
 291 0068 6260     		str	r2, [r4, #4]
 717:Middlewares/Third_Party/FatFs/src/ff.c **** 		Files[i].ctr = 0;
 292              		.loc 1 717 0
 293 006a B0F80622 		ldrh	r2, [r0, #518]
ARM GAS  /tmp/ccktbAOa.s 			page 19


 294 006e 2281     		strh	r2, [r4, #8]	@ movhi
 718:Middlewares/Third_Party/FatFs/src/ff.c **** 	}
 295              		.loc 1 718 0
 296 0070 0022     		movs	r2, #0
 297 0072 6281     		strh	r2, [r4, #10]	@ movhi
 298              	.LVL34:
 299              		.loc 1 721 0
 300 0074 A9B9     		cbnz	r1, .L39
 301              	.L36:
 722:Middlewares/Third_Party/FatFs/src/ff.c **** 
 723:Middlewares/Third_Party/FatFs/src/ff.c **** 	Files[i].ctr = acc ? 0x100 : Files[i].ctr + 1;	/* Set semaphore value */
 302              		.loc 1 723 0 discriminator 1
 303 0076 03EB4302 		add	r2, r3, r3, lsl #1
 304 007a 0B49     		ldr	r1, .L46
 305              	.LVL35:
 306 007c 01EB8202 		add	r2, r1, r2, lsl #2
 307 0080 5189     		ldrh	r1, [r2, #10]
 308 0082 0131     		adds	r1, r1, #1
 309 0084 89B2     		uxth	r1, r1
 310              	.L35:
 311              		.loc 1 723 0 is_stmt 0 discriminator 4
 312 0086 03EB4300 		add	r0, r3, r3, lsl #1
 313              	.LVL36:
 314 008a 074A     		ldr	r2, .L46
 315 008c 02EB8002 		add	r2, r2, r0, lsl #2
 316 0090 5181     		strh	r1, [r2, #10]	@ movhi
 724:Middlewares/Third_Party/FatFs/src/ff.c **** 
 725:Middlewares/Third_Party/FatFs/src/ff.c **** 	return i + 1;
 317              		.loc 1 725 0 is_stmt 1 discriminator 4
 318 0092 581C     		adds	r0, r3, #1
 319              	.LVL37:
 320              	.L27:
 726:Middlewares/Third_Party/FatFs/src/ff.c **** }
 321              		.loc 1 726 0
 322 0094 F0BC     		pop	{r4, r5, r6, r7}
 323              	.LCFI2:
 324              		.cfi_remember_state
 325              		.cfi_restore 7
 326              		.cfi_restore 6
 327              		.cfi_restore 5
 328              		.cfi_restore 4
 329              		.cfi_def_cfa_offset 0
 330 0096 7047     		bx	lr
 331              	.LVL38:
 332              	.L37:
 333              	.LCFI3:
 334              		.cfi_restore_state
 713:Middlewares/Third_Party/FatFs/src/ff.c **** 		if (i == _FS_LOCK) return 0;	/* No free entry to register (int err) */
 335              		.loc 1 713 0
 336 0098 0023     		movs	r3, #0
 337 009a DDE7     		b	.L33
 338              	.LVL39:
 339              	.L45:
 723:Middlewares/Third_Party/FatFs/src/ff.c **** 
 340              		.loc 1 723 0
 341 009c 4FF48071 		mov	r1, #256
 342 00a0 F1E7     		b	.L35
ARM GAS  /tmp/ccktbAOa.s 			page 20


 343              	.LVL40:
 344              	.L39:
 345 00a2 4FF48071 		mov	r1, #256
 346              	.LVL41:
 347 00a6 EEE7     		b	.L35
 348              	.L47:
 349              		.align	2
 350              	.L46:
 351 00a8 00000000 		.word	.LANCHOR0
 352              		.cfi_endproc
 353              	.LFE132:
 355              		.section	.text.dec_lock,"ax",%progbits
 356              		.align	1
 357              		.syntax unified
 358              		.thumb
 359              		.thumb_func
 360              		.fpu fpv4-sp-d16
 362              	dec_lock:
 363              	.LFB133:
 727:Middlewares/Third_Party/FatFs/src/ff.c **** 
 728:Middlewares/Third_Party/FatFs/src/ff.c **** 
 729:Middlewares/Third_Party/FatFs/src/ff.c **** static
 730:Middlewares/Third_Party/FatFs/src/ff.c **** FRESULT dec_lock (	/* Decrement object open counter */
 731:Middlewares/Third_Party/FatFs/src/ff.c **** 	UINT i			/* Semaphore index (1..) */
 732:Middlewares/Third_Party/FatFs/src/ff.c **** )
 733:Middlewares/Third_Party/FatFs/src/ff.c **** {
 364              		.loc 1 733 0
 365              		.cfi_startproc
 366              		@ args = 0, pretend = 0, frame = 0
 367              		@ frame_needed = 0, uses_anonymous_args = 0
 368              		@ link register save eliminated.
 369              	.LVL42:
 734:Middlewares/Third_Party/FatFs/src/ff.c **** 	WORD n;
 735:Middlewares/Third_Party/FatFs/src/ff.c **** 	FRESULT res;
 736:Middlewares/Third_Party/FatFs/src/ff.c **** 
 737:Middlewares/Third_Party/FatFs/src/ff.c **** 
 738:Middlewares/Third_Party/FatFs/src/ff.c **** 	if (--i < _FS_LOCK) {	/* Shift index number origin from 0 */
 370              		.loc 1 738 0
 371 0000 0138     		subs	r0, r0, #1
 372              	.LVL43:
 373 0002 0128     		cmp	r0, #1
 374 0004 01D9     		bls	.L55
 739:Middlewares/Third_Party/FatFs/src/ff.c **** 		n = Files[i].ctr;
 740:Middlewares/Third_Party/FatFs/src/ff.c **** 		if (n == 0x100) n = 0;		/* If write mode open, delete the entry */
 741:Middlewares/Third_Party/FatFs/src/ff.c **** 		if (n) n--;					/* Decrement read mode open count */
 742:Middlewares/Third_Party/FatFs/src/ff.c **** 		Files[i].ctr = n;
 743:Middlewares/Third_Party/FatFs/src/ff.c **** 		if (!n) Files[i].fs = 0;	/* Delete the entry if open count gets zero */
 744:Middlewares/Third_Party/FatFs/src/ff.c **** 		res = FR_OK;
 745:Middlewares/Third_Party/FatFs/src/ff.c **** 	} else {
 746:Middlewares/Third_Party/FatFs/src/ff.c **** 		res = FR_INT_ERR;			/* Invalid index nunber */
 375              		.loc 1 746 0
 376 0006 0220     		movs	r0, #2
 377              	.LVL44:
 378 0008 7047     		bx	lr
 379              	.LVL45:
 380              	.L55:
 739:Middlewares/Third_Party/FatFs/src/ff.c **** 		n = Files[i].ctr;
ARM GAS  /tmp/ccktbAOa.s 			page 21


 381              		.loc 1 739 0
 382 000a 00EB4003 		add	r3, r0, r0, lsl #1
 383 000e 104A     		ldr	r2, .L56
 384 0010 02EB8303 		add	r3, r2, r3, lsl #2
 385 0014 5B89     		ldrh	r3, [r3, #10]
 386              	.LVL46:
 740:Middlewares/Third_Party/FatFs/src/ff.c **** 		if (n) n--;					/* Decrement read mode open count */
 387              		.loc 1 740 0
 388 0016 B3F5807F 		cmp	r3, #256
 389 001a 0BD0     		beq	.L50
 741:Middlewares/Third_Party/FatFs/src/ff.c **** 		Files[i].ctr = n;
 390              		.loc 1 741 0
 391 001c 8BB1     		cbz	r3, .L51
 741:Middlewares/Third_Party/FatFs/src/ff.c **** 		Files[i].ctr = n;
 392              		.loc 1 741 0 is_stmt 0 discriminator 1
 393 001e 013B     		subs	r3, r3, #1
 394              	.LVL47:
 395 0020 9BB2     		uxth	r3, r3
 396              	.LVL48:
 742:Middlewares/Third_Party/FatFs/src/ff.c **** 		if (!n) Files[i].fs = 0;	/* Delete the entry if open count gets zero */
 397              		.loc 1 742 0 is_stmt 1 discriminator 1
 398 0022 00EB4002 		add	r2, r0, r0, lsl #1
 399 0026 0A49     		ldr	r1, .L56
 400 0028 01EB8202 		add	r2, r1, r2, lsl #2
 401 002c 5381     		strh	r3, [r2, #10]	@ movhi
 743:Middlewares/Third_Party/FatFs/src/ff.c **** 		res = FR_OK;
 402              		.loc 1 743 0 discriminator 1
 403 002e 43B1     		cbz	r3, .L51
 744:Middlewares/Third_Party/FatFs/src/ff.c **** 	} else {
 404              		.loc 1 744 0
 405 0030 0020     		movs	r0, #0
 406              	.LVL49:
 747:Middlewares/Third_Party/FatFs/src/ff.c **** 	}
 748:Middlewares/Third_Party/FatFs/src/ff.c **** 	return res;
 407              		.loc 1 748 0
 408 0032 7047     		bx	lr
 409              	.LVL50:
 410              	.L50:
 742:Middlewares/Third_Party/FatFs/src/ff.c **** 		if (!n) Files[i].fs = 0;	/* Delete the entry if open count gets zero */
 411              		.loc 1 742 0
 412 0034 00EB4003 		add	r3, r0, r0, lsl #1
 413 0038 054A     		ldr	r2, .L56
 414 003a 02EB8303 		add	r3, r2, r3, lsl #2
 415 003e 0022     		movs	r2, #0
 416 0040 5A81     		strh	r2, [r3, #10]	@ movhi
 417              	.LVL51:
 418              	.L51:
 743:Middlewares/Third_Party/FatFs/src/ff.c **** 		res = FR_OK;
 419              		.loc 1 743 0 discriminator 1
 420 0042 00EB4000 		add	r0, r0, r0, lsl #1
 421              	.LVL52:
 422 0046 8300     		lsls	r3, r0, #2
 423 0048 0020     		movs	r0, #0
 424 004a 014A     		ldr	r2, .L56
 425 004c D050     		str	r0, [r2, r3]
 426 004e 7047     		bx	lr
 427              	.L57:
ARM GAS  /tmp/ccktbAOa.s 			page 22


 428              		.align	2
 429              	.L56:
 430 0050 00000000 		.word	.LANCHOR0
 431              		.cfi_endproc
 432              	.LFE133:
 434              		.section	.text.clmt_clust,"ax",%progbits
 435              		.align	1
 436              		.syntax unified
 437              		.thumb
 438              		.thumb_func
 439              		.fpu fpv4-sp-d16
 441              	clmt_clust:
 442              	.LFB143:
 749:Middlewares/Third_Party/FatFs/src/ff.c **** }
 750:Middlewares/Third_Party/FatFs/src/ff.c **** 
 751:Middlewares/Third_Party/FatFs/src/ff.c **** 
 752:Middlewares/Third_Party/FatFs/src/ff.c **** static
 753:Middlewares/Third_Party/FatFs/src/ff.c **** void clear_lock (	/* Clear lock entries of the volume */
 754:Middlewares/Third_Party/FatFs/src/ff.c **** 	FATFS *fs
 755:Middlewares/Third_Party/FatFs/src/ff.c **** )
 756:Middlewares/Third_Party/FatFs/src/ff.c **** {
 757:Middlewares/Third_Party/FatFs/src/ff.c **** 	UINT i;
 758:Middlewares/Third_Party/FatFs/src/ff.c **** 
 759:Middlewares/Third_Party/FatFs/src/ff.c **** 	for (i = 0; i < _FS_LOCK; i++) {
 760:Middlewares/Third_Party/FatFs/src/ff.c **** 		if (Files[i].fs == fs) Files[i].fs = 0;
 761:Middlewares/Third_Party/FatFs/src/ff.c **** 	}
 762:Middlewares/Third_Party/FatFs/src/ff.c **** }
 763:Middlewares/Third_Party/FatFs/src/ff.c **** #endif
 764:Middlewares/Third_Party/FatFs/src/ff.c **** 
 765:Middlewares/Third_Party/FatFs/src/ff.c **** 
 766:Middlewares/Third_Party/FatFs/src/ff.c **** 
 767:Middlewares/Third_Party/FatFs/src/ff.c **** 
 768:Middlewares/Third_Party/FatFs/src/ff.c **** /*-----------------------------------------------------------------------*/
 769:Middlewares/Third_Party/FatFs/src/ff.c **** /* Move/Flush disk access window in the file system object               */
 770:Middlewares/Third_Party/FatFs/src/ff.c **** /*-----------------------------------------------------------------------*/
 771:Middlewares/Third_Party/FatFs/src/ff.c **** #if !_FS_READONLY
 772:Middlewares/Third_Party/FatFs/src/ff.c **** static
 773:Middlewares/Third_Party/FatFs/src/ff.c **** FRESULT sync_window (
 774:Middlewares/Third_Party/FatFs/src/ff.c **** 	FATFS* fs		/* File system object */
 775:Middlewares/Third_Party/FatFs/src/ff.c **** )
 776:Middlewares/Third_Party/FatFs/src/ff.c **** {
 777:Middlewares/Third_Party/FatFs/src/ff.c **** 	DWORD wsect;
 778:Middlewares/Third_Party/FatFs/src/ff.c **** 	UINT nf;
 779:Middlewares/Third_Party/FatFs/src/ff.c **** 	FRESULT res = FR_OK;
 780:Middlewares/Third_Party/FatFs/src/ff.c **** 
 781:Middlewares/Third_Party/FatFs/src/ff.c **** 
 782:Middlewares/Third_Party/FatFs/src/ff.c **** 	if (fs->wflag) {	/* Write back the sector if it is dirty */
 783:Middlewares/Third_Party/FatFs/src/ff.c **** 		wsect = fs->winsect;	/* Current sector number */
 784:Middlewares/Third_Party/FatFs/src/ff.c **** 		if (disk_write(fs->drv, fs->win.d8, wsect, 1) != RES_OK) {
 785:Middlewares/Third_Party/FatFs/src/ff.c **** 			res = FR_DISK_ERR;
 786:Middlewares/Third_Party/FatFs/src/ff.c **** 		} else {
 787:Middlewares/Third_Party/FatFs/src/ff.c **** 			fs->wflag = 0;
 788:Middlewares/Third_Party/FatFs/src/ff.c **** 			if (wsect - fs->fatbase < fs->fsize) {		/* Is it in the FAT area? */
 789:Middlewares/Third_Party/FatFs/src/ff.c **** 				for (nf = fs->n_fats; nf >= 2; nf--) {	/* Reflect the change to all FAT copies */
 790:Middlewares/Third_Party/FatFs/src/ff.c **** 					wsect += fs->fsize;
 791:Middlewares/Third_Party/FatFs/src/ff.c **** 					disk_write(fs->drv, fs->win.d8, wsect, 1);
 792:Middlewares/Third_Party/FatFs/src/ff.c **** 				}
ARM GAS  /tmp/ccktbAOa.s 			page 23


 793:Middlewares/Third_Party/FatFs/src/ff.c **** 			}
 794:Middlewares/Third_Party/FatFs/src/ff.c **** 		}
 795:Middlewares/Third_Party/FatFs/src/ff.c **** 	}
 796:Middlewares/Third_Party/FatFs/src/ff.c **** 	return res;
 797:Middlewares/Third_Party/FatFs/src/ff.c **** }
 798:Middlewares/Third_Party/FatFs/src/ff.c **** #endif
 799:Middlewares/Third_Party/FatFs/src/ff.c **** 
 800:Middlewares/Third_Party/FatFs/src/ff.c **** 
 801:Middlewares/Third_Party/FatFs/src/ff.c **** static
 802:Middlewares/Third_Party/FatFs/src/ff.c **** FRESULT move_window (
 803:Middlewares/Third_Party/FatFs/src/ff.c **** 	FATFS* fs,		/* File system object */
 804:Middlewares/Third_Party/FatFs/src/ff.c **** 	DWORD sector	/* Sector number to make appearance in the fs->win[].d8 */
 805:Middlewares/Third_Party/FatFs/src/ff.c **** )
 806:Middlewares/Third_Party/FatFs/src/ff.c **** {
 807:Middlewares/Third_Party/FatFs/src/ff.c **** 	FRESULT res = FR_OK;
 808:Middlewares/Third_Party/FatFs/src/ff.c **** 
 809:Middlewares/Third_Party/FatFs/src/ff.c **** 
 810:Middlewares/Third_Party/FatFs/src/ff.c **** 	if (sector != fs->winsect) {	/* Window offset changed? */
 811:Middlewares/Third_Party/FatFs/src/ff.c **** #if !_FS_READONLY
 812:Middlewares/Third_Party/FatFs/src/ff.c **** 		res = sync_window(fs);		/* Write-back changes */
 813:Middlewares/Third_Party/FatFs/src/ff.c **** #endif
 814:Middlewares/Third_Party/FatFs/src/ff.c **** 		if (res == FR_OK) {			/* Fill sector window with new data */
 815:Middlewares/Third_Party/FatFs/src/ff.c **** 			if (disk_read(fs->drv, fs->win.d8, sector, 1) != RES_OK) {
 816:Middlewares/Third_Party/FatFs/src/ff.c **** 				sector = 0xFFFFFFFF;	/* Invalidate window if data is not reliable */
 817:Middlewares/Third_Party/FatFs/src/ff.c **** 				res = FR_DISK_ERR;
 818:Middlewares/Third_Party/FatFs/src/ff.c **** 			}
 819:Middlewares/Third_Party/FatFs/src/ff.c **** 			fs->winsect = sector;
 820:Middlewares/Third_Party/FatFs/src/ff.c **** 		}
 821:Middlewares/Third_Party/FatFs/src/ff.c **** 	}
 822:Middlewares/Third_Party/FatFs/src/ff.c **** 	return res;
 823:Middlewares/Third_Party/FatFs/src/ff.c **** }
 824:Middlewares/Third_Party/FatFs/src/ff.c **** 
 825:Middlewares/Third_Party/FatFs/src/ff.c **** 
 826:Middlewares/Third_Party/FatFs/src/ff.c **** 
 827:Middlewares/Third_Party/FatFs/src/ff.c **** 
 828:Middlewares/Third_Party/FatFs/src/ff.c **** /*-----------------------------------------------------------------------*/
 829:Middlewares/Third_Party/FatFs/src/ff.c **** /* Synchronize file system and strage device                             */
 830:Middlewares/Third_Party/FatFs/src/ff.c **** /*-----------------------------------------------------------------------*/
 831:Middlewares/Third_Party/FatFs/src/ff.c **** #if !_FS_READONLY
 832:Middlewares/Third_Party/FatFs/src/ff.c **** static
 833:Middlewares/Third_Party/FatFs/src/ff.c **** FRESULT sync_fs (	/* FR_OK: successful, FR_DISK_ERR: failed */
 834:Middlewares/Third_Party/FatFs/src/ff.c **** 	FATFS* fs		/* File system object */
 835:Middlewares/Third_Party/FatFs/src/ff.c **** )
 836:Middlewares/Third_Party/FatFs/src/ff.c **** {
 837:Middlewares/Third_Party/FatFs/src/ff.c **** 	FRESULT res;
 838:Middlewares/Third_Party/FatFs/src/ff.c **** 
 839:Middlewares/Third_Party/FatFs/src/ff.c **** 
 840:Middlewares/Third_Party/FatFs/src/ff.c **** 	res = sync_window(fs);
 841:Middlewares/Third_Party/FatFs/src/ff.c **** 	if (res == FR_OK) {
 842:Middlewares/Third_Party/FatFs/src/ff.c **** 		/* Update FSINFO sector if needed */
 843:Middlewares/Third_Party/FatFs/src/ff.c **** 		if (fs->fs_type == FS_FAT32 && fs->fsi_flag == 1) {
 844:Middlewares/Third_Party/FatFs/src/ff.c **** 			/* Create FSINFO structure */
 845:Middlewares/Third_Party/FatFs/src/ff.c **** 			mem_set(fs->win.d8, 0, SS(fs));
 846:Middlewares/Third_Party/FatFs/src/ff.c **** 			ST_WORD(fs->win.d8 + BS_55AA, 0xAA55);
 847:Middlewares/Third_Party/FatFs/src/ff.c **** 			ST_DWORD(fs->win.d8 + FSI_LeadSig, 0x41615252);
 848:Middlewares/Third_Party/FatFs/src/ff.c **** 			ST_DWORD(fs->win.d8 + FSI_StrucSig, 0x61417272);
 849:Middlewares/Third_Party/FatFs/src/ff.c **** 			ST_DWORD(fs->win.d8 + FSI_Free_Count, fs->free_clust);
ARM GAS  /tmp/ccktbAOa.s 			page 24


 850:Middlewares/Third_Party/FatFs/src/ff.c **** 			ST_DWORD(fs->win.d8 + FSI_Nxt_Free, fs->last_clust);
 851:Middlewares/Third_Party/FatFs/src/ff.c **** 			/* Write it into the FSINFO sector */
 852:Middlewares/Third_Party/FatFs/src/ff.c **** 			fs->winsect = fs->volbase + 1;
 853:Middlewares/Third_Party/FatFs/src/ff.c **** 			disk_write(fs->drv, fs->win.d8, fs->winsect, 1);
 854:Middlewares/Third_Party/FatFs/src/ff.c **** 			fs->fsi_flag = 0;
 855:Middlewares/Third_Party/FatFs/src/ff.c **** 		}
 856:Middlewares/Third_Party/FatFs/src/ff.c **** 		/* Make sure that no pending write process in the physical drive */
 857:Middlewares/Third_Party/FatFs/src/ff.c **** 		if (disk_ioctl(fs->drv, CTRL_SYNC, 0) != RES_OK)
 858:Middlewares/Third_Party/FatFs/src/ff.c **** 			res = FR_DISK_ERR;
 859:Middlewares/Third_Party/FatFs/src/ff.c **** 	}
 860:Middlewares/Third_Party/FatFs/src/ff.c **** 
 861:Middlewares/Third_Party/FatFs/src/ff.c **** 	return res;
 862:Middlewares/Third_Party/FatFs/src/ff.c **** }
 863:Middlewares/Third_Party/FatFs/src/ff.c **** #endif
 864:Middlewares/Third_Party/FatFs/src/ff.c **** 
 865:Middlewares/Third_Party/FatFs/src/ff.c **** 
 866:Middlewares/Third_Party/FatFs/src/ff.c **** 
 867:Middlewares/Third_Party/FatFs/src/ff.c **** 
 868:Middlewares/Third_Party/FatFs/src/ff.c **** /*-----------------------------------------------------------------------*/
 869:Middlewares/Third_Party/FatFs/src/ff.c **** /* Get sector# from cluster#                                             */
 870:Middlewares/Third_Party/FatFs/src/ff.c **** /*-----------------------------------------------------------------------*/
 871:Middlewares/Third_Party/FatFs/src/ff.c **** /* Hidden API for hacks and disk tools */
 872:Middlewares/Third_Party/FatFs/src/ff.c **** 
 873:Middlewares/Third_Party/FatFs/src/ff.c **** DWORD clust2sect (	/* !=0: Sector number, 0: Failed - invalid cluster# */
 874:Middlewares/Third_Party/FatFs/src/ff.c **** 	FATFS* fs,		/* File system object */
 875:Middlewares/Third_Party/FatFs/src/ff.c **** 	DWORD clst		/* Cluster# to be converted */
 876:Middlewares/Third_Party/FatFs/src/ff.c **** )
 877:Middlewares/Third_Party/FatFs/src/ff.c **** {
 878:Middlewares/Third_Party/FatFs/src/ff.c **** 	clst -= 2;
 879:Middlewares/Third_Party/FatFs/src/ff.c **** 	if (clst >= fs->n_fatent - 2) return 0;		/* Invalid cluster# */
 880:Middlewares/Third_Party/FatFs/src/ff.c **** 	return clst * fs->csize + fs->database;
 881:Middlewares/Third_Party/FatFs/src/ff.c **** }
 882:Middlewares/Third_Party/FatFs/src/ff.c **** 
 883:Middlewares/Third_Party/FatFs/src/ff.c **** 
 884:Middlewares/Third_Party/FatFs/src/ff.c **** 
 885:Middlewares/Third_Party/FatFs/src/ff.c **** 
 886:Middlewares/Third_Party/FatFs/src/ff.c **** /*-----------------------------------------------------------------------*/
 887:Middlewares/Third_Party/FatFs/src/ff.c **** /* FAT access - Read value of a FAT entry                                */
 888:Middlewares/Third_Party/FatFs/src/ff.c **** /*-----------------------------------------------------------------------*/
 889:Middlewares/Third_Party/FatFs/src/ff.c **** /* Hidden API for hacks and disk tools */
 890:Middlewares/Third_Party/FatFs/src/ff.c **** 
 891:Middlewares/Third_Party/FatFs/src/ff.c **** DWORD get_fat (	/* 0xFFFFFFFF:Disk error, 1:Internal error, 2..0x0FFFFFFF:Cluster status */
 892:Middlewares/Third_Party/FatFs/src/ff.c **** 	FATFS* fs,	/* File system object */
 893:Middlewares/Third_Party/FatFs/src/ff.c **** 	DWORD clst	/* FAT index number (cluster number) to get the value */
 894:Middlewares/Third_Party/FatFs/src/ff.c **** )
 895:Middlewares/Third_Party/FatFs/src/ff.c **** {
 896:Middlewares/Third_Party/FatFs/src/ff.c **** 	UINT wc, bc;
 897:Middlewares/Third_Party/FatFs/src/ff.c **** 	BYTE *p;
 898:Middlewares/Third_Party/FatFs/src/ff.c **** 	DWORD val;
 899:Middlewares/Third_Party/FatFs/src/ff.c **** 
 900:Middlewares/Third_Party/FatFs/src/ff.c **** 
 901:Middlewares/Third_Party/FatFs/src/ff.c **** 	if (clst < 2 || clst >= fs->n_fatent) {	/* Check range */
 902:Middlewares/Third_Party/FatFs/src/ff.c **** 		val = 1;	/* Internal error */
 903:Middlewares/Third_Party/FatFs/src/ff.c **** 
 904:Middlewares/Third_Party/FatFs/src/ff.c **** 	} else {
 905:Middlewares/Third_Party/FatFs/src/ff.c **** 		val = 0xFFFFFFFF;	/* Default value falls on disk error */
 906:Middlewares/Third_Party/FatFs/src/ff.c **** 
ARM GAS  /tmp/ccktbAOa.s 			page 25


 907:Middlewares/Third_Party/FatFs/src/ff.c **** 		switch (fs->fs_type) {
 908:Middlewares/Third_Party/FatFs/src/ff.c **** 		case FS_FAT12 :
 909:Middlewares/Third_Party/FatFs/src/ff.c **** 			bc = (UINT)clst; bc += bc / 2;
 910:Middlewares/Third_Party/FatFs/src/ff.c **** 			if (move_window(fs, fs->fatbase + (bc / SS(fs))) != FR_OK) break;
 911:Middlewares/Third_Party/FatFs/src/ff.c **** 			wc = fs->win.d8[bc++ % SS(fs)];
 912:Middlewares/Third_Party/FatFs/src/ff.c **** 			if (move_window(fs, fs->fatbase + (bc / SS(fs))) != FR_OK) break;
 913:Middlewares/Third_Party/FatFs/src/ff.c **** 			wc |= fs->win.d8[bc % SS(fs)] << 8;
 914:Middlewares/Third_Party/FatFs/src/ff.c **** 			val = clst & 1 ? wc >> 4 : (wc & 0xFFF);
 915:Middlewares/Third_Party/FatFs/src/ff.c **** 			break;
 916:Middlewares/Third_Party/FatFs/src/ff.c **** 
 917:Middlewares/Third_Party/FatFs/src/ff.c **** 		case FS_FAT16 :
 918:Middlewares/Third_Party/FatFs/src/ff.c **** 			if (move_window(fs, fs->fatbase + (clst / (SS(fs) / 2))) != FR_OK) break;
 919:Middlewares/Third_Party/FatFs/src/ff.c **** 			p = &fs->win.d8[clst * 2 % SS(fs)];
 920:Middlewares/Third_Party/FatFs/src/ff.c **** 			val = LD_WORD(p);
 921:Middlewares/Third_Party/FatFs/src/ff.c **** 			break;
 922:Middlewares/Third_Party/FatFs/src/ff.c **** 
 923:Middlewares/Third_Party/FatFs/src/ff.c **** 		case FS_FAT32 :
 924:Middlewares/Third_Party/FatFs/src/ff.c **** 			if (move_window(fs, fs->fatbase + (clst / (SS(fs) / 4))) != FR_OK) break;
 925:Middlewares/Third_Party/FatFs/src/ff.c **** 			p = &fs->win.d8[clst * 4 % SS(fs)];
 926:Middlewares/Third_Party/FatFs/src/ff.c **** 			val = LD_DWORD(p) & 0x0FFFFFFF;
 927:Middlewares/Third_Party/FatFs/src/ff.c **** 			break;
 928:Middlewares/Third_Party/FatFs/src/ff.c **** 
 929:Middlewares/Third_Party/FatFs/src/ff.c **** 		default:
 930:Middlewares/Third_Party/FatFs/src/ff.c **** 			val = 1;	/* Internal error */
 931:Middlewares/Third_Party/FatFs/src/ff.c **** 		}
 932:Middlewares/Third_Party/FatFs/src/ff.c **** 	}
 933:Middlewares/Third_Party/FatFs/src/ff.c **** 
 934:Middlewares/Third_Party/FatFs/src/ff.c **** 	return val;
 935:Middlewares/Third_Party/FatFs/src/ff.c **** }
 936:Middlewares/Third_Party/FatFs/src/ff.c **** 
 937:Middlewares/Third_Party/FatFs/src/ff.c **** 
 938:Middlewares/Third_Party/FatFs/src/ff.c **** 
 939:Middlewares/Third_Party/FatFs/src/ff.c **** 
 940:Middlewares/Third_Party/FatFs/src/ff.c **** /*-----------------------------------------------------------------------*/
 941:Middlewares/Third_Party/FatFs/src/ff.c **** /* FAT access - Change value of a FAT entry                              */
 942:Middlewares/Third_Party/FatFs/src/ff.c **** /*-----------------------------------------------------------------------*/
 943:Middlewares/Third_Party/FatFs/src/ff.c **** /* Hidden API for hacks and disk tools */
 944:Middlewares/Third_Party/FatFs/src/ff.c **** 
 945:Middlewares/Third_Party/FatFs/src/ff.c **** #if !_FS_READONLY
 946:Middlewares/Third_Party/FatFs/src/ff.c **** FRESULT put_fat (
 947:Middlewares/Third_Party/FatFs/src/ff.c **** 	FATFS* fs,	/* File system object */
 948:Middlewares/Third_Party/FatFs/src/ff.c **** 	DWORD clst,	/* FAT index number (cluster number) to be changed */
 949:Middlewares/Third_Party/FatFs/src/ff.c **** 	DWORD val	/* New value to be set to the entry */
 950:Middlewares/Third_Party/FatFs/src/ff.c **** )
 951:Middlewares/Third_Party/FatFs/src/ff.c **** {
 952:Middlewares/Third_Party/FatFs/src/ff.c **** 	UINT bc;
 953:Middlewares/Third_Party/FatFs/src/ff.c **** 	BYTE *p;
 954:Middlewares/Third_Party/FatFs/src/ff.c **** 	FRESULT res;
 955:Middlewares/Third_Party/FatFs/src/ff.c **** 
 956:Middlewares/Third_Party/FatFs/src/ff.c **** 
 957:Middlewares/Third_Party/FatFs/src/ff.c **** 	if (clst < 2 || clst >= fs->n_fatent) {	/* Check range */
 958:Middlewares/Third_Party/FatFs/src/ff.c **** 		res = FR_INT_ERR;
 959:Middlewares/Third_Party/FatFs/src/ff.c **** 
 960:Middlewares/Third_Party/FatFs/src/ff.c **** 	} else {
 961:Middlewares/Third_Party/FatFs/src/ff.c **** 		switch (fs->fs_type) {
 962:Middlewares/Third_Party/FatFs/src/ff.c **** 		case FS_FAT12 :
 963:Middlewares/Third_Party/FatFs/src/ff.c **** 			bc = (UINT)clst; bc += bc / 2;
ARM GAS  /tmp/ccktbAOa.s 			page 26


 964:Middlewares/Third_Party/FatFs/src/ff.c **** 			res = move_window(fs, fs->fatbase + (bc / SS(fs)));
 965:Middlewares/Third_Party/FatFs/src/ff.c **** 			if (res != FR_OK) break;
 966:Middlewares/Third_Party/FatFs/src/ff.c **** 			p = &fs->win.d8[bc++ % SS(fs)];
 967:Middlewares/Third_Party/FatFs/src/ff.c **** 			*p = (clst & 1) ? ((*p & 0x0F) | ((BYTE)val << 4)) : (BYTE)val;
 968:Middlewares/Third_Party/FatFs/src/ff.c **** 			fs->wflag = 1;
 969:Middlewares/Third_Party/FatFs/src/ff.c **** 			res = move_window(fs, fs->fatbase + (bc / SS(fs)));
 970:Middlewares/Third_Party/FatFs/src/ff.c **** 			if (res != FR_OK) break;
 971:Middlewares/Third_Party/FatFs/src/ff.c **** 			p = &fs->win.d8[bc % SS(fs)];
 972:Middlewares/Third_Party/FatFs/src/ff.c **** 			*p = (clst & 1) ? (BYTE)(val >> 4) : ((*p & 0xF0) | ((BYTE)(val >> 8) & 0x0F));
 973:Middlewares/Third_Party/FatFs/src/ff.c **** 			fs->wflag = 1;
 974:Middlewares/Third_Party/FatFs/src/ff.c **** 			break;
 975:Middlewares/Third_Party/FatFs/src/ff.c **** 
 976:Middlewares/Third_Party/FatFs/src/ff.c **** 		case FS_FAT16 :
 977:Middlewares/Third_Party/FatFs/src/ff.c **** 			res = move_window(fs, fs->fatbase + (clst / (SS(fs) / 2)));
 978:Middlewares/Third_Party/FatFs/src/ff.c **** 			if (res != FR_OK) break;
 979:Middlewares/Third_Party/FatFs/src/ff.c **** 			p = &fs->win.d8[clst * 2 % SS(fs)];
 980:Middlewares/Third_Party/FatFs/src/ff.c **** 			ST_WORD(p, (WORD)val);
 981:Middlewares/Third_Party/FatFs/src/ff.c **** 			fs->wflag = 1;
 982:Middlewares/Third_Party/FatFs/src/ff.c **** 			break;
 983:Middlewares/Third_Party/FatFs/src/ff.c **** 
 984:Middlewares/Third_Party/FatFs/src/ff.c **** 		case FS_FAT32 :
 985:Middlewares/Third_Party/FatFs/src/ff.c **** 			res = move_window(fs, fs->fatbase + (clst / (SS(fs) / 4)));
 986:Middlewares/Third_Party/FatFs/src/ff.c **** 			if (res != FR_OK) break;
 987:Middlewares/Third_Party/FatFs/src/ff.c **** 			p = &fs->win.d8[clst * 4 % SS(fs)];
 988:Middlewares/Third_Party/FatFs/src/ff.c **** 			val |= LD_DWORD(p) & 0xF0000000;
 989:Middlewares/Third_Party/FatFs/src/ff.c **** 			ST_DWORD(p, val);
 990:Middlewares/Third_Party/FatFs/src/ff.c **** 			fs->wflag = 1;
 991:Middlewares/Third_Party/FatFs/src/ff.c **** 			break;
 992:Middlewares/Third_Party/FatFs/src/ff.c **** 
 993:Middlewares/Third_Party/FatFs/src/ff.c **** 		default :
 994:Middlewares/Third_Party/FatFs/src/ff.c **** 			res = FR_INT_ERR;
 995:Middlewares/Third_Party/FatFs/src/ff.c **** 		}
 996:Middlewares/Third_Party/FatFs/src/ff.c **** 	}
 997:Middlewares/Third_Party/FatFs/src/ff.c **** 
 998:Middlewares/Third_Party/FatFs/src/ff.c **** 	return res;
 999:Middlewares/Third_Party/FatFs/src/ff.c **** }
1000:Middlewares/Third_Party/FatFs/src/ff.c **** #endif /* !_FS_READONLY */
1001:Middlewares/Third_Party/FatFs/src/ff.c **** 
1002:Middlewares/Third_Party/FatFs/src/ff.c **** 
1003:Middlewares/Third_Party/FatFs/src/ff.c **** 
1004:Middlewares/Third_Party/FatFs/src/ff.c **** 
1005:Middlewares/Third_Party/FatFs/src/ff.c **** /*-----------------------------------------------------------------------*/
1006:Middlewares/Third_Party/FatFs/src/ff.c **** /* FAT handling - Remove a cluster chain                                 */
1007:Middlewares/Third_Party/FatFs/src/ff.c **** /*-----------------------------------------------------------------------*/
1008:Middlewares/Third_Party/FatFs/src/ff.c **** #if !_FS_READONLY
1009:Middlewares/Third_Party/FatFs/src/ff.c **** static
1010:Middlewares/Third_Party/FatFs/src/ff.c **** FRESULT remove_chain (
1011:Middlewares/Third_Party/FatFs/src/ff.c **** 	FATFS* fs,			/* File system object */
1012:Middlewares/Third_Party/FatFs/src/ff.c **** 	DWORD clst			/* Cluster# to remove a chain from */
1013:Middlewares/Third_Party/FatFs/src/ff.c **** )
1014:Middlewares/Third_Party/FatFs/src/ff.c **** {
1015:Middlewares/Third_Party/FatFs/src/ff.c **** 	FRESULT res;
1016:Middlewares/Third_Party/FatFs/src/ff.c **** 	DWORD nxt;
1017:Middlewares/Third_Party/FatFs/src/ff.c **** #if _USE_TRIM
1018:Middlewares/Third_Party/FatFs/src/ff.c **** 	DWORD scl = clst, ecl = clst, rt[2];
1019:Middlewares/Third_Party/FatFs/src/ff.c **** #endif
1020:Middlewares/Third_Party/FatFs/src/ff.c **** 
ARM GAS  /tmp/ccktbAOa.s 			page 27


1021:Middlewares/Third_Party/FatFs/src/ff.c **** 	if (clst < 2 || clst >= fs->n_fatent) {	/* Check range */
1022:Middlewares/Third_Party/FatFs/src/ff.c **** 		res = FR_INT_ERR;
1023:Middlewares/Third_Party/FatFs/src/ff.c **** 
1024:Middlewares/Third_Party/FatFs/src/ff.c **** 	} else {
1025:Middlewares/Third_Party/FatFs/src/ff.c **** 		res = FR_OK;
1026:Middlewares/Third_Party/FatFs/src/ff.c **** 		while (clst < fs->n_fatent) {			/* Not a last link? */
1027:Middlewares/Third_Party/FatFs/src/ff.c **** 			nxt = get_fat(fs, clst);			/* Get cluster status */
1028:Middlewares/Third_Party/FatFs/src/ff.c **** 			if (nxt == 0) break;				/* Empty cluster? */
1029:Middlewares/Third_Party/FatFs/src/ff.c **** 			if (nxt == 1) { res = FR_INT_ERR; break; }	/* Internal error? */
1030:Middlewares/Third_Party/FatFs/src/ff.c **** 			if (nxt == 0xFFFFFFFF) { res = FR_DISK_ERR; break; }	/* Disk error? */
1031:Middlewares/Third_Party/FatFs/src/ff.c **** 			res = put_fat(fs, clst, 0);			/* Mark the cluster "empty" */
1032:Middlewares/Third_Party/FatFs/src/ff.c **** 			if (res != FR_OK) break;
1033:Middlewares/Third_Party/FatFs/src/ff.c **** 			if (fs->free_clust != 0xFFFFFFFF) {	/* Update FSINFO */
1034:Middlewares/Third_Party/FatFs/src/ff.c **** 				fs->free_clust++;
1035:Middlewares/Third_Party/FatFs/src/ff.c **** 				fs->fsi_flag |= 1;
1036:Middlewares/Third_Party/FatFs/src/ff.c **** 			}
1037:Middlewares/Third_Party/FatFs/src/ff.c **** #if _USE_TRIM
1038:Middlewares/Third_Party/FatFs/src/ff.c **** 			if (ecl + 1 == nxt) {	/* Is next cluster contiguous? */
1039:Middlewares/Third_Party/FatFs/src/ff.c **** 				ecl = nxt;
1040:Middlewares/Third_Party/FatFs/src/ff.c **** 			} else {				/* End of contiguous clusters */ 
1041:Middlewares/Third_Party/FatFs/src/ff.c **** 				rt[0] = clust2sect(fs, scl);					/* Start sector */
1042:Middlewares/Third_Party/FatFs/src/ff.c **** 				rt[1] = clust2sect(fs, ecl) + fs->csize - 1;	/* End sector */
1043:Middlewares/Third_Party/FatFs/src/ff.c **** 				disk_ioctl(fs->drv, CTRL_TRIM, rt);				/* Erase the block */
1044:Middlewares/Third_Party/FatFs/src/ff.c **** 				scl = ecl = nxt;
1045:Middlewares/Third_Party/FatFs/src/ff.c **** 			}
1046:Middlewares/Third_Party/FatFs/src/ff.c **** #endif
1047:Middlewares/Third_Party/FatFs/src/ff.c **** 			clst = nxt;	/* Next cluster */
1048:Middlewares/Third_Party/FatFs/src/ff.c **** 		}
1049:Middlewares/Third_Party/FatFs/src/ff.c **** 	}
1050:Middlewares/Third_Party/FatFs/src/ff.c **** 
1051:Middlewares/Third_Party/FatFs/src/ff.c **** 	return res;
1052:Middlewares/Third_Party/FatFs/src/ff.c **** }
1053:Middlewares/Third_Party/FatFs/src/ff.c **** #endif
1054:Middlewares/Third_Party/FatFs/src/ff.c **** 
1055:Middlewares/Third_Party/FatFs/src/ff.c **** 
1056:Middlewares/Third_Party/FatFs/src/ff.c **** 
1057:Middlewares/Third_Party/FatFs/src/ff.c **** 
1058:Middlewares/Third_Party/FatFs/src/ff.c **** /*-----------------------------------------------------------------------*/
1059:Middlewares/Third_Party/FatFs/src/ff.c **** /* FAT handling - Stretch or Create a cluster chain                      */
1060:Middlewares/Third_Party/FatFs/src/ff.c **** /*-----------------------------------------------------------------------*/
1061:Middlewares/Third_Party/FatFs/src/ff.c **** #if !_FS_READONLY
1062:Middlewares/Third_Party/FatFs/src/ff.c **** static
1063:Middlewares/Third_Party/FatFs/src/ff.c **** DWORD create_chain (	/* 0:No free cluster, 1:Internal error, 0xFFFFFFFF:Disk error, >=2:New cluster
1064:Middlewares/Third_Party/FatFs/src/ff.c **** 	FATFS* fs,			/* File system object */
1065:Middlewares/Third_Party/FatFs/src/ff.c **** 	DWORD clst			/* Cluster# to stretch. 0 means create a new chain. */
1066:Middlewares/Third_Party/FatFs/src/ff.c **** )
1067:Middlewares/Third_Party/FatFs/src/ff.c **** {
1068:Middlewares/Third_Party/FatFs/src/ff.c **** 	DWORD cs, ncl, scl;
1069:Middlewares/Third_Party/FatFs/src/ff.c **** 	FRESULT res;
1070:Middlewares/Third_Party/FatFs/src/ff.c **** 
1071:Middlewares/Third_Party/FatFs/src/ff.c **** 
1072:Middlewares/Third_Party/FatFs/src/ff.c **** 	if (clst == 0) {		/* Create a new chain */
1073:Middlewares/Third_Party/FatFs/src/ff.c **** 		scl = fs->last_clust;			/* Get suggested start point */
1074:Middlewares/Third_Party/FatFs/src/ff.c **** 		if (!scl || scl >= fs->n_fatent) scl = 1;
1075:Middlewares/Third_Party/FatFs/src/ff.c **** 	}
1076:Middlewares/Third_Party/FatFs/src/ff.c **** 	else {					/* Stretch the current chain */
1077:Middlewares/Third_Party/FatFs/src/ff.c **** 		cs = get_fat(fs, clst);			/* Check the cluster status */
ARM GAS  /tmp/ccktbAOa.s 			page 28


1078:Middlewares/Third_Party/FatFs/src/ff.c **** 		if (cs < 2) return 1;			/* Invalid value */
1079:Middlewares/Third_Party/FatFs/src/ff.c **** 		if (cs == 0xFFFFFFFF) return cs;	/* A disk error occurred */
1080:Middlewares/Third_Party/FatFs/src/ff.c **** 		if (cs < fs->n_fatent) return cs;	/* It is already followed by next cluster */
1081:Middlewares/Third_Party/FatFs/src/ff.c **** 		scl = clst;
1082:Middlewares/Third_Party/FatFs/src/ff.c **** 	}
1083:Middlewares/Third_Party/FatFs/src/ff.c **** 
1084:Middlewares/Third_Party/FatFs/src/ff.c **** 	ncl = scl;				/* Start cluster */
1085:Middlewares/Third_Party/FatFs/src/ff.c **** 	for (;;) {
1086:Middlewares/Third_Party/FatFs/src/ff.c **** 		ncl++;							/* Next cluster */
1087:Middlewares/Third_Party/FatFs/src/ff.c **** 		if (ncl >= fs->n_fatent) {		/* Check wrap around */
1088:Middlewares/Third_Party/FatFs/src/ff.c **** 			ncl = 2;
1089:Middlewares/Third_Party/FatFs/src/ff.c **** 			if (ncl > scl) return 0;	/* No free cluster */
1090:Middlewares/Third_Party/FatFs/src/ff.c **** 		}
1091:Middlewares/Third_Party/FatFs/src/ff.c **** 		cs = get_fat(fs, ncl);			/* Get the cluster status */
1092:Middlewares/Third_Party/FatFs/src/ff.c **** 		if (cs == 0) break;				/* Found a free cluster */
1093:Middlewares/Third_Party/FatFs/src/ff.c **** 		if (cs == 0xFFFFFFFF || cs == 1)/* An error occurred */
1094:Middlewares/Third_Party/FatFs/src/ff.c **** 			return cs;
1095:Middlewares/Third_Party/FatFs/src/ff.c **** 		if (ncl == scl) return 0;		/* No free cluster */
1096:Middlewares/Third_Party/FatFs/src/ff.c **** 	}
1097:Middlewares/Third_Party/FatFs/src/ff.c **** 
1098:Middlewares/Third_Party/FatFs/src/ff.c **** 	res = put_fat(fs, ncl, 0x0FFFFFFF);	/* Mark the new cluster "last link" */
1099:Middlewares/Third_Party/FatFs/src/ff.c **** 	if (res == FR_OK && clst != 0) {
1100:Middlewares/Third_Party/FatFs/src/ff.c **** 		res = put_fat(fs, clst, ncl);	/* Link it to the previous one if needed */
1101:Middlewares/Third_Party/FatFs/src/ff.c **** 	}
1102:Middlewares/Third_Party/FatFs/src/ff.c **** 	if (res == FR_OK) {
1103:Middlewares/Third_Party/FatFs/src/ff.c **** 		fs->last_clust = ncl;			/* Update FSINFO */
1104:Middlewares/Third_Party/FatFs/src/ff.c **** 		if (fs->free_clust != 0xFFFFFFFF) {
1105:Middlewares/Third_Party/FatFs/src/ff.c **** 			fs->free_clust--;
1106:Middlewares/Third_Party/FatFs/src/ff.c **** 			fs->fsi_flag |= 1;
1107:Middlewares/Third_Party/FatFs/src/ff.c **** 		}
1108:Middlewares/Third_Party/FatFs/src/ff.c **** 	} else {
1109:Middlewares/Third_Party/FatFs/src/ff.c **** 		ncl = (res == FR_DISK_ERR) ? 0xFFFFFFFF : 1;
1110:Middlewares/Third_Party/FatFs/src/ff.c **** 	}
1111:Middlewares/Third_Party/FatFs/src/ff.c **** 
1112:Middlewares/Third_Party/FatFs/src/ff.c **** 	return ncl;		/* Return new cluster number or error code */
1113:Middlewares/Third_Party/FatFs/src/ff.c **** }
1114:Middlewares/Third_Party/FatFs/src/ff.c **** #endif /* !_FS_READONLY */
1115:Middlewares/Third_Party/FatFs/src/ff.c **** 
1116:Middlewares/Third_Party/FatFs/src/ff.c **** 
1117:Middlewares/Third_Party/FatFs/src/ff.c **** 
1118:Middlewares/Third_Party/FatFs/src/ff.c **** 
1119:Middlewares/Third_Party/FatFs/src/ff.c **** /*-----------------------------------------------------------------------*/
1120:Middlewares/Third_Party/FatFs/src/ff.c **** /* FAT handling - Convert offset into cluster with link map table        */
1121:Middlewares/Third_Party/FatFs/src/ff.c **** /*-----------------------------------------------------------------------*/
1122:Middlewares/Third_Party/FatFs/src/ff.c **** 
1123:Middlewares/Third_Party/FatFs/src/ff.c **** #if _USE_FASTSEEK
1124:Middlewares/Third_Party/FatFs/src/ff.c **** static
1125:Middlewares/Third_Party/FatFs/src/ff.c **** DWORD clmt_clust (	/* <2:Error, >=2:Cluster number */
1126:Middlewares/Third_Party/FatFs/src/ff.c **** 	FIL* fp,		/* Pointer to the file object */
1127:Middlewares/Third_Party/FatFs/src/ff.c **** 	DWORD ofs		/* File offset to be converted to cluster# */
1128:Middlewares/Third_Party/FatFs/src/ff.c **** )
1129:Middlewares/Third_Party/FatFs/src/ff.c **** {
 443              		.loc 1 1129 0
 444              		.cfi_startproc
 445              		@ args = 0, pretend = 0, frame = 0
 446              		@ frame_needed = 0, uses_anonymous_args = 0
 447              		@ link register save eliminated.
ARM GAS  /tmp/ccktbAOa.s 			page 29


 448              	.LVL53:
1130:Middlewares/Third_Party/FatFs/src/ff.c **** 	DWORD cl, ncl, *tbl;
1131:Middlewares/Third_Party/FatFs/src/ff.c **** 
1132:Middlewares/Third_Party/FatFs/src/ff.c **** 
1133:Middlewares/Third_Party/FatFs/src/ff.c **** 	tbl = fp->cltbl + 1;	/* Top of CLMT */
 449              		.loc 1 1133 0
 450 0000 D0F82422 		ldr	r2, [r0, #548]
 451 0004 131D     		adds	r3, r2, #4
 452              	.LVL54:
1134:Middlewares/Third_Party/FatFs/src/ff.c **** 	cl = ofs / SS(fp->fs) / fp->fs->csize;	/* Cluster order from top of the file */
 453              		.loc 1 1134 0
 454 0006 490A     		lsrs	r1, r1, #9
 455              	.LVL55:
 456 0008 D0F80002 		ldr	r0, [r0, #512]
 457              	.LVL56:
 458 000c 90F80202 		ldrb	r0, [r0, #514]	@ zero_extendqisi2
 459 0010 B1FBF0F1 		udiv	r1, r1, r0
 460              	.LVL57:
1135:Middlewares/Third_Party/FatFs/src/ff.c **** 	for (;;) {
1136:Middlewares/Third_Party/FatFs/src/ff.c **** 		ncl = *tbl++;			/* Number of cluters in the fragment */
 461              		.loc 1 1136 0
 462 0014 5068     		ldr	r0, [r2, #4]
 463              	.LVL58:
1137:Middlewares/Third_Party/FatFs/src/ff.c **** 		if (!ncl) return 0;		/* End of table? (error) */
 464              		.loc 1 1137 0
 465 0016 48B1     		cbz	r0, .L58
1138:Middlewares/Third_Party/FatFs/src/ff.c **** 		if (cl < ncl) break;	/* In this fragment? */
 466              		.loc 1 1138 0
 467 0018 8142     		cmp	r1, r0
 468 001a 05D3     		bcc	.L60
 469              	.LVL59:
 470              	.L61:
1139:Middlewares/Third_Party/FatFs/src/ff.c **** 		cl -= ncl; tbl++;		/* Next fragment */
 471              		.loc 1 1139 0
 472 001c 091A     		subs	r1, r1, r0
 473              	.LVL60:
1136:Middlewares/Third_Party/FatFs/src/ff.c **** 		if (!ncl) return 0;		/* End of table? (error) */
 474              		.loc 1 1136 0
 475 001e 53F8080F 		ldr	r0, [r3, #8]!
 476              	.LVL61:
1137:Middlewares/Third_Party/FatFs/src/ff.c **** 		if (cl < ncl) break;	/* In this fragment? */
 477              		.loc 1 1137 0
 478 0022 20B1     		cbz	r0, .L64
1138:Middlewares/Third_Party/FatFs/src/ff.c **** 		cl -= ncl; tbl++;		/* Next fragment */
 479              		.loc 1 1138 0
 480 0024 8842     		cmp	r0, r1
 481 0026 F9D9     		bls	.L61
 482              	.LVL62:
 483              	.L60:
1140:Middlewares/Third_Party/FatFs/src/ff.c **** 	}
1141:Middlewares/Third_Party/FatFs/src/ff.c **** 	return cl + *tbl;	/* Return the cluster number */
 484              		.loc 1 1141 0
 485 0028 5868     		ldr	r0, [r3, #4]
 486              	.LVL63:
 487 002a 0844     		add	r0, r0, r1
 488              	.L58:
1142:Middlewares/Third_Party/FatFs/src/ff.c **** }
ARM GAS  /tmp/ccktbAOa.s 			page 30


 489              		.loc 1 1142 0
 490 002c 7047     		bx	lr
 491              	.LVL64:
 492              	.L64:
 493 002e 7047     		bx	lr
 494              		.cfi_endproc
 495              	.LFE143:
 497              		.section	.text.ld_clust,"ax",%progbits
 498              		.align	1
 499              		.syntax unified
 500              		.thumb
 501              		.thumb_func
 502              		.fpu fpv4-sp-d16
 504              	ld_clust:
 505              	.LFB147:
1143:Middlewares/Third_Party/FatFs/src/ff.c **** #endif	/* _USE_FASTSEEK */
1144:Middlewares/Third_Party/FatFs/src/ff.c **** 
1145:Middlewares/Third_Party/FatFs/src/ff.c **** 
1146:Middlewares/Third_Party/FatFs/src/ff.c **** 
1147:Middlewares/Third_Party/FatFs/src/ff.c **** 
1148:Middlewares/Third_Party/FatFs/src/ff.c **** /*-----------------------------------------------------------------------*/
1149:Middlewares/Third_Party/FatFs/src/ff.c **** /* Directory handling - Set directory index                              */
1150:Middlewares/Third_Party/FatFs/src/ff.c **** /*-----------------------------------------------------------------------*/
1151:Middlewares/Third_Party/FatFs/src/ff.c **** 
1152:Middlewares/Third_Party/FatFs/src/ff.c **** static
1153:Middlewares/Third_Party/FatFs/src/ff.c **** FRESULT dir_sdi (
1154:Middlewares/Third_Party/FatFs/src/ff.c **** 	DIR* dp,		/* Pointer to directory object */
1155:Middlewares/Third_Party/FatFs/src/ff.c **** 	UINT idx		/* Index of directory table */
1156:Middlewares/Third_Party/FatFs/src/ff.c **** )
1157:Middlewares/Third_Party/FatFs/src/ff.c **** {
1158:Middlewares/Third_Party/FatFs/src/ff.c **** 	DWORD clst, sect;
1159:Middlewares/Third_Party/FatFs/src/ff.c **** 	UINT ic;
1160:Middlewares/Third_Party/FatFs/src/ff.c **** 
1161:Middlewares/Third_Party/FatFs/src/ff.c **** 
1162:Middlewares/Third_Party/FatFs/src/ff.c **** 	dp->index = (WORD)idx;	/* Current index */
1163:Middlewares/Third_Party/FatFs/src/ff.c **** 	clst = dp->sclust;		/* Table start cluster (0:root) */
1164:Middlewares/Third_Party/FatFs/src/ff.c **** 	if (clst == 1 || clst >= dp->fs->n_fatent)	/* Check start cluster range */
1165:Middlewares/Third_Party/FatFs/src/ff.c **** 		return FR_INT_ERR;
1166:Middlewares/Third_Party/FatFs/src/ff.c **** 	if (!clst && dp->fs->fs_type == FS_FAT32)	/* Replace cluster# 0 with root cluster# if in FAT32 */
1167:Middlewares/Third_Party/FatFs/src/ff.c **** 		clst = dp->fs->dirbase;
1168:Middlewares/Third_Party/FatFs/src/ff.c **** 
1169:Middlewares/Third_Party/FatFs/src/ff.c **** 	if (clst == 0) {	/* Static table (root-directory in FAT12/16) */
1170:Middlewares/Third_Party/FatFs/src/ff.c **** 		if (idx >= dp->fs->n_rootdir)	/* Is index out of range? */
1171:Middlewares/Third_Party/FatFs/src/ff.c **** 			return FR_INT_ERR;
1172:Middlewares/Third_Party/FatFs/src/ff.c **** 		sect = dp->fs->dirbase;
1173:Middlewares/Third_Party/FatFs/src/ff.c **** 	}
1174:Middlewares/Third_Party/FatFs/src/ff.c **** 	else {				/* Dynamic table (root-directory in FAT32 or sub-directory) */
1175:Middlewares/Third_Party/FatFs/src/ff.c **** 		ic = SS(dp->fs) / SZ_DIRE * dp->fs->csize;	/* Entries per cluster */
1176:Middlewares/Third_Party/FatFs/src/ff.c **** 		while (idx >= ic) {	/* Follow cluster chain */
1177:Middlewares/Third_Party/FatFs/src/ff.c **** 			clst = get_fat(dp->fs, clst);				/* Get next cluster */
1178:Middlewares/Third_Party/FatFs/src/ff.c **** 			if (clst == 0xFFFFFFFF) return FR_DISK_ERR;	/* Disk error */
1179:Middlewares/Third_Party/FatFs/src/ff.c **** 			if (clst < 2 || clst >= dp->fs->n_fatent)	/* Reached to end of table or internal error */
1180:Middlewares/Third_Party/FatFs/src/ff.c **** 				return FR_INT_ERR;
1181:Middlewares/Third_Party/FatFs/src/ff.c **** 			idx -= ic;
1182:Middlewares/Third_Party/FatFs/src/ff.c **** 		}
1183:Middlewares/Third_Party/FatFs/src/ff.c **** 		sect = clust2sect(dp->fs, clst);
1184:Middlewares/Third_Party/FatFs/src/ff.c **** 	}
ARM GAS  /tmp/ccktbAOa.s 			page 31


1185:Middlewares/Third_Party/FatFs/src/ff.c **** 	dp->clust = clst;	/* Current cluster# */
1186:Middlewares/Third_Party/FatFs/src/ff.c **** 	if (!sect) return FR_INT_ERR;
1187:Middlewares/Third_Party/FatFs/src/ff.c **** 	dp->sect = sect + idx / (SS(dp->fs) / SZ_DIRE);					/* Sector# of the directory entry */
1188:Middlewares/Third_Party/FatFs/src/ff.c **** 	dp->dir = dp->fs->win.d8 + (idx % (SS(dp->fs) / SZ_DIRE)) * SZ_DIRE;	/* Ptr to the entry in the se
1189:Middlewares/Third_Party/FatFs/src/ff.c **** 
1190:Middlewares/Third_Party/FatFs/src/ff.c **** 	return FR_OK;
1191:Middlewares/Third_Party/FatFs/src/ff.c **** }
1192:Middlewares/Third_Party/FatFs/src/ff.c **** 
1193:Middlewares/Third_Party/FatFs/src/ff.c **** 
1194:Middlewares/Third_Party/FatFs/src/ff.c **** 
1195:Middlewares/Third_Party/FatFs/src/ff.c **** 
1196:Middlewares/Third_Party/FatFs/src/ff.c **** /*-----------------------------------------------------------------------*/
1197:Middlewares/Third_Party/FatFs/src/ff.c **** /* Directory handling - Move directory table index next                  */
1198:Middlewares/Third_Party/FatFs/src/ff.c **** /*-----------------------------------------------------------------------*/
1199:Middlewares/Third_Party/FatFs/src/ff.c **** 
1200:Middlewares/Third_Party/FatFs/src/ff.c **** static
1201:Middlewares/Third_Party/FatFs/src/ff.c **** FRESULT dir_next (	/* FR_OK:Succeeded, FR_NO_FILE:End of table, FR_DENIED:Could not stretch */
1202:Middlewares/Third_Party/FatFs/src/ff.c **** 	DIR* dp,		/* Pointer to the directory object */
1203:Middlewares/Third_Party/FatFs/src/ff.c **** 	int stretch		/* 0: Do not stretch table, 1: Stretch table if needed */
1204:Middlewares/Third_Party/FatFs/src/ff.c **** )
1205:Middlewares/Third_Party/FatFs/src/ff.c **** {
1206:Middlewares/Third_Party/FatFs/src/ff.c **** 	DWORD clst;
1207:Middlewares/Third_Party/FatFs/src/ff.c **** 	UINT i;
1208:Middlewares/Third_Party/FatFs/src/ff.c **** #if !_FS_READONLY
1209:Middlewares/Third_Party/FatFs/src/ff.c **** 	UINT c;
1210:Middlewares/Third_Party/FatFs/src/ff.c **** #endif
1211:Middlewares/Third_Party/FatFs/src/ff.c **** 
1212:Middlewares/Third_Party/FatFs/src/ff.c **** 
1213:Middlewares/Third_Party/FatFs/src/ff.c **** 	i = dp->index + 1;
1214:Middlewares/Third_Party/FatFs/src/ff.c **** 	if (!(i & 0xFFFF) || !dp->sect)	/* Report EOT when index has reached 65535 */
1215:Middlewares/Third_Party/FatFs/src/ff.c **** 		return FR_NO_FILE;
1216:Middlewares/Third_Party/FatFs/src/ff.c **** 
1217:Middlewares/Third_Party/FatFs/src/ff.c **** 	if (!(i % (SS(dp->fs) / SZ_DIRE))) {	/* Sector changed? */
1218:Middlewares/Third_Party/FatFs/src/ff.c **** 		dp->sect++;					/* Next sector */
1219:Middlewares/Third_Party/FatFs/src/ff.c **** 
1220:Middlewares/Third_Party/FatFs/src/ff.c **** 		if (!dp->clust) {		/* Static table */
1221:Middlewares/Third_Party/FatFs/src/ff.c **** 			if (i >= dp->fs->n_rootdir)	/* Report EOT if it reached end of static table */
1222:Middlewares/Third_Party/FatFs/src/ff.c **** 				return FR_NO_FILE;
1223:Middlewares/Third_Party/FatFs/src/ff.c **** 		}
1224:Middlewares/Third_Party/FatFs/src/ff.c **** 		else {					/* Dynamic table */
1225:Middlewares/Third_Party/FatFs/src/ff.c **** 			if (((i / (SS(dp->fs) / SZ_DIRE)) & (dp->fs->csize - 1)) == 0) {	/* Cluster changed? */
1226:Middlewares/Third_Party/FatFs/src/ff.c **** 				clst = get_fat(dp->fs, dp->clust);				/* Get next cluster */
1227:Middlewares/Third_Party/FatFs/src/ff.c **** 				if (clst <= 1) return FR_INT_ERR;
1228:Middlewares/Third_Party/FatFs/src/ff.c **** 				if (clst == 0xFFFFFFFF) return FR_DISK_ERR;
1229:Middlewares/Third_Party/FatFs/src/ff.c **** 				if (clst >= dp->fs->n_fatent) {					/* If it reached end of dynamic table, */
1230:Middlewares/Third_Party/FatFs/src/ff.c **** #if !_FS_READONLY
1231:Middlewares/Third_Party/FatFs/src/ff.c **** 					if (!stretch) return FR_NO_FILE;			/* If do not stretch, report EOT */
1232:Middlewares/Third_Party/FatFs/src/ff.c **** 					clst = create_chain(dp->fs, dp->clust);		/* Stretch cluster chain */
1233:Middlewares/Third_Party/FatFs/src/ff.c **** 					if (clst == 0) return FR_DENIED;			/* No free cluster */
1234:Middlewares/Third_Party/FatFs/src/ff.c **** 					if (clst == 1) return FR_INT_ERR;
1235:Middlewares/Third_Party/FatFs/src/ff.c **** 					if (clst == 0xFFFFFFFF) return FR_DISK_ERR;
1236:Middlewares/Third_Party/FatFs/src/ff.c **** 					/* Clean-up stretched table */
1237:Middlewares/Third_Party/FatFs/src/ff.c **** 					if (sync_window(dp->fs)) return FR_DISK_ERR;/* Flush disk access window */
1238:Middlewares/Third_Party/FatFs/src/ff.c **** 					mem_set(dp->fs->win.d8, 0, SS(dp->fs));		/* Clear window buffer */
1239:Middlewares/Third_Party/FatFs/src/ff.c **** 					dp->fs->winsect = clust2sect(dp->fs, clst);	/* Cluster start sector */
1240:Middlewares/Third_Party/FatFs/src/ff.c **** 					for (c = 0; c < dp->fs->csize; c++) {		/* Fill the new cluster with 0 */
1241:Middlewares/Third_Party/FatFs/src/ff.c **** 						dp->fs->wflag = 1;
ARM GAS  /tmp/ccktbAOa.s 			page 32


1242:Middlewares/Third_Party/FatFs/src/ff.c **** 						if (sync_window(dp->fs)) return FR_DISK_ERR;
1243:Middlewares/Third_Party/FatFs/src/ff.c **** 						dp->fs->winsect++;
1244:Middlewares/Third_Party/FatFs/src/ff.c **** 					}
1245:Middlewares/Third_Party/FatFs/src/ff.c **** 					dp->fs->winsect -= c;						/* Rewind window offset */
1246:Middlewares/Third_Party/FatFs/src/ff.c **** #else
1247:Middlewares/Third_Party/FatFs/src/ff.c **** 					if (!stretch) return FR_NO_FILE;			/* If do not stretch, report EOT (this is to suppress warni
1248:Middlewares/Third_Party/FatFs/src/ff.c **** 					return FR_NO_FILE;							/* Report EOT */
1249:Middlewares/Third_Party/FatFs/src/ff.c **** #endif
1250:Middlewares/Third_Party/FatFs/src/ff.c **** 				}
1251:Middlewares/Third_Party/FatFs/src/ff.c **** 				dp->clust = clst;				/* Initialize data for new cluster */
1252:Middlewares/Third_Party/FatFs/src/ff.c **** 				dp->sect = clust2sect(dp->fs, clst);
1253:Middlewares/Third_Party/FatFs/src/ff.c **** 			}
1254:Middlewares/Third_Party/FatFs/src/ff.c **** 		}
1255:Middlewares/Third_Party/FatFs/src/ff.c **** 	}
1256:Middlewares/Third_Party/FatFs/src/ff.c **** 
1257:Middlewares/Third_Party/FatFs/src/ff.c **** 	dp->index = (WORD)i;	/* Current index */
1258:Middlewares/Third_Party/FatFs/src/ff.c **** 	dp->dir = dp->fs->win.d8 + (i % (SS(dp->fs) / SZ_DIRE)) * SZ_DIRE;	/* Current entry in the window 
1259:Middlewares/Third_Party/FatFs/src/ff.c **** 
1260:Middlewares/Third_Party/FatFs/src/ff.c **** 	return FR_OK;
1261:Middlewares/Third_Party/FatFs/src/ff.c **** }
1262:Middlewares/Third_Party/FatFs/src/ff.c **** 
1263:Middlewares/Third_Party/FatFs/src/ff.c **** 
1264:Middlewares/Third_Party/FatFs/src/ff.c **** 
1265:Middlewares/Third_Party/FatFs/src/ff.c **** 
1266:Middlewares/Third_Party/FatFs/src/ff.c **** /*-----------------------------------------------------------------------*/
1267:Middlewares/Third_Party/FatFs/src/ff.c **** /* Directory handling - Reserve directory entry                          */
1268:Middlewares/Third_Party/FatFs/src/ff.c **** /*-----------------------------------------------------------------------*/
1269:Middlewares/Third_Party/FatFs/src/ff.c **** 
1270:Middlewares/Third_Party/FatFs/src/ff.c **** #if !_FS_READONLY
1271:Middlewares/Third_Party/FatFs/src/ff.c **** static
1272:Middlewares/Third_Party/FatFs/src/ff.c **** FRESULT dir_alloc (
1273:Middlewares/Third_Party/FatFs/src/ff.c **** 	DIR* dp,	/* Pointer to the directory object */
1274:Middlewares/Third_Party/FatFs/src/ff.c **** 	UINT nent	/* Number of contiguous entries to allocate (1-21) */
1275:Middlewares/Third_Party/FatFs/src/ff.c **** )
1276:Middlewares/Third_Party/FatFs/src/ff.c **** {
1277:Middlewares/Third_Party/FatFs/src/ff.c **** 	FRESULT res;
1278:Middlewares/Third_Party/FatFs/src/ff.c **** 	UINT n;
1279:Middlewares/Third_Party/FatFs/src/ff.c **** 
1280:Middlewares/Third_Party/FatFs/src/ff.c **** 
1281:Middlewares/Third_Party/FatFs/src/ff.c **** 	res = dir_sdi(dp, 0);
1282:Middlewares/Third_Party/FatFs/src/ff.c **** 	if (res == FR_OK) {
1283:Middlewares/Third_Party/FatFs/src/ff.c **** 		n = 0;
1284:Middlewares/Third_Party/FatFs/src/ff.c **** 		do {
1285:Middlewares/Third_Party/FatFs/src/ff.c **** 			res = move_window(dp->fs, dp->sect);
1286:Middlewares/Third_Party/FatFs/src/ff.c **** 			if (res != FR_OK) break;
1287:Middlewares/Third_Party/FatFs/src/ff.c **** 			if (dp->dir[0] == DDEM || dp->dir[0] == 0) {	/* Is it a free entry? */
1288:Middlewares/Third_Party/FatFs/src/ff.c **** 				if (++n == nent) break;	/* A block of contiguous free entries is found */
1289:Middlewares/Third_Party/FatFs/src/ff.c **** 			} else {
1290:Middlewares/Third_Party/FatFs/src/ff.c **** 				n = 0;					/* Not a blank entry. Restart to search */
1291:Middlewares/Third_Party/FatFs/src/ff.c **** 			}
1292:Middlewares/Third_Party/FatFs/src/ff.c **** 			res = dir_next(dp, 1);		/* Next entry with table stretch enabled */
1293:Middlewares/Third_Party/FatFs/src/ff.c **** 		} while (res == FR_OK);
1294:Middlewares/Third_Party/FatFs/src/ff.c **** 	}
1295:Middlewares/Third_Party/FatFs/src/ff.c **** 	if (res == FR_NO_FILE) res = FR_DENIED;	/* No directory entry to allocate */
1296:Middlewares/Third_Party/FatFs/src/ff.c **** 	return res;
1297:Middlewares/Third_Party/FatFs/src/ff.c **** }
1298:Middlewares/Third_Party/FatFs/src/ff.c **** #endif
ARM GAS  /tmp/ccktbAOa.s 			page 33


1299:Middlewares/Third_Party/FatFs/src/ff.c **** 
1300:Middlewares/Third_Party/FatFs/src/ff.c **** 
1301:Middlewares/Third_Party/FatFs/src/ff.c **** 
1302:Middlewares/Third_Party/FatFs/src/ff.c **** 
1303:Middlewares/Third_Party/FatFs/src/ff.c **** /*-----------------------------------------------------------------------*/
1304:Middlewares/Third_Party/FatFs/src/ff.c **** /* Directory handling - Load/Store start cluster number                  */
1305:Middlewares/Third_Party/FatFs/src/ff.c **** /*-----------------------------------------------------------------------*/
1306:Middlewares/Third_Party/FatFs/src/ff.c **** 
1307:Middlewares/Third_Party/FatFs/src/ff.c **** static
1308:Middlewares/Third_Party/FatFs/src/ff.c **** DWORD ld_clust (
1309:Middlewares/Third_Party/FatFs/src/ff.c **** 	FATFS* fs,	/* Pointer to the fs object */
1310:Middlewares/Third_Party/FatFs/src/ff.c **** 	BYTE* dir	/* Pointer to the directory entry */
1311:Middlewares/Third_Party/FatFs/src/ff.c **** )
1312:Middlewares/Third_Party/FatFs/src/ff.c **** {
 506              		.loc 1 1312 0
 507              		.cfi_startproc
 508              		@ args = 0, pretend = 0, frame = 0
 509              		@ frame_needed = 0, uses_anonymous_args = 0
 510              		@ link register save eliminated.
 511              	.LVL65:
1313:Middlewares/Third_Party/FatFs/src/ff.c **** 	DWORD cl;
1314:Middlewares/Third_Party/FatFs/src/ff.c **** 
1315:Middlewares/Third_Party/FatFs/src/ff.c **** 	cl = LD_WORD(dir + DIR_FstClusLO);
 512              		.loc 1 1315 0
 513 0000 CA7E     		ldrb	r2, [r1, #27]	@ zero_extendqisi2
 514 0002 8B7E     		ldrb	r3, [r1, #26]	@ zero_extendqisi2
 515 0004 43EA0223 		orr	r3, r3, r2, lsl #8
 516              	.LVL66:
1316:Middlewares/Third_Party/FatFs/src/ff.c **** 	if (fs->fs_type == FS_FAT32)
 517              		.loc 1 1316 0
 518 0008 90F80022 		ldrb	r2, [r0, #512]	@ zero_extendqisi2
 519 000c 032A     		cmp	r2, #3
 520 000e 01D0     		beq	.L67
 521              	.LVL67:
 522              	.L65:
1317:Middlewares/Third_Party/FatFs/src/ff.c **** 		cl |= (DWORD)LD_WORD(dir + DIR_FstClusHI) << 16;
1318:Middlewares/Third_Party/FatFs/src/ff.c **** 
1319:Middlewares/Third_Party/FatFs/src/ff.c **** 	return cl;
1320:Middlewares/Third_Party/FatFs/src/ff.c **** }
 523              		.loc 1 1320 0
 524 0010 1846     		mov	r0, r3
 525 0012 7047     		bx	lr
 526              	.LVL68:
 527              	.L67:
1317:Middlewares/Third_Party/FatFs/src/ff.c **** 		cl |= (DWORD)LD_WORD(dir + DIR_FstClusHI) << 16;
 528              		.loc 1 1317 0
 529 0014 487D     		ldrb	r0, [r1, #21]	@ zero_extendqisi2
 530              	.LVL69:
 531 0016 0A7D     		ldrb	r2, [r1, #20]	@ zero_extendqisi2
 532 0018 42EA0022 		orr	r2, r2, r0, lsl #8
 533 001c 43EA0243 		orr	r3, r3, r2, lsl #16
 534              	.LVL70:
1319:Middlewares/Third_Party/FatFs/src/ff.c **** }
 535              		.loc 1 1319 0
 536 0020 F6E7     		b	.L65
 537              		.cfi_endproc
 538              	.LFE147:
ARM GAS  /tmp/ccktbAOa.s 			page 34


 540              		.section	.text.get_fileinfo,"ax",%progbits
 541              		.align	1
 542              		.syntax unified
 543              		.thumb
 544              		.thumb_func
 545              		.fpu fpv4-sp-d16
 547              	get_fileinfo:
 548              	.LFB153:
1321:Middlewares/Third_Party/FatFs/src/ff.c **** 
1322:Middlewares/Third_Party/FatFs/src/ff.c **** 
1323:Middlewares/Third_Party/FatFs/src/ff.c **** #if !_FS_READONLY
1324:Middlewares/Third_Party/FatFs/src/ff.c **** static
1325:Middlewares/Third_Party/FatFs/src/ff.c **** void st_clust (
1326:Middlewares/Third_Party/FatFs/src/ff.c **** 	BYTE* dir,	/* Pointer to the directory entry */
1327:Middlewares/Third_Party/FatFs/src/ff.c **** 	DWORD cl	/* Value to be set */
1328:Middlewares/Third_Party/FatFs/src/ff.c **** )
1329:Middlewares/Third_Party/FatFs/src/ff.c **** {
1330:Middlewares/Third_Party/FatFs/src/ff.c **** 	ST_WORD(dir + DIR_FstClusLO, cl);
1331:Middlewares/Third_Party/FatFs/src/ff.c **** 	ST_WORD(dir + DIR_FstClusHI, cl >> 16);
1332:Middlewares/Third_Party/FatFs/src/ff.c **** }
1333:Middlewares/Third_Party/FatFs/src/ff.c **** #endif
1334:Middlewares/Third_Party/FatFs/src/ff.c **** 
1335:Middlewares/Third_Party/FatFs/src/ff.c **** 
1336:Middlewares/Third_Party/FatFs/src/ff.c **** 
1337:Middlewares/Third_Party/FatFs/src/ff.c **** 
1338:Middlewares/Third_Party/FatFs/src/ff.c **** /*-----------------------------------------------------------------------*/
1339:Middlewares/Third_Party/FatFs/src/ff.c **** /* LFN handling - Test/Pick/Fit an LFN segment from/to directory entry   */
1340:Middlewares/Third_Party/FatFs/src/ff.c **** /*-----------------------------------------------------------------------*/
1341:Middlewares/Third_Party/FatFs/src/ff.c **** #if _USE_LFN
1342:Middlewares/Third_Party/FatFs/src/ff.c **** static
1343:Middlewares/Third_Party/FatFs/src/ff.c **** const BYTE LfnOfs[] = {1,3,5,7,9,14,16,18,20,22,24,28,30};	/* Offset of LFN characters in the direc
1344:Middlewares/Third_Party/FatFs/src/ff.c **** 
1345:Middlewares/Third_Party/FatFs/src/ff.c **** 
1346:Middlewares/Third_Party/FatFs/src/ff.c **** static
1347:Middlewares/Third_Party/FatFs/src/ff.c **** int cmp_lfn (			/* 1:Matched, 0:Not matched */
1348:Middlewares/Third_Party/FatFs/src/ff.c **** 	WCHAR* lfnbuf,		/* Pointer to the LFN to be compared */
1349:Middlewares/Third_Party/FatFs/src/ff.c **** 	BYTE* dir			/* Pointer to the directory entry containing a part of LFN */
1350:Middlewares/Third_Party/FatFs/src/ff.c **** )
1351:Middlewares/Third_Party/FatFs/src/ff.c **** {
1352:Middlewares/Third_Party/FatFs/src/ff.c **** 	UINT i, s;
1353:Middlewares/Third_Party/FatFs/src/ff.c **** 	WCHAR wc, uc;
1354:Middlewares/Third_Party/FatFs/src/ff.c **** 
1355:Middlewares/Third_Party/FatFs/src/ff.c **** 
1356:Middlewares/Third_Party/FatFs/src/ff.c **** 	i = ((dir[LDIR_Ord] & ~LLEF) - 1) * 13;	/* Get offset in the LFN buffer */
1357:Middlewares/Third_Party/FatFs/src/ff.c **** 	s = 0; wc = 1;
1358:Middlewares/Third_Party/FatFs/src/ff.c **** 	do {
1359:Middlewares/Third_Party/FatFs/src/ff.c **** 		uc = LD_WORD(dir + LfnOfs[s]);	/* Pick an LFN character from the entry */
1360:Middlewares/Third_Party/FatFs/src/ff.c **** 		if (wc) {	/* Last character has not been processed */
1361:Middlewares/Third_Party/FatFs/src/ff.c **** 			wc = ff_wtoupper(uc);		/* Convert it to upper case */
1362:Middlewares/Third_Party/FatFs/src/ff.c **** 			if (i >= _MAX_LFN || wc != ff_wtoupper(lfnbuf[i++]))	/* Compare it */
1363:Middlewares/Third_Party/FatFs/src/ff.c **** 				return 0;				/* Not matched */
1364:Middlewares/Third_Party/FatFs/src/ff.c **** 		} else {
1365:Middlewares/Third_Party/FatFs/src/ff.c **** 			if (uc != 0xFFFF) return 0;	/* Check filler */
1366:Middlewares/Third_Party/FatFs/src/ff.c **** 		}
1367:Middlewares/Third_Party/FatFs/src/ff.c **** 	} while (++s < 13);				/* Repeat until all characters in the entry are checked */
1368:Middlewares/Third_Party/FatFs/src/ff.c **** 
1369:Middlewares/Third_Party/FatFs/src/ff.c **** 	if ((dir[LDIR_Ord] & LLEF) && wc && lfnbuf[i])	/* Last segment matched but different length */
ARM GAS  /tmp/ccktbAOa.s 			page 35


1370:Middlewares/Third_Party/FatFs/src/ff.c **** 		return 0;
1371:Middlewares/Third_Party/FatFs/src/ff.c **** 
1372:Middlewares/Third_Party/FatFs/src/ff.c **** 	return 1;						/* The part of LFN matched */
1373:Middlewares/Third_Party/FatFs/src/ff.c **** }
1374:Middlewares/Third_Party/FatFs/src/ff.c **** 
1375:Middlewares/Third_Party/FatFs/src/ff.c **** 
1376:Middlewares/Third_Party/FatFs/src/ff.c **** 
1377:Middlewares/Third_Party/FatFs/src/ff.c **** static
1378:Middlewares/Third_Party/FatFs/src/ff.c **** int pick_lfn (			/* 1:Succeeded, 0:Buffer overflow */
1379:Middlewares/Third_Party/FatFs/src/ff.c **** 	WCHAR* lfnbuf,		/* Pointer to the Unicode-LFN buffer */
1380:Middlewares/Third_Party/FatFs/src/ff.c **** 	BYTE* dir			/* Pointer to the directory entry */
1381:Middlewares/Third_Party/FatFs/src/ff.c **** )
1382:Middlewares/Third_Party/FatFs/src/ff.c **** {
1383:Middlewares/Third_Party/FatFs/src/ff.c **** 	UINT i, s;
1384:Middlewares/Third_Party/FatFs/src/ff.c **** 	WCHAR wc, uc;
1385:Middlewares/Third_Party/FatFs/src/ff.c **** 
1386:Middlewares/Third_Party/FatFs/src/ff.c **** 
1387:Middlewares/Third_Party/FatFs/src/ff.c **** 	i = ((dir[LDIR_Ord] & 0x3F) - 1) * 13;	/* Offset in the LFN buffer */
1388:Middlewares/Third_Party/FatFs/src/ff.c **** 
1389:Middlewares/Third_Party/FatFs/src/ff.c **** 	s = 0; wc = 1;
1390:Middlewares/Third_Party/FatFs/src/ff.c **** 	do {
1391:Middlewares/Third_Party/FatFs/src/ff.c **** 		uc = LD_WORD(dir + LfnOfs[s]);		/* Pick an LFN character from the entry */
1392:Middlewares/Third_Party/FatFs/src/ff.c **** 		if (wc) {	/* Last character has not been processed */
1393:Middlewares/Third_Party/FatFs/src/ff.c **** 			if (i >= _MAX_LFN) return 0;	/* Buffer overflow? */
1394:Middlewares/Third_Party/FatFs/src/ff.c **** 			lfnbuf[i++] = wc = uc;			/* Store it */
1395:Middlewares/Third_Party/FatFs/src/ff.c **** 		} else {
1396:Middlewares/Third_Party/FatFs/src/ff.c **** 			if (uc != 0xFFFF) return 0;		/* Check filler */
1397:Middlewares/Third_Party/FatFs/src/ff.c **** 		}
1398:Middlewares/Third_Party/FatFs/src/ff.c **** 	} while (++s < 13);						/* Read all character in the entry */
1399:Middlewares/Third_Party/FatFs/src/ff.c **** 
1400:Middlewares/Third_Party/FatFs/src/ff.c **** 	if (dir[LDIR_Ord] & LLEF) {				/* Put terminator if it is the last LFN part */
1401:Middlewares/Third_Party/FatFs/src/ff.c **** 		if (i >= _MAX_LFN) return 0;		/* Buffer overflow? */
1402:Middlewares/Third_Party/FatFs/src/ff.c **** 		lfnbuf[i] = 0;
1403:Middlewares/Third_Party/FatFs/src/ff.c **** 	}
1404:Middlewares/Third_Party/FatFs/src/ff.c **** 
1405:Middlewares/Third_Party/FatFs/src/ff.c **** 	return 1;
1406:Middlewares/Third_Party/FatFs/src/ff.c **** }
1407:Middlewares/Third_Party/FatFs/src/ff.c **** 
1408:Middlewares/Third_Party/FatFs/src/ff.c **** 
1409:Middlewares/Third_Party/FatFs/src/ff.c **** #if !_FS_READONLY
1410:Middlewares/Third_Party/FatFs/src/ff.c **** static
1411:Middlewares/Third_Party/FatFs/src/ff.c **** void fit_lfn (
1412:Middlewares/Third_Party/FatFs/src/ff.c **** 	const WCHAR* lfnbuf,	/* Pointer to the LFN buffer */
1413:Middlewares/Third_Party/FatFs/src/ff.c **** 	BYTE* dir,				/* Pointer to the directory entry */
1414:Middlewares/Third_Party/FatFs/src/ff.c **** 	BYTE ord,				/* LFN order (1-20) */
1415:Middlewares/Third_Party/FatFs/src/ff.c **** 	BYTE sum				/* SFN sum */
1416:Middlewares/Third_Party/FatFs/src/ff.c **** )
1417:Middlewares/Third_Party/FatFs/src/ff.c **** {
1418:Middlewares/Third_Party/FatFs/src/ff.c **** 	UINT i, s;
1419:Middlewares/Third_Party/FatFs/src/ff.c **** 	WCHAR wc;
1420:Middlewares/Third_Party/FatFs/src/ff.c **** 
1421:Middlewares/Third_Party/FatFs/src/ff.c **** 
1422:Middlewares/Third_Party/FatFs/src/ff.c **** 	dir[LDIR_Chksum] = sum;			/* Set check sum */
1423:Middlewares/Third_Party/FatFs/src/ff.c **** 	dir[LDIR_Attr] = AM_LFN;		/* Set attribute. LFN entry */
1424:Middlewares/Third_Party/FatFs/src/ff.c **** 	dir[LDIR_Type] = 0;
1425:Middlewares/Third_Party/FatFs/src/ff.c **** 	ST_WORD(dir + LDIR_FstClusLO, 0);
1426:Middlewares/Third_Party/FatFs/src/ff.c **** 
ARM GAS  /tmp/ccktbAOa.s 			page 36


1427:Middlewares/Third_Party/FatFs/src/ff.c **** 	i = (ord - 1) * 13;				/* Get offset in the LFN buffer */
1428:Middlewares/Third_Party/FatFs/src/ff.c **** 	s = wc = 0;
1429:Middlewares/Third_Party/FatFs/src/ff.c **** 	do {
1430:Middlewares/Third_Party/FatFs/src/ff.c **** 		if (wc != 0xFFFF) wc = lfnbuf[i++];	/* Get an effective character */
1431:Middlewares/Third_Party/FatFs/src/ff.c **** 		ST_WORD(dir+LfnOfs[s], wc);	/* Put it */
1432:Middlewares/Third_Party/FatFs/src/ff.c **** 		if (!wc) wc = 0xFFFF;		/* Padding characters following last character */
1433:Middlewares/Third_Party/FatFs/src/ff.c **** 	} while (++s < 13);
1434:Middlewares/Third_Party/FatFs/src/ff.c **** 	if (wc == 0xFFFF || !lfnbuf[i]) ord |= LLEF;	/* Bottom LFN part is the start of LFN sequence */
1435:Middlewares/Third_Party/FatFs/src/ff.c **** 	dir[LDIR_Ord] = ord;			/* Set the LFN order */
1436:Middlewares/Third_Party/FatFs/src/ff.c **** }
1437:Middlewares/Third_Party/FatFs/src/ff.c **** 
1438:Middlewares/Third_Party/FatFs/src/ff.c **** #endif
1439:Middlewares/Third_Party/FatFs/src/ff.c **** #endif
1440:Middlewares/Third_Party/FatFs/src/ff.c **** 
1441:Middlewares/Third_Party/FatFs/src/ff.c **** 
1442:Middlewares/Third_Party/FatFs/src/ff.c **** 
1443:Middlewares/Third_Party/FatFs/src/ff.c **** 
1444:Middlewares/Third_Party/FatFs/src/ff.c **** /*-----------------------------------------------------------------------*/
1445:Middlewares/Third_Party/FatFs/src/ff.c **** /* Create numbered name                                                  */
1446:Middlewares/Third_Party/FatFs/src/ff.c **** /*-----------------------------------------------------------------------*/
1447:Middlewares/Third_Party/FatFs/src/ff.c **** #if _USE_LFN
1448:Middlewares/Third_Party/FatFs/src/ff.c **** static
1449:Middlewares/Third_Party/FatFs/src/ff.c **** void gen_numname (
1450:Middlewares/Third_Party/FatFs/src/ff.c **** 	BYTE* dst,			/* Pointer to the buffer to store numbered SFN */
1451:Middlewares/Third_Party/FatFs/src/ff.c **** 	const BYTE* src,	/* Pointer to SFN */
1452:Middlewares/Third_Party/FatFs/src/ff.c **** 	const WCHAR* lfn,	/* Pointer to LFN */
1453:Middlewares/Third_Party/FatFs/src/ff.c **** 	UINT seq			/* Sequence number */
1454:Middlewares/Third_Party/FatFs/src/ff.c **** )
1455:Middlewares/Third_Party/FatFs/src/ff.c **** {
1456:Middlewares/Third_Party/FatFs/src/ff.c **** 	BYTE ns[8], c;
1457:Middlewares/Third_Party/FatFs/src/ff.c **** 	UINT i, j;
1458:Middlewares/Third_Party/FatFs/src/ff.c **** 	WCHAR wc;
1459:Middlewares/Third_Party/FatFs/src/ff.c **** 	DWORD sr;
1460:Middlewares/Third_Party/FatFs/src/ff.c **** 
1461:Middlewares/Third_Party/FatFs/src/ff.c **** 
1462:Middlewares/Third_Party/FatFs/src/ff.c **** 	mem_cpy(dst, src, 11);
1463:Middlewares/Third_Party/FatFs/src/ff.c **** 
1464:Middlewares/Third_Party/FatFs/src/ff.c **** 	if (seq > 5) {	/* On many collisions, generate a hash number instead of sequential number */
1465:Middlewares/Third_Party/FatFs/src/ff.c **** 		sr = seq;
1466:Middlewares/Third_Party/FatFs/src/ff.c **** 		while (*lfn) {	/* Create a CRC */
1467:Middlewares/Third_Party/FatFs/src/ff.c **** 			wc = *lfn++;
1468:Middlewares/Third_Party/FatFs/src/ff.c **** 			for (i = 0; i < 16; i++) {
1469:Middlewares/Third_Party/FatFs/src/ff.c **** 				sr = (sr << 1) + (wc & 1);
1470:Middlewares/Third_Party/FatFs/src/ff.c **** 				wc >>= 1;
1471:Middlewares/Third_Party/FatFs/src/ff.c **** 				if (sr & 0x10000) sr ^= 0x11021;
1472:Middlewares/Third_Party/FatFs/src/ff.c **** 			}
1473:Middlewares/Third_Party/FatFs/src/ff.c **** 		}
1474:Middlewares/Third_Party/FatFs/src/ff.c **** 		seq = (UINT)sr;
1475:Middlewares/Third_Party/FatFs/src/ff.c **** 	}
1476:Middlewares/Third_Party/FatFs/src/ff.c **** 
1477:Middlewares/Third_Party/FatFs/src/ff.c **** 	/* itoa (hexdecimal) */
1478:Middlewares/Third_Party/FatFs/src/ff.c **** 	i = 7;
1479:Middlewares/Third_Party/FatFs/src/ff.c **** 	do {
1480:Middlewares/Third_Party/FatFs/src/ff.c **** 		c = (seq % 16) + '0';
1481:Middlewares/Third_Party/FatFs/src/ff.c **** 		if (c > '9') c += 7;
1482:Middlewares/Third_Party/FatFs/src/ff.c **** 		ns[i--] = c;
1483:Middlewares/Third_Party/FatFs/src/ff.c **** 		seq /= 16;
ARM GAS  /tmp/ccktbAOa.s 			page 37


1484:Middlewares/Third_Party/FatFs/src/ff.c **** 	} while (seq);
1485:Middlewares/Third_Party/FatFs/src/ff.c **** 	ns[i] = '~';
1486:Middlewares/Third_Party/FatFs/src/ff.c **** 
1487:Middlewares/Third_Party/FatFs/src/ff.c **** 	/* Append the number */
1488:Middlewares/Third_Party/FatFs/src/ff.c **** 	for (j = 0; j < i && dst[j] != ' '; j++) {
1489:Middlewares/Third_Party/FatFs/src/ff.c **** 		if (IsDBCS1(dst[j])) {
1490:Middlewares/Third_Party/FatFs/src/ff.c **** 			if (j == i - 1) break;
1491:Middlewares/Third_Party/FatFs/src/ff.c **** 			j++;
1492:Middlewares/Third_Party/FatFs/src/ff.c **** 		}
1493:Middlewares/Third_Party/FatFs/src/ff.c **** 	}
1494:Middlewares/Third_Party/FatFs/src/ff.c **** 	do {
1495:Middlewares/Third_Party/FatFs/src/ff.c **** 		dst[j++] = (i < 8) ? ns[i++] : ' ';
1496:Middlewares/Third_Party/FatFs/src/ff.c **** 	} while (j < 8);
1497:Middlewares/Third_Party/FatFs/src/ff.c **** }
1498:Middlewares/Third_Party/FatFs/src/ff.c **** #endif
1499:Middlewares/Third_Party/FatFs/src/ff.c **** 
1500:Middlewares/Third_Party/FatFs/src/ff.c **** 
1501:Middlewares/Third_Party/FatFs/src/ff.c **** 
1502:Middlewares/Third_Party/FatFs/src/ff.c **** 
1503:Middlewares/Third_Party/FatFs/src/ff.c **** /*-----------------------------------------------------------------------*/
1504:Middlewares/Third_Party/FatFs/src/ff.c **** /* Calculate sum of an SFN                                               */
1505:Middlewares/Third_Party/FatFs/src/ff.c **** /*-----------------------------------------------------------------------*/
1506:Middlewares/Third_Party/FatFs/src/ff.c **** #if _USE_LFN
1507:Middlewares/Third_Party/FatFs/src/ff.c **** static
1508:Middlewares/Third_Party/FatFs/src/ff.c **** BYTE sum_sfn (
1509:Middlewares/Third_Party/FatFs/src/ff.c **** 	const BYTE* dir		/* Pointer to the SFN entry */
1510:Middlewares/Third_Party/FatFs/src/ff.c **** )
1511:Middlewares/Third_Party/FatFs/src/ff.c **** {
1512:Middlewares/Third_Party/FatFs/src/ff.c **** 	BYTE sum = 0;
1513:Middlewares/Third_Party/FatFs/src/ff.c **** 	UINT n = 11;
1514:Middlewares/Third_Party/FatFs/src/ff.c **** 
1515:Middlewares/Third_Party/FatFs/src/ff.c **** 	do sum = (sum >> 1) + (sum << 7) + *dir++; while (--n);
1516:Middlewares/Third_Party/FatFs/src/ff.c **** 	return sum;
1517:Middlewares/Third_Party/FatFs/src/ff.c **** }
1518:Middlewares/Third_Party/FatFs/src/ff.c **** #endif
1519:Middlewares/Third_Party/FatFs/src/ff.c **** 
1520:Middlewares/Third_Party/FatFs/src/ff.c **** 
1521:Middlewares/Third_Party/FatFs/src/ff.c **** 
1522:Middlewares/Third_Party/FatFs/src/ff.c **** 
1523:Middlewares/Third_Party/FatFs/src/ff.c **** /*-----------------------------------------------------------------------*/
1524:Middlewares/Third_Party/FatFs/src/ff.c **** /* Directory handling - Find an object in the directory                  */
1525:Middlewares/Third_Party/FatFs/src/ff.c **** /*-----------------------------------------------------------------------*/
1526:Middlewares/Third_Party/FatFs/src/ff.c **** 
1527:Middlewares/Third_Party/FatFs/src/ff.c **** static
1528:Middlewares/Third_Party/FatFs/src/ff.c **** FRESULT dir_find (
1529:Middlewares/Third_Party/FatFs/src/ff.c **** 	DIR* dp			/* Pointer to the directory object linked to the file name */
1530:Middlewares/Third_Party/FatFs/src/ff.c **** )
1531:Middlewares/Third_Party/FatFs/src/ff.c **** {
1532:Middlewares/Third_Party/FatFs/src/ff.c **** 	FRESULT res;
1533:Middlewares/Third_Party/FatFs/src/ff.c **** 	BYTE c, *dir;
1534:Middlewares/Third_Party/FatFs/src/ff.c **** #if _USE_LFN
1535:Middlewares/Third_Party/FatFs/src/ff.c **** 	BYTE a, ord, sum;
1536:Middlewares/Third_Party/FatFs/src/ff.c **** #endif
1537:Middlewares/Third_Party/FatFs/src/ff.c **** 
1538:Middlewares/Third_Party/FatFs/src/ff.c **** 	res = dir_sdi(dp, 0);			/* Rewind directory object */
1539:Middlewares/Third_Party/FatFs/src/ff.c **** 	if (res != FR_OK) return res;
1540:Middlewares/Third_Party/FatFs/src/ff.c **** 
ARM GAS  /tmp/ccktbAOa.s 			page 38


1541:Middlewares/Third_Party/FatFs/src/ff.c **** #if _USE_LFN
1542:Middlewares/Third_Party/FatFs/src/ff.c **** 	ord = sum = 0xFF; dp->lfn_idx = 0xFFFF;	/* Reset LFN sequence */
1543:Middlewares/Third_Party/FatFs/src/ff.c **** #endif
1544:Middlewares/Third_Party/FatFs/src/ff.c **** 	do {
1545:Middlewares/Third_Party/FatFs/src/ff.c **** 		res = move_window(dp->fs, dp->sect);
1546:Middlewares/Third_Party/FatFs/src/ff.c **** 		if (res != FR_OK) break;
1547:Middlewares/Third_Party/FatFs/src/ff.c **** 		dir = dp->dir;					/* Ptr to the directory entry of current index */
1548:Middlewares/Third_Party/FatFs/src/ff.c **** 		c = dir[DIR_Name];
1549:Middlewares/Third_Party/FatFs/src/ff.c **** 		if (c == 0) { res = FR_NO_FILE; break; }	/* Reached to end of table */
1550:Middlewares/Third_Party/FatFs/src/ff.c **** #if _USE_LFN	/* LFN configuration */
1551:Middlewares/Third_Party/FatFs/src/ff.c **** 		a = dir[DIR_Attr] & AM_MASK;
1552:Middlewares/Third_Party/FatFs/src/ff.c **** 		if (c == DDEM || ((a & AM_VOL) && a != AM_LFN)) {	/* An entry without valid data */
1553:Middlewares/Third_Party/FatFs/src/ff.c **** 			ord = 0xFF; dp->lfn_idx = 0xFFFF;	/* Reset LFN sequence */
1554:Middlewares/Third_Party/FatFs/src/ff.c **** 		} else {
1555:Middlewares/Third_Party/FatFs/src/ff.c **** 			if (a == AM_LFN) {			/* An LFN entry is found */
1556:Middlewares/Third_Party/FatFs/src/ff.c **** 				if (dp->lfn) {
1557:Middlewares/Third_Party/FatFs/src/ff.c **** 					if (c & LLEF) {		/* Is it start of LFN sequence? */
1558:Middlewares/Third_Party/FatFs/src/ff.c **** 						sum = dir[LDIR_Chksum];
1559:Middlewares/Third_Party/FatFs/src/ff.c **** 						c &= ~LLEF; ord = c;	/* LFN start order */
1560:Middlewares/Third_Party/FatFs/src/ff.c **** 						dp->lfn_idx = dp->index;	/* Start index of LFN */
1561:Middlewares/Third_Party/FatFs/src/ff.c **** 					}
1562:Middlewares/Third_Party/FatFs/src/ff.c **** 					/* Check validity of the LFN entry and compare it with given name */
1563:Middlewares/Third_Party/FatFs/src/ff.c **** 					ord = (c == ord && sum == dir[LDIR_Chksum] && cmp_lfn(dp->lfn, dir)) ? ord - 1 : 0xFF;
1564:Middlewares/Third_Party/FatFs/src/ff.c **** 				}
1565:Middlewares/Third_Party/FatFs/src/ff.c **** 			} else {					/* An SFN entry is found */
1566:Middlewares/Third_Party/FatFs/src/ff.c **** 				if (!ord && sum == sum_sfn(dir)) break;	/* LFN matched? */
1567:Middlewares/Third_Party/FatFs/src/ff.c **** 				if (!(dp->fn[NSFLAG] & NS_LOSS) && !mem_cmp(dir, dp->fn, 11)) break;	/* SFN matched? */
1568:Middlewares/Third_Party/FatFs/src/ff.c **** 				ord = 0xFF; dp->lfn_idx = 0xFFFF;	/* Reset LFN sequence */
1569:Middlewares/Third_Party/FatFs/src/ff.c **** 			}
1570:Middlewares/Third_Party/FatFs/src/ff.c **** 		}
1571:Middlewares/Third_Party/FatFs/src/ff.c **** #else		/* Non LFN configuration */
1572:Middlewares/Third_Party/FatFs/src/ff.c **** 		if (!(dir[DIR_Attr] & AM_VOL) && !mem_cmp(dir, dp->fn, 11)) /* Is it a valid entry? */
1573:Middlewares/Third_Party/FatFs/src/ff.c **** 			break;
1574:Middlewares/Third_Party/FatFs/src/ff.c **** #endif
1575:Middlewares/Third_Party/FatFs/src/ff.c **** 		res = dir_next(dp, 0);		/* Next entry */
1576:Middlewares/Third_Party/FatFs/src/ff.c **** 	} while (res == FR_OK);
1577:Middlewares/Third_Party/FatFs/src/ff.c **** 
1578:Middlewares/Third_Party/FatFs/src/ff.c **** 	return res;
1579:Middlewares/Third_Party/FatFs/src/ff.c **** }
1580:Middlewares/Third_Party/FatFs/src/ff.c **** 
1581:Middlewares/Third_Party/FatFs/src/ff.c **** 
1582:Middlewares/Third_Party/FatFs/src/ff.c **** 
1583:Middlewares/Third_Party/FatFs/src/ff.c **** 
1584:Middlewares/Third_Party/FatFs/src/ff.c **** /*-----------------------------------------------------------------------*/
1585:Middlewares/Third_Party/FatFs/src/ff.c **** /* Read an object from the directory                                     */
1586:Middlewares/Third_Party/FatFs/src/ff.c **** /*-----------------------------------------------------------------------*/
1587:Middlewares/Third_Party/FatFs/src/ff.c **** #if _FS_MINIMIZE <= 1 || _USE_LABEL || _FS_RPATH >= 2
1588:Middlewares/Third_Party/FatFs/src/ff.c **** static
1589:Middlewares/Third_Party/FatFs/src/ff.c **** FRESULT dir_read (
1590:Middlewares/Third_Party/FatFs/src/ff.c **** 	DIR* dp,		/* Pointer to the directory object */
1591:Middlewares/Third_Party/FatFs/src/ff.c **** 	int vol			/* Filtered by 0:file/directory or 1:volume label */
1592:Middlewares/Third_Party/FatFs/src/ff.c **** )
1593:Middlewares/Third_Party/FatFs/src/ff.c **** {
1594:Middlewares/Third_Party/FatFs/src/ff.c **** 	FRESULT res;
1595:Middlewares/Third_Party/FatFs/src/ff.c **** 	BYTE a, c, *dir;
1596:Middlewares/Third_Party/FatFs/src/ff.c **** #if _USE_LFN
1597:Middlewares/Third_Party/FatFs/src/ff.c **** 	BYTE ord = 0xFF, sum = 0xFF;
ARM GAS  /tmp/ccktbAOa.s 			page 39


1598:Middlewares/Third_Party/FatFs/src/ff.c **** #endif
1599:Middlewares/Third_Party/FatFs/src/ff.c **** 
1600:Middlewares/Third_Party/FatFs/src/ff.c **** 	res = FR_NO_FILE;
1601:Middlewares/Third_Party/FatFs/src/ff.c **** 	while (dp->sect) {
1602:Middlewares/Third_Party/FatFs/src/ff.c **** 		res = move_window(dp->fs, dp->sect);
1603:Middlewares/Third_Party/FatFs/src/ff.c **** 		if (res != FR_OK) break;
1604:Middlewares/Third_Party/FatFs/src/ff.c **** 		dir = dp->dir;					/* Ptr to the directory entry of current index */
1605:Middlewares/Third_Party/FatFs/src/ff.c **** 		c = dir[DIR_Name];
1606:Middlewares/Third_Party/FatFs/src/ff.c **** 		if (c == 0) { res = FR_NO_FILE; break; }	/* Reached to end of table */
1607:Middlewares/Third_Party/FatFs/src/ff.c **** 		a = dir[DIR_Attr] & AM_MASK;
1608:Middlewares/Third_Party/FatFs/src/ff.c **** #if _USE_LFN	/* LFN configuration */
1609:Middlewares/Third_Party/FatFs/src/ff.c **** 		if (c == DDEM || (!_FS_RPATH && c == '.') || (int)((a & ~AM_ARC) == AM_VOL) != vol) {	/* An entry
1610:Middlewares/Third_Party/FatFs/src/ff.c **** 			ord = 0xFF;
1611:Middlewares/Third_Party/FatFs/src/ff.c **** 		} else {
1612:Middlewares/Third_Party/FatFs/src/ff.c **** 			if (a == AM_LFN) {			/* An LFN entry is found */
1613:Middlewares/Third_Party/FatFs/src/ff.c **** 				if (c & LLEF) {			/* Is it start of LFN sequence? */
1614:Middlewares/Third_Party/FatFs/src/ff.c **** 					sum = dir[LDIR_Chksum];
1615:Middlewares/Third_Party/FatFs/src/ff.c **** 					c &= ~LLEF; ord = c;
1616:Middlewares/Third_Party/FatFs/src/ff.c **** 					dp->lfn_idx = dp->index;
1617:Middlewares/Third_Party/FatFs/src/ff.c **** 				}
1618:Middlewares/Third_Party/FatFs/src/ff.c **** 				/* Check LFN validity and capture it */
1619:Middlewares/Third_Party/FatFs/src/ff.c **** 				ord = (c == ord && sum == dir[LDIR_Chksum] && pick_lfn(dp->lfn, dir)) ? ord - 1 : 0xFF;
1620:Middlewares/Third_Party/FatFs/src/ff.c **** 			} else {					/* An SFN entry is found */
1621:Middlewares/Third_Party/FatFs/src/ff.c **** 				if (ord || sum != sum_sfn(dir))	/* Is there a valid LFN? */
1622:Middlewares/Third_Party/FatFs/src/ff.c **** 					dp->lfn_idx = 0xFFFF;		/* It has no LFN. */
1623:Middlewares/Third_Party/FatFs/src/ff.c **** 				break;
1624:Middlewares/Third_Party/FatFs/src/ff.c **** 			}
1625:Middlewares/Third_Party/FatFs/src/ff.c **** 		}
1626:Middlewares/Third_Party/FatFs/src/ff.c **** #else		/* Non LFN configuration */
1627:Middlewares/Third_Party/FatFs/src/ff.c **** 		if (c != DDEM && (_FS_RPATH || c != '.') && a != AM_LFN && (int)((a & ~AM_ARC) == AM_VOL) == vol)
1628:Middlewares/Third_Party/FatFs/src/ff.c **** 			break;
1629:Middlewares/Third_Party/FatFs/src/ff.c **** #endif
1630:Middlewares/Third_Party/FatFs/src/ff.c **** 		res = dir_next(dp, 0);				/* Next entry */
1631:Middlewares/Third_Party/FatFs/src/ff.c **** 		if (res != FR_OK) break;
1632:Middlewares/Third_Party/FatFs/src/ff.c **** 	}
1633:Middlewares/Third_Party/FatFs/src/ff.c **** 
1634:Middlewares/Third_Party/FatFs/src/ff.c **** 	if (res != FR_OK) dp->sect = 0;
1635:Middlewares/Third_Party/FatFs/src/ff.c **** 
1636:Middlewares/Third_Party/FatFs/src/ff.c **** 	return res;
1637:Middlewares/Third_Party/FatFs/src/ff.c **** }
1638:Middlewares/Third_Party/FatFs/src/ff.c **** #endif	/* _FS_MINIMIZE <= 1 || _USE_LABEL || _FS_RPATH >= 2 */
1639:Middlewares/Third_Party/FatFs/src/ff.c **** 
1640:Middlewares/Third_Party/FatFs/src/ff.c **** 
1641:Middlewares/Third_Party/FatFs/src/ff.c **** 
1642:Middlewares/Third_Party/FatFs/src/ff.c **** 
1643:Middlewares/Third_Party/FatFs/src/ff.c **** /*-----------------------------------------------------------------------*/
1644:Middlewares/Third_Party/FatFs/src/ff.c **** /* Register an object to the directory                                   */
1645:Middlewares/Third_Party/FatFs/src/ff.c **** /*-----------------------------------------------------------------------*/
1646:Middlewares/Third_Party/FatFs/src/ff.c **** #if !_FS_READONLY
1647:Middlewares/Third_Party/FatFs/src/ff.c **** static
1648:Middlewares/Third_Party/FatFs/src/ff.c **** FRESULT dir_register (	/* FR_OK:Successful, FR_DENIED:No free entry or too many SFN collision, FR_D
1649:Middlewares/Third_Party/FatFs/src/ff.c **** 	DIR* dp				/* Target directory with object name to be created */
1650:Middlewares/Third_Party/FatFs/src/ff.c **** )
1651:Middlewares/Third_Party/FatFs/src/ff.c **** {
1652:Middlewares/Third_Party/FatFs/src/ff.c **** 	FRESULT res;
1653:Middlewares/Third_Party/FatFs/src/ff.c **** #if _USE_LFN	/* LFN configuration */
1654:Middlewares/Third_Party/FatFs/src/ff.c **** 	UINT n, nent;
ARM GAS  /tmp/ccktbAOa.s 			page 40


1655:Middlewares/Third_Party/FatFs/src/ff.c **** 	BYTE sn[12], *fn, sum;
1656:Middlewares/Third_Party/FatFs/src/ff.c **** 	WCHAR *lfn;
1657:Middlewares/Third_Party/FatFs/src/ff.c **** 
1658:Middlewares/Third_Party/FatFs/src/ff.c **** 
1659:Middlewares/Third_Party/FatFs/src/ff.c **** 	fn = dp->fn; lfn = dp->lfn;
1660:Middlewares/Third_Party/FatFs/src/ff.c **** 	mem_cpy(sn, fn, 12);
1661:Middlewares/Third_Party/FatFs/src/ff.c **** 
1662:Middlewares/Third_Party/FatFs/src/ff.c **** 	if (_FS_RPATH && (sn[NSFLAG] & NS_DOT))		/* Cannot create dot entry */
1663:Middlewares/Third_Party/FatFs/src/ff.c **** 		return FR_INVALID_NAME;
1664:Middlewares/Third_Party/FatFs/src/ff.c **** 
1665:Middlewares/Third_Party/FatFs/src/ff.c **** 	if (sn[NSFLAG] & NS_LOSS) {			/* When LFN is out of 8.3 format, generate a numbered name */
1666:Middlewares/Third_Party/FatFs/src/ff.c **** 		fn[NSFLAG] = 0; dp->lfn = 0;			/* Find only SFN */
1667:Middlewares/Third_Party/FatFs/src/ff.c **** 		for (n = 1; n < 100; n++) {
1668:Middlewares/Third_Party/FatFs/src/ff.c **** 			gen_numname(fn, sn, lfn, n);	/* Generate a numbered name */
1669:Middlewares/Third_Party/FatFs/src/ff.c **** 			res = dir_find(dp);				/* Check if the name collides with existing SFN */
1670:Middlewares/Third_Party/FatFs/src/ff.c **** 			if (res != FR_OK) break;
1671:Middlewares/Third_Party/FatFs/src/ff.c **** 		}
1672:Middlewares/Third_Party/FatFs/src/ff.c **** 		if (n == 100) return FR_DENIED;		/* Abort if too many collisions */
1673:Middlewares/Third_Party/FatFs/src/ff.c **** 		if (res != FR_NO_FILE) return res;	/* Abort if the result is other than 'not collided' */
1674:Middlewares/Third_Party/FatFs/src/ff.c **** 		fn[NSFLAG] = sn[NSFLAG]; dp->lfn = lfn;
1675:Middlewares/Third_Party/FatFs/src/ff.c **** 	}
1676:Middlewares/Third_Party/FatFs/src/ff.c **** 
1677:Middlewares/Third_Party/FatFs/src/ff.c **** 	if (sn[NSFLAG] & NS_LFN) {			/* When LFN is to be created, allocate entries for an SFN + LFNs. */
1678:Middlewares/Third_Party/FatFs/src/ff.c **** 		for (n = 0; lfn[n]; n++) ;
1679:Middlewares/Third_Party/FatFs/src/ff.c **** 		nent = (n + 25) / 13;
1680:Middlewares/Third_Party/FatFs/src/ff.c **** 	} else {						/* Otherwise allocate an entry for an SFN  */
1681:Middlewares/Third_Party/FatFs/src/ff.c **** 		nent = 1;
1682:Middlewares/Third_Party/FatFs/src/ff.c **** 	}
1683:Middlewares/Third_Party/FatFs/src/ff.c **** 	res = dir_alloc(dp, nent);		/* Allocate entries */
1684:Middlewares/Third_Party/FatFs/src/ff.c **** 
1685:Middlewares/Third_Party/FatFs/src/ff.c **** 	if (res == FR_OK && --nent) {	/* Set LFN entry if needed */
1686:Middlewares/Third_Party/FatFs/src/ff.c **** 		res = dir_sdi(dp, dp->index - nent);
1687:Middlewares/Third_Party/FatFs/src/ff.c **** 		if (res == FR_OK) {
1688:Middlewares/Third_Party/FatFs/src/ff.c **** 			sum = sum_sfn(dp->fn);	/* Sum value of the SFN tied to the LFN */
1689:Middlewares/Third_Party/FatFs/src/ff.c **** 			do {					/* Store LFN entries in bottom first */
1690:Middlewares/Third_Party/FatFs/src/ff.c **** 				res = move_window(dp->fs, dp->sect);
1691:Middlewares/Third_Party/FatFs/src/ff.c **** 				if (res != FR_OK) break;
1692:Middlewares/Third_Party/FatFs/src/ff.c **** 				fit_lfn(dp->lfn, dp->dir, (BYTE)nent, sum);
1693:Middlewares/Third_Party/FatFs/src/ff.c **** 				dp->fs->wflag = 1;
1694:Middlewares/Third_Party/FatFs/src/ff.c **** 				res = dir_next(dp, 0);	/* Next entry */
1695:Middlewares/Third_Party/FatFs/src/ff.c **** 			} while (res == FR_OK && --nent);
1696:Middlewares/Third_Party/FatFs/src/ff.c **** 		}
1697:Middlewares/Third_Party/FatFs/src/ff.c **** 	}
1698:Middlewares/Third_Party/FatFs/src/ff.c **** #else	/* Non LFN configuration */
1699:Middlewares/Third_Party/FatFs/src/ff.c **** 	res = dir_alloc(dp, 1);		/* Allocate an entry for SFN */
1700:Middlewares/Third_Party/FatFs/src/ff.c **** #endif
1701:Middlewares/Third_Party/FatFs/src/ff.c **** 
1702:Middlewares/Third_Party/FatFs/src/ff.c **** 	if (res == FR_OK) {				/* Set SFN entry */
1703:Middlewares/Third_Party/FatFs/src/ff.c **** 		res = move_window(dp->fs, dp->sect);
1704:Middlewares/Third_Party/FatFs/src/ff.c **** 		if (res == FR_OK) {
1705:Middlewares/Third_Party/FatFs/src/ff.c **** 			mem_set(dp->dir, 0, SZ_DIRE);	/* Clean the entry */
1706:Middlewares/Third_Party/FatFs/src/ff.c **** 			mem_cpy(dp->dir, dp->fn, 11);	/* Put SFN */
1707:Middlewares/Third_Party/FatFs/src/ff.c **** #if _USE_LFN
1708:Middlewares/Third_Party/FatFs/src/ff.c **** 			dp->dir[DIR_NTres] = dp->fn[NSFLAG] & (NS_BODY | NS_EXT);	/* Put NT flag */
1709:Middlewares/Third_Party/FatFs/src/ff.c **** #endif
1710:Middlewares/Third_Party/FatFs/src/ff.c **** 			dp->fs->wflag = 1;
1711:Middlewares/Third_Party/FatFs/src/ff.c **** 		}
ARM GAS  /tmp/ccktbAOa.s 			page 41


1712:Middlewares/Third_Party/FatFs/src/ff.c **** 	}
1713:Middlewares/Third_Party/FatFs/src/ff.c **** 
1714:Middlewares/Third_Party/FatFs/src/ff.c **** 	return res;
1715:Middlewares/Third_Party/FatFs/src/ff.c **** }
1716:Middlewares/Third_Party/FatFs/src/ff.c **** #endif /* !_FS_READONLY */
1717:Middlewares/Third_Party/FatFs/src/ff.c **** 
1718:Middlewares/Third_Party/FatFs/src/ff.c **** 
1719:Middlewares/Third_Party/FatFs/src/ff.c **** 
1720:Middlewares/Third_Party/FatFs/src/ff.c **** 
1721:Middlewares/Third_Party/FatFs/src/ff.c **** /*-----------------------------------------------------------------------*/
1722:Middlewares/Third_Party/FatFs/src/ff.c **** /* Remove an object from the directory                                   */
1723:Middlewares/Third_Party/FatFs/src/ff.c **** /*-----------------------------------------------------------------------*/
1724:Middlewares/Third_Party/FatFs/src/ff.c **** #if !_FS_READONLY && !_FS_MINIMIZE
1725:Middlewares/Third_Party/FatFs/src/ff.c **** static
1726:Middlewares/Third_Party/FatFs/src/ff.c **** FRESULT dir_remove (	/* FR_OK: Successful, FR_DISK_ERR: A disk error */
1727:Middlewares/Third_Party/FatFs/src/ff.c **** 	DIR* dp				/* Directory object pointing the entry to be removed */
1728:Middlewares/Third_Party/FatFs/src/ff.c **** )
1729:Middlewares/Third_Party/FatFs/src/ff.c **** {
1730:Middlewares/Third_Party/FatFs/src/ff.c **** 	FRESULT res;
1731:Middlewares/Third_Party/FatFs/src/ff.c **** #if _USE_LFN	/* LFN configuration */
1732:Middlewares/Third_Party/FatFs/src/ff.c **** 	UINT i;
1733:Middlewares/Third_Party/FatFs/src/ff.c **** 
1734:Middlewares/Third_Party/FatFs/src/ff.c **** 	i = dp->index;	/* SFN index */
1735:Middlewares/Third_Party/FatFs/src/ff.c **** 	res = dir_sdi(dp, (dp->lfn_idx == 0xFFFF) ? i : dp->lfn_idx);	/* Goto the SFN or top of the LFN en
1736:Middlewares/Third_Party/FatFs/src/ff.c **** 	if (res == FR_OK) {
1737:Middlewares/Third_Party/FatFs/src/ff.c **** 		do {
1738:Middlewares/Third_Party/FatFs/src/ff.c **** 			res = move_window(dp->fs, dp->sect);
1739:Middlewares/Third_Party/FatFs/src/ff.c **** 			if (res != FR_OK) break;
1740:Middlewares/Third_Party/FatFs/src/ff.c **** 			mem_set(dp->dir, 0, SZ_DIRE);	/* Clear and mark the entry "deleted" */
1741:Middlewares/Third_Party/FatFs/src/ff.c **** 			*dp->dir = DDEM;
1742:Middlewares/Third_Party/FatFs/src/ff.c **** 			dp->fs->wflag = 1;
1743:Middlewares/Third_Party/FatFs/src/ff.c **** 			if (dp->index >= i) break;	/* When reached SFN, all entries of the object has been deleted. */
1744:Middlewares/Third_Party/FatFs/src/ff.c **** 			res = dir_next(dp, 0);		/* Next entry */
1745:Middlewares/Third_Party/FatFs/src/ff.c **** 		} while (res == FR_OK);
1746:Middlewares/Third_Party/FatFs/src/ff.c **** 		if (res == FR_NO_FILE) res = FR_INT_ERR;
1747:Middlewares/Third_Party/FatFs/src/ff.c **** 	}
1748:Middlewares/Third_Party/FatFs/src/ff.c **** 
1749:Middlewares/Third_Party/FatFs/src/ff.c **** #else			/* Non LFN configuration */
1750:Middlewares/Third_Party/FatFs/src/ff.c **** 	res = dir_sdi(dp, dp->index);
1751:Middlewares/Third_Party/FatFs/src/ff.c **** 	if (res == FR_OK) {
1752:Middlewares/Third_Party/FatFs/src/ff.c **** 		res = move_window(dp->fs, dp->sect);
1753:Middlewares/Third_Party/FatFs/src/ff.c **** 		if (res == FR_OK) {
1754:Middlewares/Third_Party/FatFs/src/ff.c **** 			mem_set(dp->dir, 0, SZ_DIRE);	/* Clear and mark the entry "deleted" */
1755:Middlewares/Third_Party/FatFs/src/ff.c **** 			*dp->dir = DDEM;
1756:Middlewares/Third_Party/FatFs/src/ff.c **** 			dp->fs->wflag = 1;
1757:Middlewares/Third_Party/FatFs/src/ff.c **** 		}
1758:Middlewares/Third_Party/FatFs/src/ff.c **** 	}
1759:Middlewares/Third_Party/FatFs/src/ff.c **** #endif
1760:Middlewares/Third_Party/FatFs/src/ff.c **** 
1761:Middlewares/Third_Party/FatFs/src/ff.c **** 	return res;
1762:Middlewares/Third_Party/FatFs/src/ff.c **** }
1763:Middlewares/Third_Party/FatFs/src/ff.c **** #endif /* !_FS_READONLY */
1764:Middlewares/Third_Party/FatFs/src/ff.c **** 
1765:Middlewares/Third_Party/FatFs/src/ff.c **** 
1766:Middlewares/Third_Party/FatFs/src/ff.c **** 
1767:Middlewares/Third_Party/FatFs/src/ff.c **** 
1768:Middlewares/Third_Party/FatFs/src/ff.c **** /*-----------------------------------------------------------------------*/
ARM GAS  /tmp/ccktbAOa.s 			page 42


1769:Middlewares/Third_Party/FatFs/src/ff.c **** /* Get file information from directory entry                             */
1770:Middlewares/Third_Party/FatFs/src/ff.c **** /*-----------------------------------------------------------------------*/
1771:Middlewares/Third_Party/FatFs/src/ff.c **** #if _FS_MINIMIZE <= 1 || _FS_RPATH >= 2
1772:Middlewares/Third_Party/FatFs/src/ff.c **** static
1773:Middlewares/Third_Party/FatFs/src/ff.c **** void get_fileinfo (		/* No return code */
1774:Middlewares/Third_Party/FatFs/src/ff.c **** 	DIR* dp,			/* Pointer to the directory object */
1775:Middlewares/Third_Party/FatFs/src/ff.c **** 	FILINFO* fno	 	/* Pointer to the file information to be filled */
1776:Middlewares/Third_Party/FatFs/src/ff.c **** )
1777:Middlewares/Third_Party/FatFs/src/ff.c **** {
 549              		.loc 1 1777 0
 550              		.cfi_startproc
 551              		@ args = 0, pretend = 0, frame = 0
 552              		@ frame_needed = 0, uses_anonymous_args = 0
 553              		@ link register save eliminated.
 554              	.LVL71:
 555 0000 70B4     		push	{r4, r5, r6}
 556              	.LCFI4:
 557              		.cfi_def_cfa_offset 12
 558              		.cfi_offset 4, -12
 559              		.cfi_offset 5, -8
 560              		.cfi_offset 6, -4
1778:Middlewares/Third_Party/FatFs/src/ff.c **** 	UINT i;
1779:Middlewares/Third_Party/FatFs/src/ff.c **** 	TCHAR *p, c;
1780:Middlewares/Third_Party/FatFs/src/ff.c **** 	BYTE *dir;
1781:Middlewares/Third_Party/FatFs/src/ff.c **** #if _USE_LFN
1782:Middlewares/Third_Party/FatFs/src/ff.c **** 	WCHAR w, *lfn;
1783:Middlewares/Third_Party/FatFs/src/ff.c **** #endif
1784:Middlewares/Third_Party/FatFs/src/ff.c **** 
1785:Middlewares/Third_Party/FatFs/src/ff.c **** 	p = fno->fname;
 561              		.loc 1 1785 0
 562 0002 01F10904 		add	r4, r1, #9
 563              	.LVL72:
1786:Middlewares/Third_Party/FatFs/src/ff.c **** 	if (dp->sect) {		/* Get SFN */
 564              		.loc 1 1786 0
 565 0006 D0F81032 		ldr	r3, [r0, #528]
 566 000a 6BB3     		cbz	r3, .L69
1787:Middlewares/Third_Party/FatFs/src/ff.c **** 		dir = dp->dir;
 567              		.loc 1 1787 0
 568 000c D0F81452 		ldr	r5, [r0, #532]
 569              	.LVL73:
 570 0010 681E     		subs	r0, r5, #1
 571              	.LVL74:
1788:Middlewares/Third_Party/FatFs/src/ff.c **** 		i = 0;
 572              		.loc 1 1788 0
 573 0012 0022     		movs	r2, #0
1789:Middlewares/Third_Party/FatFs/src/ff.c **** 		while (i < 11) {		/* Copy name body and extension */
1790:Middlewares/Third_Party/FatFs/src/ff.c **** 			c = (TCHAR)dir[i++];
1791:Middlewares/Third_Party/FatFs/src/ff.c **** 			if (c == ' ') continue;				/* Skip padding spaces */
1792:Middlewares/Third_Party/FatFs/src/ff.c **** 			if (c == RDDEM) c = (TCHAR)DDEM;	/* Restore replaced DDEM character */
1793:Middlewares/Third_Party/FatFs/src/ff.c **** 			if (i == 9) *p++ = '.';				/* Insert a . if extension is exist */
 574              		.loc 1 1793 0
 575 0014 2E26     		movs	r6, #46
 576 0016 01E0     		b	.L73
 577              	.LVL75:
 578              	.L70:
1789:Middlewares/Third_Party/FatFs/src/ff.c **** 		while (i < 11) {		/* Copy name body and extension */
 579              		.loc 1 1789 0
ARM GAS  /tmp/ccktbAOa.s 			page 43


 580 0018 0B2A     		cmp	r2, #11
 581 001a 0ED0     		beq	.L76
 582              	.LVL76:
 583              	.L73:
1790:Middlewares/Third_Party/FatFs/src/ff.c **** 			if (c == ' ') continue;				/* Skip padding spaces */
 584              		.loc 1 1790 0
 585 001c 0132     		adds	r2, r2, #1
 586              	.LVL77:
 587 001e 10F8013F 		ldrb	r3, [r0, #1]!	@ zero_extendqisi2
 588              	.LVL78:
1791:Middlewares/Third_Party/FatFs/src/ff.c **** 			if (c == RDDEM) c = (TCHAR)DDEM;	/* Restore replaced DDEM character */
 589              		.loc 1 1791 0
 590 0022 202B     		cmp	r3, #32
 591 0024 F8D0     		beq	.L70
1792:Middlewares/Third_Party/FatFs/src/ff.c **** 			if (i == 9) *p++ = '.';				/* Insert a . if extension is exist */
 592              		.loc 1 1792 0
 593 0026 052B     		cmp	r3, #5
 594 0028 08BF     		it	eq
 595 002a E523     		moveq	r3, #229
 596              	.LVL79:
 597              		.loc 1 1793 0
 598 002c 092A     		cmp	r2, #9
 599              	.LVL80:
 600 002e 04BF     		itt	eq
 601 0030 2670     		strbeq	r6, [r4]
 602 0032 0134     		addeq	r4, r4, #1
 603              	.LVL81:
1794:Middlewares/Third_Party/FatFs/src/ff.c **** #if _USE_LFN
1795:Middlewares/Third_Party/FatFs/src/ff.c **** 			if (IsUpper(c) && (dir[DIR_NTres] & (i >= 9 ? NS_EXT : NS_BODY)))
1796:Middlewares/Third_Party/FatFs/src/ff.c **** 				c += 0x20;			/* To lower */
1797:Middlewares/Third_Party/FatFs/src/ff.c **** #if _LFN_UNICODE
1798:Middlewares/Third_Party/FatFs/src/ff.c **** 			if (IsDBCS1(c) && i != 8 && i != 11 && IsDBCS2(dir[i]))
1799:Middlewares/Third_Party/FatFs/src/ff.c **** 				c = c << 8 | dir[i++];
1800:Middlewares/Third_Party/FatFs/src/ff.c **** 			c = ff_convert(c, 1);	/* OEM -> Unicode */
1801:Middlewares/Third_Party/FatFs/src/ff.c **** 			if (!c) c = '?';
1802:Middlewares/Third_Party/FatFs/src/ff.c **** #endif
1803:Middlewares/Third_Party/FatFs/src/ff.c **** #endif
1804:Middlewares/Third_Party/FatFs/src/ff.c **** 			*p++ = c;
 604              		.loc 1 1804 0
 605 0034 2370     		strb	r3, [r4]
 606 0036 0134     		adds	r4, r4, #1
 607              	.LVL82:
 608 0038 EEE7     		b	.L70
 609              	.L76:
1805:Middlewares/Third_Party/FatFs/src/ff.c **** 		}
1806:Middlewares/Third_Party/FatFs/src/ff.c **** 		fno->fattrib = dir[DIR_Attr];				/* Attribute */
 610              		.loc 1 1806 0
 611 003a EB7A     		ldrb	r3, [r5, #11]	@ zero_extendqisi2
 612              	.LVL83:
 613 003c 0B72     		strb	r3, [r1, #8]
1807:Middlewares/Third_Party/FatFs/src/ff.c **** 		fno->fsize = LD_DWORD(dir + DIR_FileSize);	/* Size */
 614              		.loc 1 1807 0
 615 003e EA7F     		ldrb	r2, [r5, #31]	@ zero_extendqisi2
 616              	.LVL84:
 617 0040 AB7F     		ldrb	r3, [r5, #30]	@ zero_extendqisi2
 618 0042 1B04     		lsls	r3, r3, #16
 619 0044 43EA0263 		orr	r3, r3, r2, lsl #24
ARM GAS  /tmp/ccktbAOa.s 			page 44


 620 0048 2A7F     		ldrb	r2, [r5, #28]	@ zero_extendqisi2
 621 004a 1343     		orrs	r3, r3, r2
 622 004c 6A7F     		ldrb	r2, [r5, #29]	@ zero_extendqisi2
 623 004e 43EA0223 		orr	r3, r3, r2, lsl #8
 624 0052 0B60     		str	r3, [r1]
1808:Middlewares/Third_Party/FatFs/src/ff.c **** 		fno->fdate = LD_WORD(dir + DIR_WrtDate);	/* Date */
 625              		.loc 1 1808 0
 626 0054 6A7E     		ldrb	r2, [r5, #25]	@ zero_extendqisi2
 627 0056 2B7E     		ldrb	r3, [r5, #24]	@ zero_extendqisi2
 628 0058 43EA0223 		orr	r3, r3, r2, lsl #8
 629 005c 8B80     		strh	r3, [r1, #4]	@ movhi
1809:Middlewares/Third_Party/FatFs/src/ff.c **** 		fno->ftime = LD_WORD(dir + DIR_WrtTime);	/* Time */
 630              		.loc 1 1809 0
 631 005e EA7D     		ldrb	r2, [r5, #23]	@ zero_extendqisi2
 632 0060 AB7D     		ldrb	r3, [r5, #22]	@ zero_extendqisi2
 633 0062 43EA0223 		orr	r3, r3, r2, lsl #8
 634 0066 CB80     		strh	r3, [r1, #6]	@ movhi
 635              	.LVL85:
 636              	.L69:
1810:Middlewares/Third_Party/FatFs/src/ff.c **** 	}
1811:Middlewares/Third_Party/FatFs/src/ff.c **** 	*p = 0;		/* Terminate SFN string by a \0 */
 637              		.loc 1 1811 0
 638 0068 0023     		movs	r3, #0
 639 006a 2370     		strb	r3, [r4]
1812:Middlewares/Third_Party/FatFs/src/ff.c **** 
1813:Middlewares/Third_Party/FatFs/src/ff.c **** #if _USE_LFN
1814:Middlewares/Third_Party/FatFs/src/ff.c **** 	if (fno->lfname) {
1815:Middlewares/Third_Party/FatFs/src/ff.c **** 		i = 0; p = fno->lfname;
1816:Middlewares/Third_Party/FatFs/src/ff.c **** 		if (dp->sect && fno->lfsize && dp->lfn_idx != 0xFFFF) {	/* Get LFN if available */
1817:Middlewares/Third_Party/FatFs/src/ff.c **** 			lfn = dp->lfn;
1818:Middlewares/Third_Party/FatFs/src/ff.c **** 			while ((w = *lfn++) != 0) {		/* Get an LFN character */
1819:Middlewares/Third_Party/FatFs/src/ff.c **** #if !_LFN_UNICODE
1820:Middlewares/Third_Party/FatFs/src/ff.c **** 				w = ff_convert(w, 0);		/* Unicode -> OEM */
1821:Middlewares/Third_Party/FatFs/src/ff.c **** 				if (!w) { i = 0; break; }	/* No LFN if it could not be converted */
1822:Middlewares/Third_Party/FatFs/src/ff.c **** 				if (_DF1S && w >= 0x100)	/* Put 1st byte if it is a DBC (always false on SBCS cfg) */
1823:Middlewares/Third_Party/FatFs/src/ff.c **** 					p[i++] = (TCHAR)(w >> 8);
1824:Middlewares/Third_Party/FatFs/src/ff.c **** #endif
1825:Middlewares/Third_Party/FatFs/src/ff.c **** 				if (i >= fno->lfsize - 1) { i = 0; break; }	/* No LFN if buffer overflow */
1826:Middlewares/Third_Party/FatFs/src/ff.c **** 				p[i++] = (TCHAR)w;
1827:Middlewares/Third_Party/FatFs/src/ff.c **** 			}
1828:Middlewares/Third_Party/FatFs/src/ff.c **** 		}
1829:Middlewares/Third_Party/FatFs/src/ff.c **** 		p[i] = 0;	/* Terminate LFN string by a \0 */
1830:Middlewares/Third_Party/FatFs/src/ff.c **** 	}
1831:Middlewares/Third_Party/FatFs/src/ff.c **** #endif
1832:Middlewares/Third_Party/FatFs/src/ff.c **** }
 640              		.loc 1 1832 0
 641 006c 70BC     		pop	{r4, r5, r6}
 642              	.LCFI5:
 643              		.cfi_restore 6
 644              		.cfi_restore 5
 645              		.cfi_restore 4
 646              		.cfi_def_cfa_offset 0
 647              	.LVL86:
 648 006e 7047     		bx	lr
 649              		.cfi_endproc
 650              	.LFE153:
 652              		.section	.text.get_ldnumber,"ax",%progbits
ARM GAS  /tmp/ccktbAOa.s 			page 45


 653              		.align	1
 654              		.syntax unified
 655              		.thumb
 656              		.thumb_func
 657              		.fpu fpv4-sp-d16
 659              	get_ldnumber:
 660              	.LFB156:
1833:Middlewares/Third_Party/FatFs/src/ff.c **** #endif /* _FS_MINIMIZE <= 1 || _FS_RPATH >= 2 */
1834:Middlewares/Third_Party/FatFs/src/ff.c **** 
1835:Middlewares/Third_Party/FatFs/src/ff.c **** 
1836:Middlewares/Third_Party/FatFs/src/ff.c **** 
1837:Middlewares/Third_Party/FatFs/src/ff.c **** 
1838:Middlewares/Third_Party/FatFs/src/ff.c **** /*-----------------------------------------------------------------------*/
1839:Middlewares/Third_Party/FatFs/src/ff.c **** /* Pattern matching                                                      */
1840:Middlewares/Third_Party/FatFs/src/ff.c **** /*-----------------------------------------------------------------------*/
1841:Middlewares/Third_Party/FatFs/src/ff.c **** #if _USE_FIND && _FS_MINIMIZE <= 1
1842:Middlewares/Third_Party/FatFs/src/ff.c **** static
1843:Middlewares/Third_Party/FatFs/src/ff.c **** WCHAR get_achar (		/* Get a character and advances ptr 1 or 2 */
1844:Middlewares/Third_Party/FatFs/src/ff.c **** 	const TCHAR** ptr	/* Pointer to pointer to the SBCS/DBCS/Unicode string */
1845:Middlewares/Third_Party/FatFs/src/ff.c **** )
1846:Middlewares/Third_Party/FatFs/src/ff.c **** {
1847:Middlewares/Third_Party/FatFs/src/ff.c **** 	WCHAR chr;
1848:Middlewares/Third_Party/FatFs/src/ff.c **** 
1849:Middlewares/Third_Party/FatFs/src/ff.c **** #if !_LFN_UNICODE
1850:Middlewares/Third_Party/FatFs/src/ff.c **** 	chr = (BYTE)*(*ptr)++;					/* Get a byte */
1851:Middlewares/Third_Party/FatFs/src/ff.c **** 	if (IsLower(chr)) chr -= 0x20;			/* To upper ASCII char */
1852:Middlewares/Third_Party/FatFs/src/ff.c **** 	if (IsDBCS1(chr) && IsDBCS2(**ptr))		/* Get DBC 2nd byte if needed */
1853:Middlewares/Third_Party/FatFs/src/ff.c **** 		chr = chr << 8 | (BYTE)*(*ptr)++;
1854:Middlewares/Third_Party/FatFs/src/ff.c **** #ifdef _EXCVT
1855:Middlewares/Third_Party/FatFs/src/ff.c **** 	if (chr >= 0x80) chr = ExCvt[chr - 0x80];	/* To upper SBCS extended char */
1856:Middlewares/Third_Party/FatFs/src/ff.c **** #endif
1857:Middlewares/Third_Party/FatFs/src/ff.c **** #else
1858:Middlewares/Third_Party/FatFs/src/ff.c **** 	chr = ff_wtoupper(*(*ptr)++);			/* Get a word and to upper */
1859:Middlewares/Third_Party/FatFs/src/ff.c **** #endif
1860:Middlewares/Third_Party/FatFs/src/ff.c **** 	return chr;
1861:Middlewares/Third_Party/FatFs/src/ff.c **** }
1862:Middlewares/Third_Party/FatFs/src/ff.c **** 
1863:Middlewares/Third_Party/FatFs/src/ff.c **** 
1864:Middlewares/Third_Party/FatFs/src/ff.c **** static
1865:Middlewares/Third_Party/FatFs/src/ff.c **** int pattern_matching (	/* Return value: 0:mismatched, 1:matched */
1866:Middlewares/Third_Party/FatFs/src/ff.c **** 	const TCHAR* pat,	/* Matching pattern */
1867:Middlewares/Third_Party/FatFs/src/ff.c **** 	const TCHAR* nam,	/* String to be tested */
1868:Middlewares/Third_Party/FatFs/src/ff.c **** 	int skip,			/* Number of pre-skip chars (number of ?s) */
1869:Middlewares/Third_Party/FatFs/src/ff.c **** 	int inf				/* Infinite search (* specified) */
1870:Middlewares/Third_Party/FatFs/src/ff.c **** )
1871:Middlewares/Third_Party/FatFs/src/ff.c **** {
1872:Middlewares/Third_Party/FatFs/src/ff.c **** 	const TCHAR *pp, *np;
1873:Middlewares/Third_Party/FatFs/src/ff.c **** 	WCHAR pc, nc;
1874:Middlewares/Third_Party/FatFs/src/ff.c **** 	int nm, nx;
1875:Middlewares/Third_Party/FatFs/src/ff.c **** 
1876:Middlewares/Third_Party/FatFs/src/ff.c **** 
1877:Middlewares/Third_Party/FatFs/src/ff.c **** 	while (skip--) {				/* Pre-skip name chars */
1878:Middlewares/Third_Party/FatFs/src/ff.c **** 		if (!get_achar(&nam)) return 0;	/* Branch mismatched if less name chars */
1879:Middlewares/Third_Party/FatFs/src/ff.c **** 	}
1880:Middlewares/Third_Party/FatFs/src/ff.c **** 	if (!*pat && inf) return 1;		/* (short circuit) */
1881:Middlewares/Third_Party/FatFs/src/ff.c **** 
1882:Middlewares/Third_Party/FatFs/src/ff.c **** 	do {
ARM GAS  /tmp/ccktbAOa.s 			page 46


1883:Middlewares/Third_Party/FatFs/src/ff.c **** 		pp = pat; np = nam;			/* Top of pattern and name to match */
1884:Middlewares/Third_Party/FatFs/src/ff.c **** 		for (;;) {
1885:Middlewares/Third_Party/FatFs/src/ff.c **** 			if (*pp == '?' || *pp == '*') {	/* Wildcard? */
1886:Middlewares/Third_Party/FatFs/src/ff.c **** 				nm = nx = 0;
1887:Middlewares/Third_Party/FatFs/src/ff.c **** 				do {				/* Analyze the wildcard chars */
1888:Middlewares/Third_Party/FatFs/src/ff.c **** 					if (*pp++ == '?') nm++; else nx = 1;
1889:Middlewares/Third_Party/FatFs/src/ff.c **** 				} while (*pp == '?' || *pp == '*');
1890:Middlewares/Third_Party/FatFs/src/ff.c **** 				if (pattern_matching(pp, np, nm, nx)) return 1;	/* Test new branch (recurs upto number of wildc
1891:Middlewares/Third_Party/FatFs/src/ff.c **** 				nc = *np; break;	/* Branch mismatched */
1892:Middlewares/Third_Party/FatFs/src/ff.c **** 			}
1893:Middlewares/Third_Party/FatFs/src/ff.c **** 			pc = get_achar(&pp);	/* Get a pattern char */
1894:Middlewares/Third_Party/FatFs/src/ff.c **** 			nc = get_achar(&np);	/* Get a name char */
1895:Middlewares/Third_Party/FatFs/src/ff.c **** 			if (pc != nc) break;	/* Branch mismatched? */
1896:Middlewares/Third_Party/FatFs/src/ff.c **** 			if (!pc) return 1;		/* Branch matched? (matched at end of both strings) */
1897:Middlewares/Third_Party/FatFs/src/ff.c **** 		}
1898:Middlewares/Third_Party/FatFs/src/ff.c **** 		get_achar(&nam);			/* nam++ */
1899:Middlewares/Third_Party/FatFs/src/ff.c **** 	} while (inf && nc);			/* Retry until end of name if infinite search is specified */
1900:Middlewares/Third_Party/FatFs/src/ff.c **** 
1901:Middlewares/Third_Party/FatFs/src/ff.c **** 	return 0;
1902:Middlewares/Third_Party/FatFs/src/ff.c **** }
1903:Middlewares/Third_Party/FatFs/src/ff.c **** #endif /* _USE_FIND && _FS_MINIMIZE <= 1 */
1904:Middlewares/Third_Party/FatFs/src/ff.c **** 
1905:Middlewares/Third_Party/FatFs/src/ff.c **** 
1906:Middlewares/Third_Party/FatFs/src/ff.c **** 
1907:Middlewares/Third_Party/FatFs/src/ff.c **** 
1908:Middlewares/Third_Party/FatFs/src/ff.c **** /*-----------------------------------------------------------------------*/
1909:Middlewares/Third_Party/FatFs/src/ff.c **** /* Pick a segment and create the object name in directory form           */
1910:Middlewares/Third_Party/FatFs/src/ff.c **** /*-----------------------------------------------------------------------*/
1911:Middlewares/Third_Party/FatFs/src/ff.c **** 
1912:Middlewares/Third_Party/FatFs/src/ff.c **** static
1913:Middlewares/Third_Party/FatFs/src/ff.c **** FRESULT create_name (
1914:Middlewares/Third_Party/FatFs/src/ff.c **** 	DIR* dp,			/* Pointer to the directory object */
1915:Middlewares/Third_Party/FatFs/src/ff.c **** 	const TCHAR** path	/* Pointer to pointer to the segment in the path string */
1916:Middlewares/Third_Party/FatFs/src/ff.c **** )
1917:Middlewares/Third_Party/FatFs/src/ff.c **** {
1918:Middlewares/Third_Party/FatFs/src/ff.c **** #if _USE_LFN	/* LFN configuration */
1919:Middlewares/Third_Party/FatFs/src/ff.c **** 	BYTE b, cf;
1920:Middlewares/Third_Party/FatFs/src/ff.c **** 	WCHAR w, *lfn;
1921:Middlewares/Third_Party/FatFs/src/ff.c **** 	UINT i, ni, si, di;
1922:Middlewares/Third_Party/FatFs/src/ff.c **** 	const TCHAR *p;
1923:Middlewares/Third_Party/FatFs/src/ff.c **** 
1924:Middlewares/Third_Party/FatFs/src/ff.c **** 	/* Create LFN in Unicode */
1925:Middlewares/Third_Party/FatFs/src/ff.c **** 	for (p = *path; *p == '/' || *p == '\\'; p++) ;	/* Strip duplicated separator */
1926:Middlewares/Third_Party/FatFs/src/ff.c **** 	lfn = dp->lfn;
1927:Middlewares/Third_Party/FatFs/src/ff.c **** 	si = di = 0;
1928:Middlewares/Third_Party/FatFs/src/ff.c **** 	for (;;) {
1929:Middlewares/Third_Party/FatFs/src/ff.c **** 		w = p[si++];					/* Get a character */
1930:Middlewares/Third_Party/FatFs/src/ff.c **** 		if (w < ' ' || w == '/' || w == '\\') break;	/* Break on end of segment */
1931:Middlewares/Third_Party/FatFs/src/ff.c **** 		if (di >= _MAX_LFN)				/* Reject too long name */
1932:Middlewares/Third_Party/FatFs/src/ff.c **** 			return FR_INVALID_NAME;
1933:Middlewares/Third_Party/FatFs/src/ff.c **** #if !_LFN_UNICODE
1934:Middlewares/Third_Party/FatFs/src/ff.c **** 		w &= 0xFF;
1935:Middlewares/Third_Party/FatFs/src/ff.c **** 		if (IsDBCS1(w)) {				/* Check if it is a DBC 1st byte (always false on SBCS cfg) */
1936:Middlewares/Third_Party/FatFs/src/ff.c **** #if _DF1S
1937:Middlewares/Third_Party/FatFs/src/ff.c **** 			b = (BYTE)p[si++];			/* Get 2nd byte */
1938:Middlewares/Third_Party/FatFs/src/ff.c **** 			w = (w << 8) + b;			/* Create a DBC */
1939:Middlewares/Third_Party/FatFs/src/ff.c **** 			if (!IsDBCS2(b))
ARM GAS  /tmp/ccktbAOa.s 			page 47


1940:Middlewares/Third_Party/FatFs/src/ff.c **** 				return FR_INVALID_NAME;	/* Reject invalid sequence */
1941:Middlewares/Third_Party/FatFs/src/ff.c **** #endif
1942:Middlewares/Third_Party/FatFs/src/ff.c **** 		}
1943:Middlewares/Third_Party/FatFs/src/ff.c **** 		w = ff_convert(w, 1);			/* Convert ANSI/OEM to Unicode */
1944:Middlewares/Third_Party/FatFs/src/ff.c **** 		if (!w) return FR_INVALID_NAME;	/* Reject invalid code */
1945:Middlewares/Third_Party/FatFs/src/ff.c **** #endif
1946:Middlewares/Third_Party/FatFs/src/ff.c **** 		if (w < 0x80 && chk_chr("\"*:<>\?|\x7F", w)) /* Reject illegal characters for LFN */
1947:Middlewares/Third_Party/FatFs/src/ff.c **** 			return FR_INVALID_NAME;
1948:Middlewares/Third_Party/FatFs/src/ff.c **** 		lfn[di++] = w;					/* Store the Unicode character */
1949:Middlewares/Third_Party/FatFs/src/ff.c **** 	}
1950:Middlewares/Third_Party/FatFs/src/ff.c **** 	*path = &p[si];						/* Return pointer to the next segment */
1951:Middlewares/Third_Party/FatFs/src/ff.c **** 	cf = (w < ' ') ? NS_LAST : 0;		/* Set last segment flag if end of path */
1952:Middlewares/Third_Party/FatFs/src/ff.c **** #if _FS_RPATH
1953:Middlewares/Third_Party/FatFs/src/ff.c **** 	if ((di == 1 && lfn[di - 1] == '.') || /* Is this a dot entry? */
1954:Middlewares/Third_Party/FatFs/src/ff.c **** 		(di == 2 && lfn[di - 1] == '.' && lfn[di - 2] == '.')) {
1955:Middlewares/Third_Party/FatFs/src/ff.c **** 		lfn[di] = 0;
1956:Middlewares/Third_Party/FatFs/src/ff.c **** 		for (i = 0; i < 11; i++)
1957:Middlewares/Third_Party/FatFs/src/ff.c **** 			dp->fn[i] = (i < di) ? '.' : ' ';
1958:Middlewares/Third_Party/FatFs/src/ff.c **** 		dp->fn[i] = cf | NS_DOT;		/* This is a dot entry */
1959:Middlewares/Third_Party/FatFs/src/ff.c **** 		return FR_OK;
1960:Middlewares/Third_Party/FatFs/src/ff.c **** 	}
1961:Middlewares/Third_Party/FatFs/src/ff.c **** #endif
1962:Middlewares/Third_Party/FatFs/src/ff.c **** 	while (di) {						/* Strip trailing spaces and dots */
1963:Middlewares/Third_Party/FatFs/src/ff.c **** 		w = lfn[di - 1];
1964:Middlewares/Third_Party/FatFs/src/ff.c **** 		if (w != ' ' && w != '.') break;
1965:Middlewares/Third_Party/FatFs/src/ff.c **** 		di--;
1966:Middlewares/Third_Party/FatFs/src/ff.c **** 	}
1967:Middlewares/Third_Party/FatFs/src/ff.c **** 	if (!di) return FR_INVALID_NAME;	/* Reject nul string */
1968:Middlewares/Third_Party/FatFs/src/ff.c **** 
1969:Middlewares/Third_Party/FatFs/src/ff.c **** 	lfn[di] = 0;						/* LFN is created */
1970:Middlewares/Third_Party/FatFs/src/ff.c **** 
1971:Middlewares/Third_Party/FatFs/src/ff.c **** 	/* Create SFN in directory form */
1972:Middlewares/Third_Party/FatFs/src/ff.c **** 	mem_set(dp->fn, ' ', 11);
1973:Middlewares/Third_Party/FatFs/src/ff.c **** 	for (si = 0; lfn[si] == ' ' || lfn[si] == '.'; si++) ;	/* Strip leading spaces and dots */
1974:Middlewares/Third_Party/FatFs/src/ff.c **** 	if (si) cf |= NS_LOSS | NS_LFN;
1975:Middlewares/Third_Party/FatFs/src/ff.c **** 	while (di && lfn[di - 1] != '.') di--;	/* Find extension (di<=si: no extension) */
1976:Middlewares/Third_Party/FatFs/src/ff.c **** 
1977:Middlewares/Third_Party/FatFs/src/ff.c **** 	b = i = 0; ni = 8;
1978:Middlewares/Third_Party/FatFs/src/ff.c **** 	for (;;) {
1979:Middlewares/Third_Party/FatFs/src/ff.c **** 		w = lfn[si++];					/* Get an LFN character */
1980:Middlewares/Third_Party/FatFs/src/ff.c **** 		if (!w) break;					/* Break on end of the LFN */
1981:Middlewares/Third_Party/FatFs/src/ff.c **** 		if (w == ' ' || (w == '.' && si != di)) {	/* Remove spaces and dots */
1982:Middlewares/Third_Party/FatFs/src/ff.c **** 			cf |= NS_LOSS | NS_LFN; continue;
1983:Middlewares/Third_Party/FatFs/src/ff.c **** 		}
1984:Middlewares/Third_Party/FatFs/src/ff.c **** 
1985:Middlewares/Third_Party/FatFs/src/ff.c **** 		if (i >= ni || si == di) {		/* Extension or end of SFN */
1986:Middlewares/Third_Party/FatFs/src/ff.c **** 			if (ni == 11) {				/* Long extension */
1987:Middlewares/Third_Party/FatFs/src/ff.c **** 				cf |= NS_LOSS | NS_LFN; break;
1988:Middlewares/Third_Party/FatFs/src/ff.c **** 			}
1989:Middlewares/Third_Party/FatFs/src/ff.c **** 			if (si != di) cf |= NS_LOSS | NS_LFN;	/* Out of 8.3 format */
1990:Middlewares/Third_Party/FatFs/src/ff.c **** 			if (si > di) break;			/* No extension */
1991:Middlewares/Third_Party/FatFs/src/ff.c **** 			si = di; i = 8; ni = 11;	/* Enter extension section */
1992:Middlewares/Third_Party/FatFs/src/ff.c **** 			b <<= 2; continue;
1993:Middlewares/Third_Party/FatFs/src/ff.c **** 		}
1994:Middlewares/Third_Party/FatFs/src/ff.c **** 
1995:Middlewares/Third_Party/FatFs/src/ff.c **** 		if (w >= 0x80) {				/* Non ASCII character */
1996:Middlewares/Third_Party/FatFs/src/ff.c **** #ifdef _EXCVT
ARM GAS  /tmp/ccktbAOa.s 			page 48


1997:Middlewares/Third_Party/FatFs/src/ff.c **** 			w = ff_convert(w, 0);		/* Unicode -> OEM code */
1998:Middlewares/Third_Party/FatFs/src/ff.c **** 			if (w) w = ExCvt[w - 0x80];	/* Convert extended character to upper (SBCS) */
1999:Middlewares/Third_Party/FatFs/src/ff.c **** #else
2000:Middlewares/Third_Party/FatFs/src/ff.c **** 			w = ff_convert(ff_wtoupper(w), 0);	/* Upper converted Unicode -> OEM code */
2001:Middlewares/Third_Party/FatFs/src/ff.c **** #endif
2002:Middlewares/Third_Party/FatFs/src/ff.c **** 			cf |= NS_LFN;				/* Force create LFN entry */
2003:Middlewares/Third_Party/FatFs/src/ff.c **** 		}
2004:Middlewares/Third_Party/FatFs/src/ff.c **** 
2005:Middlewares/Third_Party/FatFs/src/ff.c **** 		if (_DF1S && w >= 0x100) {		/* DBC (always false at SBCS cfg) */
2006:Middlewares/Third_Party/FatFs/src/ff.c **** 			if (i >= ni - 1) {
2007:Middlewares/Third_Party/FatFs/src/ff.c **** 				cf |= NS_LOSS | NS_LFN; i = ni; continue;
2008:Middlewares/Third_Party/FatFs/src/ff.c **** 			}
2009:Middlewares/Third_Party/FatFs/src/ff.c **** 			dp->fn[i++] = (BYTE)(w >> 8);
2010:Middlewares/Third_Party/FatFs/src/ff.c **** 		} else {						/* SBC */
2011:Middlewares/Third_Party/FatFs/src/ff.c **** 			if (!w || chk_chr("+,;=[]", w)) {	/* Replace illegal characters for SFN */
2012:Middlewares/Third_Party/FatFs/src/ff.c **** 				w = '_'; cf |= NS_LOSS | NS_LFN;/* Lossy conversion */
2013:Middlewares/Third_Party/FatFs/src/ff.c **** 			} else {
2014:Middlewares/Third_Party/FatFs/src/ff.c **** 				if (IsUpper(w)) {		/* ASCII large capital */
2015:Middlewares/Third_Party/FatFs/src/ff.c **** 					b |= 2;
2016:Middlewares/Third_Party/FatFs/src/ff.c **** 				} else {
2017:Middlewares/Third_Party/FatFs/src/ff.c **** 					if (IsLower(w)) {	/* ASCII small capital */
2018:Middlewares/Third_Party/FatFs/src/ff.c **** 						b |= 1; w -= 0x20;
2019:Middlewares/Third_Party/FatFs/src/ff.c **** 					}
2020:Middlewares/Third_Party/FatFs/src/ff.c **** 				}
2021:Middlewares/Third_Party/FatFs/src/ff.c **** 			}
2022:Middlewares/Third_Party/FatFs/src/ff.c **** 		}
2023:Middlewares/Third_Party/FatFs/src/ff.c **** 		dp->fn[i++] = (BYTE)w;
2024:Middlewares/Third_Party/FatFs/src/ff.c **** 	}
2025:Middlewares/Third_Party/FatFs/src/ff.c **** 
2026:Middlewares/Third_Party/FatFs/src/ff.c **** 	if (dp->fn[0] == DDEM) dp->fn[0] = RDDEM;	/* If the first character collides with deleted mark, re
2027:Middlewares/Third_Party/FatFs/src/ff.c **** 
2028:Middlewares/Third_Party/FatFs/src/ff.c **** 	if (ni == 8) b <<= 2;
2029:Middlewares/Third_Party/FatFs/src/ff.c **** 	if ((b & 0x0C) == 0x0C || (b & 0x03) == 0x03)	/* Create LFN entry when there are composite capital
2030:Middlewares/Third_Party/FatFs/src/ff.c **** 		cf |= NS_LFN;
2031:Middlewares/Third_Party/FatFs/src/ff.c **** 	if (!(cf & NS_LFN)) {						/* When LFN is in 8.3 format without extended character, NT flags are c
2032:Middlewares/Third_Party/FatFs/src/ff.c **** 		if ((b & 0x03) == 0x01) cf |= NS_EXT;	/* NT flag (Extension has only small capital) */
2033:Middlewares/Third_Party/FatFs/src/ff.c **** 		if ((b & 0x0C) == 0x04) cf |= NS_BODY;	/* NT flag (Filename has only small capital) */
2034:Middlewares/Third_Party/FatFs/src/ff.c **** 	}
2035:Middlewares/Third_Party/FatFs/src/ff.c **** 
2036:Middlewares/Third_Party/FatFs/src/ff.c **** 	dp->fn[NSFLAG] = cf;	/* SFN is created */
2037:Middlewares/Third_Party/FatFs/src/ff.c **** 
2038:Middlewares/Third_Party/FatFs/src/ff.c **** 	return FR_OK;
2039:Middlewares/Third_Party/FatFs/src/ff.c **** 
2040:Middlewares/Third_Party/FatFs/src/ff.c **** 
2041:Middlewares/Third_Party/FatFs/src/ff.c **** #else	/* Non-LFN configuration */
2042:Middlewares/Third_Party/FatFs/src/ff.c **** 	BYTE b, c, d, *sfn;
2043:Middlewares/Third_Party/FatFs/src/ff.c **** 	UINT ni, si, i;
2044:Middlewares/Third_Party/FatFs/src/ff.c **** 	const char *p;
2045:Middlewares/Third_Party/FatFs/src/ff.c **** 
2046:Middlewares/Third_Party/FatFs/src/ff.c **** 	/* Create file name in directory form */
2047:Middlewares/Third_Party/FatFs/src/ff.c **** 	for (p = *path; *p == '/' || *p == '\\'; p++) ;	/* Strip duplicated separator */
2048:Middlewares/Third_Party/FatFs/src/ff.c **** 	sfn = dp->fn;
2049:Middlewares/Third_Party/FatFs/src/ff.c **** 	mem_set(sfn, ' ', 11);
2050:Middlewares/Third_Party/FatFs/src/ff.c **** 	si = i = b = 0; ni = 8;
2051:Middlewares/Third_Party/FatFs/src/ff.c **** #if _FS_RPATH
2052:Middlewares/Third_Party/FatFs/src/ff.c **** 	if (p[si] == '.') { /* Is this a dot entry? */
2053:Middlewares/Third_Party/FatFs/src/ff.c **** 		for (;;) {
ARM GAS  /tmp/ccktbAOa.s 			page 49


2054:Middlewares/Third_Party/FatFs/src/ff.c **** 			c = (BYTE)p[si++];
2055:Middlewares/Third_Party/FatFs/src/ff.c **** 			if (c != '.' || si >= 3) break;
2056:Middlewares/Third_Party/FatFs/src/ff.c **** 			sfn[i++] = c;
2057:Middlewares/Third_Party/FatFs/src/ff.c **** 		}
2058:Middlewares/Third_Party/FatFs/src/ff.c **** 		if (c != '/' && c != '\\' && c > ' ') return FR_INVALID_NAME;
2059:Middlewares/Third_Party/FatFs/src/ff.c **** 		*path = &p[si];									/* Return pointer to the next segment */
2060:Middlewares/Third_Party/FatFs/src/ff.c **** 		sfn[NSFLAG] = (c <= ' ') ? NS_LAST | NS_DOT : NS_DOT;	/* Set last segment flag if end of path */
2061:Middlewares/Third_Party/FatFs/src/ff.c **** 		return FR_OK;
2062:Middlewares/Third_Party/FatFs/src/ff.c **** 	}
2063:Middlewares/Third_Party/FatFs/src/ff.c **** #endif
2064:Middlewares/Third_Party/FatFs/src/ff.c **** 	for (;;) {
2065:Middlewares/Third_Party/FatFs/src/ff.c **** 		c = (BYTE)p[si++];
2066:Middlewares/Third_Party/FatFs/src/ff.c **** 		if (c <= ' ' || c == '/' || c == '\\') break;	/* Break on end of segment */
2067:Middlewares/Third_Party/FatFs/src/ff.c **** 		if (c == '.' || i >= ni) {
2068:Middlewares/Third_Party/FatFs/src/ff.c **** 			if (ni != 8 || c != '.') return FR_INVALID_NAME;
2069:Middlewares/Third_Party/FatFs/src/ff.c **** 			i = 8; ni = 11;
2070:Middlewares/Third_Party/FatFs/src/ff.c **** 			b <<= 2; continue;
2071:Middlewares/Third_Party/FatFs/src/ff.c **** 		}
2072:Middlewares/Third_Party/FatFs/src/ff.c **** 		if (c >= 0x80) {				/* Extended character? */
2073:Middlewares/Third_Party/FatFs/src/ff.c **** 			b |= 3;						/* Eliminate NT flag */
2074:Middlewares/Third_Party/FatFs/src/ff.c **** #ifdef _EXCVT
2075:Middlewares/Third_Party/FatFs/src/ff.c **** 			c = ExCvt[c - 0x80];		/* To upper extended characters (SBCS cfg) */
2076:Middlewares/Third_Party/FatFs/src/ff.c **** #else
2077:Middlewares/Third_Party/FatFs/src/ff.c **** #if !_DF1S
2078:Middlewares/Third_Party/FatFs/src/ff.c **** 			return FR_INVALID_NAME;		/* Reject extended characters (ASCII cfg) */
2079:Middlewares/Third_Party/FatFs/src/ff.c **** #endif
2080:Middlewares/Third_Party/FatFs/src/ff.c **** #endif
2081:Middlewares/Third_Party/FatFs/src/ff.c **** 		}
2082:Middlewares/Third_Party/FatFs/src/ff.c **** 		if (IsDBCS1(c)) {				/* Check if it is a DBC 1st byte (always false on SBCS cfg) */
2083:Middlewares/Third_Party/FatFs/src/ff.c **** 			d = (BYTE)p[si++];			/* Get 2nd byte */
2084:Middlewares/Third_Party/FatFs/src/ff.c **** 			if (!IsDBCS2(d) || i >= ni - 1)	/* Reject invalid DBC */
2085:Middlewares/Third_Party/FatFs/src/ff.c **** 				return FR_INVALID_NAME;
2086:Middlewares/Third_Party/FatFs/src/ff.c **** 			sfn[i++] = c;
2087:Middlewares/Third_Party/FatFs/src/ff.c **** 			sfn[i++] = d;
2088:Middlewares/Third_Party/FatFs/src/ff.c **** 		} else {						/* SBC */
2089:Middlewares/Third_Party/FatFs/src/ff.c **** 			if (chk_chr("\"*+,:;<=>\?[]|\x7F", c))	/* Reject illegal chrs for SFN */
2090:Middlewares/Third_Party/FatFs/src/ff.c **** 				return FR_INVALID_NAME;
2091:Middlewares/Third_Party/FatFs/src/ff.c **** 			if (IsUpper(c)) {			/* ASCII large capital? */
2092:Middlewares/Third_Party/FatFs/src/ff.c **** 				b |= 2;
2093:Middlewares/Third_Party/FatFs/src/ff.c **** 			} else {
2094:Middlewares/Third_Party/FatFs/src/ff.c **** 				if (IsLower(c)) {		/* ASCII small capital? */
2095:Middlewares/Third_Party/FatFs/src/ff.c **** 					b |= 1; c -= 0x20;
2096:Middlewares/Third_Party/FatFs/src/ff.c **** 				}
2097:Middlewares/Third_Party/FatFs/src/ff.c **** 			}
2098:Middlewares/Third_Party/FatFs/src/ff.c **** 			sfn[i++] = c;
2099:Middlewares/Third_Party/FatFs/src/ff.c **** 		}
2100:Middlewares/Third_Party/FatFs/src/ff.c **** 	}
2101:Middlewares/Third_Party/FatFs/src/ff.c **** 	*path = &p[si];						/* Return pointer to the next segment */
2102:Middlewares/Third_Party/FatFs/src/ff.c **** 	c = (c <= ' ') ? NS_LAST : 0;		/* Set last segment flag if end of path */
2103:Middlewares/Third_Party/FatFs/src/ff.c **** 
2104:Middlewares/Third_Party/FatFs/src/ff.c **** 	if (!i) return FR_INVALID_NAME;		/* Reject nul string */
2105:Middlewares/Third_Party/FatFs/src/ff.c **** 	if (sfn[0] == DDEM) sfn[0] = RDDEM;	/* When first character collides with DDEM, replace it with RD
2106:Middlewares/Third_Party/FatFs/src/ff.c **** 
2107:Middlewares/Third_Party/FatFs/src/ff.c **** 	if (ni == 8) b <<= 2;
2108:Middlewares/Third_Party/FatFs/src/ff.c **** 	if ((b & 0x03) == 0x01) c |= NS_EXT;	/* NT flag (Name extension has only small capital) */
2109:Middlewares/Third_Party/FatFs/src/ff.c **** 	if ((b & 0x0C) == 0x04) c |= NS_BODY;	/* NT flag (Name body has only small capital) */
2110:Middlewares/Third_Party/FatFs/src/ff.c **** 
ARM GAS  /tmp/ccktbAOa.s 			page 50


2111:Middlewares/Third_Party/FatFs/src/ff.c **** 	sfn[NSFLAG] = c;		/* Store NT flag, File name is created */
2112:Middlewares/Third_Party/FatFs/src/ff.c **** 
2113:Middlewares/Third_Party/FatFs/src/ff.c **** 	return FR_OK;
2114:Middlewares/Third_Party/FatFs/src/ff.c **** #endif
2115:Middlewares/Third_Party/FatFs/src/ff.c **** }
2116:Middlewares/Third_Party/FatFs/src/ff.c **** 
2117:Middlewares/Third_Party/FatFs/src/ff.c **** 
2118:Middlewares/Third_Party/FatFs/src/ff.c **** 
2119:Middlewares/Third_Party/FatFs/src/ff.c **** 
2120:Middlewares/Third_Party/FatFs/src/ff.c **** /*-----------------------------------------------------------------------*/
2121:Middlewares/Third_Party/FatFs/src/ff.c **** /* Follow a file path                                                    */
2122:Middlewares/Third_Party/FatFs/src/ff.c **** /*-----------------------------------------------------------------------*/
2123:Middlewares/Third_Party/FatFs/src/ff.c **** 
2124:Middlewares/Third_Party/FatFs/src/ff.c **** static
2125:Middlewares/Third_Party/FatFs/src/ff.c **** FRESULT follow_path (	/* FR_OK(0): successful, !=0: error code */
2126:Middlewares/Third_Party/FatFs/src/ff.c **** 	DIR* dp,			/* Directory object to return last directory and found object */
2127:Middlewares/Third_Party/FatFs/src/ff.c **** 	const TCHAR* path	/* Full-path string to find a file or directory */
2128:Middlewares/Third_Party/FatFs/src/ff.c **** )
2129:Middlewares/Third_Party/FatFs/src/ff.c **** {
2130:Middlewares/Third_Party/FatFs/src/ff.c **** 	FRESULT res;
2131:Middlewares/Third_Party/FatFs/src/ff.c **** 	BYTE *dir, ns;
2132:Middlewares/Third_Party/FatFs/src/ff.c **** 
2133:Middlewares/Third_Party/FatFs/src/ff.c **** 
2134:Middlewares/Third_Party/FatFs/src/ff.c **** #if _FS_RPATH
2135:Middlewares/Third_Party/FatFs/src/ff.c **** 	if (*path == '/' || *path == '\\') {	/* There is a heading separator */
2136:Middlewares/Third_Party/FatFs/src/ff.c **** 		path++;	dp->sclust = 0;				/* Strip it and start from the root directory */
2137:Middlewares/Third_Party/FatFs/src/ff.c **** 	} else {								/* No heading separator */
2138:Middlewares/Third_Party/FatFs/src/ff.c **** 		dp->sclust = dp->fs->cdir;			/* Start from the current directory */
2139:Middlewares/Third_Party/FatFs/src/ff.c **** 	}
2140:Middlewares/Third_Party/FatFs/src/ff.c **** #else
2141:Middlewares/Third_Party/FatFs/src/ff.c **** 	if (*path == '/' || *path == '\\')		/* Strip heading separator if exist */
2142:Middlewares/Third_Party/FatFs/src/ff.c **** 		path++;
2143:Middlewares/Third_Party/FatFs/src/ff.c **** 	dp->sclust = 0;							/* Always start from the root directory */
2144:Middlewares/Third_Party/FatFs/src/ff.c **** #endif
2145:Middlewares/Third_Party/FatFs/src/ff.c **** 
2146:Middlewares/Third_Party/FatFs/src/ff.c **** 	if ((UINT)*path < ' ') {				/* Null path name is the origin directory itself */
2147:Middlewares/Third_Party/FatFs/src/ff.c **** 		res = dir_sdi(dp, 0);
2148:Middlewares/Third_Party/FatFs/src/ff.c **** 		dp->dir = 0;
2149:Middlewares/Third_Party/FatFs/src/ff.c **** 	} else {								/* Follow path */
2150:Middlewares/Third_Party/FatFs/src/ff.c **** 		for (;;) {
2151:Middlewares/Third_Party/FatFs/src/ff.c **** 			res = create_name(dp, &path);	/* Get a segment name of the path */
2152:Middlewares/Third_Party/FatFs/src/ff.c **** 			if (res != FR_OK) break;
2153:Middlewares/Third_Party/FatFs/src/ff.c **** 			res = dir_find(dp);				/* Find an object with the sagment name */
2154:Middlewares/Third_Party/FatFs/src/ff.c **** 			ns = dp->fn[NSFLAG];
2155:Middlewares/Third_Party/FatFs/src/ff.c **** 			if (res != FR_OK) {				/* Failed to find the object */
2156:Middlewares/Third_Party/FatFs/src/ff.c **** 				if (res == FR_NO_FILE) {	/* Object is not found */
2157:Middlewares/Third_Party/FatFs/src/ff.c **** 					if (_FS_RPATH && (ns & NS_DOT)) {	/* If dot entry is not exist, */
2158:Middlewares/Third_Party/FatFs/src/ff.c **** 						dp->sclust = 0; dp->dir = 0;	/* it is the root directory and stay there */
2159:Middlewares/Third_Party/FatFs/src/ff.c **** 						if (!(ns & NS_LAST)) continue;	/* Continue to follow if not last segment */
2160:Middlewares/Third_Party/FatFs/src/ff.c **** 						res = FR_OK;					/* Ended at the root directroy. Function completed. */
2161:Middlewares/Third_Party/FatFs/src/ff.c **** 					} else {							/* Could not find the object */
2162:Middlewares/Third_Party/FatFs/src/ff.c **** 						if (!(ns & NS_LAST)) res = FR_NO_PATH;	/* Adjust error code if not last segment */
2163:Middlewares/Third_Party/FatFs/src/ff.c **** 					}
2164:Middlewares/Third_Party/FatFs/src/ff.c **** 				}
2165:Middlewares/Third_Party/FatFs/src/ff.c **** 				break;
2166:Middlewares/Third_Party/FatFs/src/ff.c **** 			}
2167:Middlewares/Third_Party/FatFs/src/ff.c **** 			if (ns & NS_LAST) break;			/* Last segment matched. Function completed. */
ARM GAS  /tmp/ccktbAOa.s 			page 51


2168:Middlewares/Third_Party/FatFs/src/ff.c **** 			dir = dp->dir;						/* Follow the sub-directory */
2169:Middlewares/Third_Party/FatFs/src/ff.c **** 			if (!(dir[DIR_Attr] & AM_DIR)) {	/* It is not a sub-directory and cannot follow */
2170:Middlewares/Third_Party/FatFs/src/ff.c **** 				res = FR_NO_PATH; break;
2171:Middlewares/Third_Party/FatFs/src/ff.c **** 			}
2172:Middlewares/Third_Party/FatFs/src/ff.c **** 			dp->sclust = ld_clust(dp->fs, dir);
2173:Middlewares/Third_Party/FatFs/src/ff.c **** 		}
2174:Middlewares/Third_Party/FatFs/src/ff.c **** 	}
2175:Middlewares/Third_Party/FatFs/src/ff.c **** 
2176:Middlewares/Third_Party/FatFs/src/ff.c **** 	return res;
2177:Middlewares/Third_Party/FatFs/src/ff.c **** }
2178:Middlewares/Third_Party/FatFs/src/ff.c **** 
2179:Middlewares/Third_Party/FatFs/src/ff.c **** 
2180:Middlewares/Third_Party/FatFs/src/ff.c **** 
2181:Middlewares/Third_Party/FatFs/src/ff.c **** 
2182:Middlewares/Third_Party/FatFs/src/ff.c **** /*-----------------------------------------------------------------------*/
2183:Middlewares/Third_Party/FatFs/src/ff.c **** /* Get logical drive number from path name                               */
2184:Middlewares/Third_Party/FatFs/src/ff.c **** /*-----------------------------------------------------------------------*/
2185:Middlewares/Third_Party/FatFs/src/ff.c **** 
2186:Middlewares/Third_Party/FatFs/src/ff.c **** static
2187:Middlewares/Third_Party/FatFs/src/ff.c **** int get_ldnumber (		/* Returns logical drive number (-1:invalid drive) */
2188:Middlewares/Third_Party/FatFs/src/ff.c **** 	const TCHAR** path	/* Pointer to pointer to the path name */
2189:Middlewares/Third_Party/FatFs/src/ff.c **** )
2190:Middlewares/Third_Party/FatFs/src/ff.c **** {
 661              		.loc 1 2190 0
 662              		.cfi_startproc
 663              		@ args = 0, pretend = 0, frame = 0
 664              		@ frame_needed = 0, uses_anonymous_args = 0
 665              		@ link register save eliminated.
 666              	.LVL87:
2191:Middlewares/Third_Party/FatFs/src/ff.c **** 	const TCHAR *tp, *tt;
2192:Middlewares/Third_Party/FatFs/src/ff.c **** 	UINT i;
2193:Middlewares/Third_Party/FatFs/src/ff.c **** 	int vol = -1;
2194:Middlewares/Third_Party/FatFs/src/ff.c **** #if _STR_VOLUME_ID		/* Find string drive id */
2195:Middlewares/Third_Party/FatFs/src/ff.c **** 	static const char* const str[] = {_VOLUME_STRS};
2196:Middlewares/Third_Party/FatFs/src/ff.c **** 	const char *sp;
2197:Middlewares/Third_Party/FatFs/src/ff.c **** 	char c;
2198:Middlewares/Third_Party/FatFs/src/ff.c **** 	TCHAR tc;
2199:Middlewares/Third_Party/FatFs/src/ff.c **** #endif
2200:Middlewares/Third_Party/FatFs/src/ff.c **** 
2201:Middlewares/Third_Party/FatFs/src/ff.c **** 
2202:Middlewares/Third_Party/FatFs/src/ff.c **** 	if (*path) {	/* If the pointer is not a null */
 667              		.loc 1 2202 0
 668 0000 0168     		ldr	r1, [r0]
 669 0002 F1B1     		cbz	r1, .L83
2190:Middlewares/Third_Party/FatFs/src/ff.c **** 	const TCHAR *tp, *tt;
 670              		.loc 1 2190 0 discriminator 1
 671 0004 10B4     		push	{r4}
 672              	.LCFI6:
 673              		.cfi_def_cfa_offset 4
 674              		.cfi_offset 4, -4
 675              	.LVL88:
2203:Middlewares/Third_Party/FatFs/src/ff.c **** 		for (tt = *path; (UINT)*tt >= (_USE_LFN ? ' ' : '!') && *tt != ':'; tt++) ;	/* Find ':' in the pa
 676              		.loc 1 2203 0 discriminator 1
 677 0006 0C78     		ldrb	r4, [r1]	@ zero_extendqisi2
 678 0008 202C     		cmp	r4, #32
 679 000a 11D9     		bls	.L84
 680              		.loc 1 2203 0 is_stmt 0
ARM GAS  /tmp/ccktbAOa.s 			page 52


 681 000c 3A2C     		cmp	r4, #58
 682 000e 21D0     		beq	.L85
 683 0010 0A46     		mov	r2, r1
 684              	.LVL89:
 685              	.L81:
 686              		.loc 1 2203 0 discriminator 4
 687 0012 12F8013F 		ldrb	r3, [r2, #1]!	@ zero_extendqisi2
 688              	.LVL90:
 689 0016 202B     		cmp	r3, #32
 690 0018 0CD9     		bls	.L79
 691              		.loc 1 2203 0 discriminator 3
 692 001a 3A2B     		cmp	r3, #58
 693 001c F9D1     		bne	.L81
 694              	.LVL91:
 695              	.L82:
2204:Middlewares/Third_Party/FatFs/src/ff.c **** 		if (*tt == ':') {	/* If a ':' is exist in the path name */
2205:Middlewares/Third_Party/FatFs/src/ff.c **** 			tp = *path;
2206:Middlewares/Third_Party/FatFs/src/ff.c **** 			i = *tp++ - '0'; 
 696              		.loc 1 2206 0 is_stmt 1
 697 001e 4B1C     		adds	r3, r1, #1
 698              	.LVL92:
2207:Middlewares/Third_Party/FatFs/src/ff.c **** 			if (i < 10 && tp == tt) {	/* Is there a numeric drive id? */
 699              		.loc 1 2207 0
 700 0020 9A42     		cmp	r2, r3
 701 0022 11D1     		bne	.L87
2208:Middlewares/Third_Party/FatFs/src/ff.c **** 				if (i < _VOLUMES) {	/* If a drive id is found, get the value and strip it */
 702              		.loc 1 2208 0
 703 0024 302C     		cmp	r4, #48
 704 0026 12D1     		bne	.L88
 705              	.LVL93:
2209:Middlewares/Third_Party/FatFs/src/ff.c **** 					vol = (int)i;
2210:Middlewares/Third_Party/FatFs/src/ff.c **** 					*path = ++tt;
 706              		.loc 1 2210 0
 707 0028 0231     		adds	r1, r1, #2
 708              	.LVL94:
 709 002a 0160     		str	r1, [r0]
2209:Middlewares/Third_Party/FatFs/src/ff.c **** 					vol = (int)i;
 710              		.loc 1 2209 0
 711 002c 0020     		movs	r0, #0
 712 002e 05E0     		b	.L77
 713              	.LVL95:
 714              	.L84:
2203:Middlewares/Third_Party/FatFs/src/ff.c **** 		if (*tt == ':') {	/* If a ':' is exist in the path name */
 715              		.loc 1 2203 0
 716 0030 2346     		mov	r3, r4
 717 0032 0A46     		mov	r2, r1
 718              	.LVL96:
 719              	.L79:
2204:Middlewares/Third_Party/FatFs/src/ff.c **** 			tp = *path;
 720              		.loc 1 2204 0
 721 0034 3A2B     		cmp	r3, #58
2211:Middlewares/Third_Party/FatFs/src/ff.c **** 				}
2212:Middlewares/Third_Party/FatFs/src/ff.c **** 			}
2213:Middlewares/Third_Party/FatFs/src/ff.c **** #if _STR_VOLUME_ID
2214:Middlewares/Third_Party/FatFs/src/ff.c **** 			 else {	/* No numeric drive number, find string drive id */
2215:Middlewares/Third_Party/FatFs/src/ff.c **** 				i = 0; tt++;
2216:Middlewares/Third_Party/FatFs/src/ff.c **** 				do {
ARM GAS  /tmp/ccktbAOa.s 			page 53


2217:Middlewares/Third_Party/FatFs/src/ff.c **** 					sp = str[i]; tp = *path;
2218:Middlewares/Third_Party/FatFs/src/ff.c **** 					do {	/* Compare a string drive id with path name */
2219:Middlewares/Third_Party/FatFs/src/ff.c **** 						c = *sp++; tc = *tp++;
2220:Middlewares/Third_Party/FatFs/src/ff.c **** 						if (IsLower(tc)) tc -= 0x20;
2221:Middlewares/Third_Party/FatFs/src/ff.c **** 					} while (c && (TCHAR)c == tc);
2222:Middlewares/Third_Party/FatFs/src/ff.c **** 				} while ((c || tp != tt) && ++i < _VOLUMES);	/* Repeat for each id until pattern match */
2223:Middlewares/Third_Party/FatFs/src/ff.c **** 				if (i < _VOLUMES) {	/* If a drive id is found, get the value and strip it */
2224:Middlewares/Third_Party/FatFs/src/ff.c **** 					vol = (int)i;
2225:Middlewares/Third_Party/FatFs/src/ff.c **** 					*path = tt;
2226:Middlewares/Third_Party/FatFs/src/ff.c **** 				}
2227:Middlewares/Third_Party/FatFs/src/ff.c **** 			}
2228:Middlewares/Third_Party/FatFs/src/ff.c **** #endif
2229:Middlewares/Third_Party/FatFs/src/ff.c **** 			return vol;
2230:Middlewares/Third_Party/FatFs/src/ff.c **** 		}
2231:Middlewares/Third_Party/FatFs/src/ff.c **** #if _FS_RPATH && _VOLUMES >= 2
2232:Middlewares/Third_Party/FatFs/src/ff.c **** 		vol = CurrVol;	/* Current drive */
2233:Middlewares/Third_Party/FatFs/src/ff.c **** #else
2234:Middlewares/Third_Party/FatFs/src/ff.c **** 		vol = 0;		/* Drive 0 */
 722              		.loc 1 2234 0
 723 0036 18BF     		it	ne
 724 0038 0020     		movne	r0, #0
 725              	.LVL97:
2204:Middlewares/Third_Party/FatFs/src/ff.c **** 			tp = *path;
 726              		.loc 1 2204 0
 727 003a F0D0     		beq	.L82
 728              	.LVL98:
 729              	.L77:
2235:Middlewares/Third_Party/FatFs/src/ff.c **** #endif
2236:Middlewares/Third_Party/FatFs/src/ff.c **** 	}
2237:Middlewares/Third_Party/FatFs/src/ff.c **** 	return vol;
2238:Middlewares/Third_Party/FatFs/src/ff.c **** }
 730              		.loc 1 2238 0
 731 003c 5DF8044B 		ldr	r4, [sp], #4
 732              	.LCFI7:
 733              		.cfi_restore 4
 734              		.cfi_def_cfa_offset 0
 735 0040 7047     		bx	lr
 736              	.LVL99:
 737              	.L83:
2193:Middlewares/Third_Party/FatFs/src/ff.c **** #if _STR_VOLUME_ID		/* Find string drive id */
 738              		.loc 1 2193 0
 739 0042 4FF0FF30 		mov	r0, #-1
 740              	.LVL100:
 741 0046 7047     		bx	lr
 742              	.LVL101:
 743              	.L87:
 744              	.LCFI8:
 745              		.cfi_def_cfa_offset 4
 746              		.cfi_offset 4, -4
 747 0048 4FF0FF30 		mov	r0, #-1
 748 004c F6E7     		b	.L77
 749              	.L88:
 750 004e 4FF0FF30 		mov	r0, #-1
 751 0052 F3E7     		b	.L77
 752              	.LVL102:
 753              	.L85:
2203:Middlewares/Third_Party/FatFs/src/ff.c **** 		if (*tt == ':') {	/* If a ':' is exist in the path name */
ARM GAS  /tmp/ccktbAOa.s 			page 54


 754              		.loc 1 2203 0
 755 0054 0A46     		mov	r2, r1
 756 0056 E2E7     		b	.L82
 757              		.cfi_endproc
 758              	.LFE156:
 760              		.section	.text.sync_window,"ax",%progbits
 761              		.align	1
 762              		.syntax unified
 763              		.thumb
 764              		.thumb_func
 765              		.fpu fpv4-sp-d16
 767              	sync_window:
 768              	.LFB135:
 776:Middlewares/Third_Party/FatFs/src/ff.c **** 	DWORD wsect;
 769              		.loc 1 776 0
 770              		.cfi_startproc
 771              		@ args = 0, pretend = 0, frame = 0
 772              		@ frame_needed = 0, uses_anonymous_args = 0
 773              	.LVL103:
 782:Middlewares/Third_Party/FatFs/src/ff.c **** 		wsect = fs->winsect;	/* Current sector number */
 774              		.loc 1 782 0
 775 0000 90F80432 		ldrb	r3, [r0, #516]	@ zero_extendqisi2
 776 0004 0BB9     		cbnz	r3, .L107
 779:Middlewares/Third_Party/FatFs/src/ff.c **** 
 777              		.loc 1 779 0
 778 0006 0020     		movs	r0, #0
 779              	.LVL104:
 780 0008 7047     		bx	lr
 781              	.LVL105:
 782              	.L107:
 776:Middlewares/Third_Party/FatFs/src/ff.c **** 	DWORD wsect;
 783              		.loc 1 776 0
 784 000a 2DE9F041 		push	{r4, r5, r6, r7, r8, lr}
 785              	.LCFI9:
 786              		.cfi_def_cfa_offset 24
 787              		.cfi_offset 4, -24
 788              		.cfi_offset 5, -20
 789              		.cfi_offset 6, -16
 790              		.cfi_offset 7, -12
 791              		.cfi_offset 8, -8
 792              		.cfi_offset 14, -4
 793 000e 0446     		mov	r4, r0
 783:Middlewares/Third_Party/FatFs/src/ff.c **** 		if (disk_write(fs->drv, fs->win.d8, wsect, 1) != RES_OK) {
 794              		.loc 1 783 0
 795 0010 D0F82C52 		ldr	r5, [r0, #556]
 796              	.LVL106:
 784:Middlewares/Third_Party/FatFs/src/ff.c **** 			res = FR_DISK_ERR;
 797              		.loc 1 784 0
 798 0014 0746     		mov	r7, r0
 799 0016 0123     		movs	r3, #1
 800 0018 2A46     		mov	r2, r5
 801 001a 0146     		mov	r1, r0
 802 001c 90F80102 		ldrb	r0, [r0, #513]	@ zero_extendqisi2
 803              	.LVL107:
 804 0020 FFF7FEFF 		bl	disk_write
 805              	.LVL108:
 806 0024 F8B9     		cbnz	r0, .L98
ARM GAS  /tmp/ccktbAOa.s 			page 55


 787:Middlewares/Third_Party/FatFs/src/ff.c **** 			if (wsect - fs->fatbase < fs->fsize) {		/* Is it in the FAT area? */
 807              		.loc 1 787 0
 808 0026 0023     		movs	r3, #0
 809 0028 84F80432 		strb	r3, [r4, #516]
 788:Middlewares/Third_Party/FatFs/src/ff.c **** 				for (nf = fs->n_fats; nf >= 2; nf--) {	/* Reflect the change to all FAT copies */
 810              		.loc 1 788 0
 811 002c D4F82032 		ldr	r3, [r4, #544]
 812 0030 EB1A     		subs	r3, r5, r3
 813 0032 D4F81822 		ldr	r2, [r4, #536]
 814 0036 9342     		cmp	r3, r2
 815 0038 18D2     		bcs	.L99
 789:Middlewares/Third_Party/FatFs/src/ff.c **** 					wsect += fs->fsize;
 816              		.loc 1 789 0
 817 003a 94F80362 		ldrb	r6, [r4, #515]	@ zero_extendqisi2
 818              	.LVL109:
 819 003e 012E     		cmp	r6, #1
 820 0040 17D9     		bls	.L100
 791:Middlewares/Third_Party/FatFs/src/ff.c **** 				}
 821              		.loc 1 791 0 discriminator 3
 822 0042 4FF00108 		mov	r8, #1
 823              	.L101:
 790:Middlewares/Third_Party/FatFs/src/ff.c **** 					disk_write(fs->drv, fs->win.d8, wsect, 1);
 824              		.loc 1 790 0 discriminator 3
 825 0046 D4F81832 		ldr	r3, [r4, #536]
 826 004a 1D44     		add	r5, r5, r3
 827              	.LVL110:
 791:Middlewares/Third_Party/FatFs/src/ff.c **** 				}
 828              		.loc 1 791 0 discriminator 3
 829 004c 4346     		mov	r3, r8
 830 004e 2A46     		mov	r2, r5
 831 0050 3946     		mov	r1, r7
 832 0052 94F80102 		ldrb	r0, [r4, #513]	@ zero_extendqisi2
 833 0056 FFF7FEFF 		bl	disk_write
 834              	.LVL111:
 789:Middlewares/Third_Party/FatFs/src/ff.c **** 					wsect += fs->fsize;
 835              		.loc 1 789 0 discriminator 3
 836 005a 013E     		subs	r6, r6, #1
 837              	.LVL112:
 838 005c 012E     		cmp	r6, #1
 839 005e F2D1     		bne	.L101
 779:Middlewares/Third_Party/FatFs/src/ff.c **** 
 840              		.loc 1 779 0
 841 0060 0020     		movs	r0, #0
 842 0062 BDE8F081 		pop	{r4, r5, r6, r7, r8, pc}
 843              	.LVL113:
 844              	.L98:
 785:Middlewares/Third_Party/FatFs/src/ff.c **** 		} else {
 845              		.loc 1 785 0
 846 0066 0120     		movs	r0, #1
 847 0068 BDE8F081 		pop	{r4, r5, r6, r7, r8, pc}
 848              	.LVL114:
 849              	.L99:
 779:Middlewares/Third_Party/FatFs/src/ff.c **** 
 850              		.loc 1 779 0
 851 006c 0020     		movs	r0, #0
 852 006e BDE8F081 		pop	{r4, r5, r6, r7, r8, pc}
 853              	.LVL115:
ARM GAS  /tmp/ccktbAOa.s 			page 56


 854              	.L100:
 855 0072 0020     		movs	r0, #0
 856              	.LVL116:
 797:Middlewares/Third_Party/FatFs/src/ff.c **** #endif
 857              		.loc 1 797 0
 858 0074 BDE8F081 		pop	{r4, r5, r6, r7, r8, pc}
 859              		.cfi_endproc
 860              	.LFE135:
 862              		.section	.text.move_window,"ax",%progbits
 863              		.align	1
 864              		.syntax unified
 865              		.thumb
 866              		.thumb_func
 867              		.fpu fpv4-sp-d16
 869              	move_window:
 870              	.LFB136:
 806:Middlewares/Third_Party/FatFs/src/ff.c **** 	FRESULT res = FR_OK;
 871              		.loc 1 806 0
 872              		.cfi_startproc
 873              		@ args = 0, pretend = 0, frame = 0
 874              		@ frame_needed = 0, uses_anonymous_args = 0
 875              	.LVL117:
 876 0000 70B5     		push	{r4, r5, r6, lr}
 877              	.LCFI10:
 878              		.cfi_def_cfa_offset 16
 879              		.cfi_offset 4, -16
 880              		.cfi_offset 5, -12
 881              		.cfi_offset 6, -8
 882              		.cfi_offset 14, -4
 883              	.LVL118:
 810:Middlewares/Third_Party/FatFs/src/ff.c **** #if !_FS_READONLY
 884              		.loc 1 810 0
 885 0002 D0F82C32 		ldr	r3, [r0, #556]
 886 0006 8B42     		cmp	r3, r1
 887 0008 16D0     		beq	.L111
 888 000a 0446     		mov	r4, r0
 889 000c 0D46     		mov	r5, r1
 812:Middlewares/Third_Party/FatFs/src/ff.c **** #endif
 890              		.loc 1 812 0
 891 000e FFF7FEFF 		bl	sync_window
 892              	.LVL119:
 814:Middlewares/Third_Party/FatFs/src/ff.c **** 			if (disk_read(fs->drv, fs->win.d8, sector, 1) != RES_OK) {
 893              		.loc 1 814 0
 894 0012 0646     		mov	r6, r0
 895 0014 08B1     		cbz	r0, .L113
 896              	.LVL120:
 897              	.L109:
 823:Middlewares/Third_Party/FatFs/src/ff.c **** 
 898              		.loc 1 823 0
 899 0016 3046     		mov	r0, r6
 900 0018 70BD     		pop	{r4, r5, r6, pc}
 901              	.LVL121:
 902              	.L113:
 815:Middlewares/Third_Party/FatFs/src/ff.c **** 				sector = 0xFFFFFFFF;	/* Invalidate window if data is not reliable */
 903              		.loc 1 815 0
 904 001a 0123     		movs	r3, #1
 905 001c 2A46     		mov	r2, r5
ARM GAS  /tmp/ccktbAOa.s 			page 57


 906 001e 2146     		mov	r1, r4
 907 0020 94F80102 		ldrb	r0, [r4, #513]	@ zero_extendqisi2
 908              	.LVL122:
 909 0024 FFF7FEFF 		bl	disk_read
 910              	.LVL123:
 911 0028 0028     		cmp	r0, #0
 817:Middlewares/Third_Party/FatFs/src/ff.c **** 			}
 912              		.loc 1 817 0
 913 002a 1CBF     		itt	ne
 914 002c 0126     		movne	r6, #1
 915 002e 4FF0FF35 		movne	r5, #-1
 916              	.LVL124:
 819:Middlewares/Third_Party/FatFs/src/ff.c **** 		}
 917              		.loc 1 819 0
 918 0032 C4F82C52 		str	r5, [r4, #556]
 919 0036 EEE7     		b	.L109
 920              	.LVL125:
 921              	.L111:
 807:Middlewares/Third_Party/FatFs/src/ff.c **** 
 922              		.loc 1 807 0
 923 0038 0026     		movs	r6, #0
 924 003a ECE7     		b	.L109
 925              		.cfi_endproc
 926              	.LFE136:
 928              		.section	.text.check_fs,"ax",%progbits
 929              		.align	1
 930              		.syntax unified
 931              		.thumb
 932              		.thumb_func
 933              		.fpu fpv4-sp-d16
 935              	check_fs:
 936              	.LFB157:
2239:Middlewares/Third_Party/FatFs/src/ff.c **** 
2240:Middlewares/Third_Party/FatFs/src/ff.c **** 
2241:Middlewares/Third_Party/FatFs/src/ff.c **** 
2242:Middlewares/Third_Party/FatFs/src/ff.c **** 
2243:Middlewares/Third_Party/FatFs/src/ff.c **** /*-----------------------------------------------------------------------*/
2244:Middlewares/Third_Party/FatFs/src/ff.c **** /* Load a sector and check if it is an FAT boot sector                   */
2245:Middlewares/Third_Party/FatFs/src/ff.c **** /*-----------------------------------------------------------------------*/
2246:Middlewares/Third_Party/FatFs/src/ff.c **** 
2247:Middlewares/Third_Party/FatFs/src/ff.c **** static
2248:Middlewares/Third_Party/FatFs/src/ff.c **** BYTE check_fs (	/* 0:FAT boor sector, 1:Valid boor sector but not FAT, 2:Not a boot sector, 3:Disk 
2249:Middlewares/Third_Party/FatFs/src/ff.c **** 	FATFS* fs,	/* File system object */
2250:Middlewares/Third_Party/FatFs/src/ff.c **** 	DWORD sect	/* Sector# (lba) to check if it is an FAT boot record or not */
2251:Middlewares/Third_Party/FatFs/src/ff.c **** )
2252:Middlewares/Third_Party/FatFs/src/ff.c **** {
 937              		.loc 1 2252 0
 938              		.cfi_startproc
 939              		@ args = 0, pretend = 0, frame = 0
 940              		@ frame_needed = 0, uses_anonymous_args = 0
 941              	.LVL126:
 942 0000 10B5     		push	{r4, lr}
 943              	.LCFI11:
 944              		.cfi_def_cfa_offset 8
 945              		.cfi_offset 4, -8
 946              		.cfi_offset 14, -4
 947 0002 0446     		mov	r4, r0
ARM GAS  /tmp/ccktbAOa.s 			page 58


2253:Middlewares/Third_Party/FatFs/src/ff.c **** 	fs->wflag = 0; fs->winsect = 0xFFFFFFFF;	/* Invaidate window */
 948              		.loc 1 2253 0
 949 0004 0023     		movs	r3, #0
 950 0006 80F80432 		strb	r3, [r0, #516]
 951 000a 4FF0FF33 		mov	r3, #-1
 952 000e C0F82C32 		str	r3, [r0, #556]
2254:Middlewares/Third_Party/FatFs/src/ff.c **** 	if (move_window(fs, sect) != FR_OK)			/* Load boot record */
 953              		.loc 1 2254 0
 954 0012 FFF7FEFF 		bl	move_window
 955              	.LVL127:
 956 0016 08B1     		cbz	r0, .L120
2255:Middlewares/Third_Party/FatFs/src/ff.c **** 		return 3;
 957              		.loc 1 2255 0
 958 0018 0320     		movs	r0, #3
 959 001a 10BD     		pop	{r4, pc}
 960              	.LVL128:
 961              	.L120:
2256:Middlewares/Third_Party/FatFs/src/ff.c **** 
2257:Middlewares/Third_Party/FatFs/src/ff.c **** 	if (LD_WORD(&fs->win.d8[BS_55AA]) != 0xAA55)	/* Check boot record signature (always placed at offs
 962              		.loc 1 2257 0
 963 001c 94F8FF21 		ldrb	r2, [r4, #511]	@ zero_extendqisi2
 964 0020 94F8FE31 		ldrb	r3, [r4, #510]	@ zero_extendqisi2
 965 0024 43EA0223 		orr	r3, r3, r2, lsl #8
 966 0028 1BB2     		sxth	r3, r3
 967 002a 174A     		ldr	r2, .L122
 968 002c 9342     		cmp	r3, r2
 969 002e 01D0     		beq	.L121
2258:Middlewares/Third_Party/FatFs/src/ff.c **** 		return 2;
 970              		.loc 1 2258 0
 971 0030 0220     		movs	r0, #2
 972 0032 10BD     		pop	{r4, pc}
 973              	.LVL129:
 974              	.L121:
2259:Middlewares/Third_Party/FatFs/src/ff.c **** 
2260:Middlewares/Third_Party/FatFs/src/ff.c **** 	if ((LD_DWORD(&fs->win.d8[BS_FilSysType]) & 0xFFFFFF) == 0x544146)		/* Check "FAT" string */
 975              		.loc 1 2260 0
 976 0034 94F83920 		ldrb	r2, [r4, #57]	@ zero_extendqisi2
 977 0038 94F83830 		ldrb	r3, [r4, #56]	@ zero_extendqisi2
 978 003c 1B04     		lsls	r3, r3, #16
 979 003e 43EA0263 		orr	r3, r3, r2, lsl #24
 980 0042 94F83620 		ldrb	r2, [r4, #54]	@ zero_extendqisi2
 981 0046 1343     		orrs	r3, r3, r2
 982 0048 94F83720 		ldrb	r2, [r4, #55]	@ zero_extendqisi2
 983 004c 43EA0223 		orr	r3, r3, r2, lsl #8
 984 0050 23F07F43 		bic	r3, r3, #-16777216
 985 0054 0D4A     		ldr	r2, .L122+4
 986 0056 9342     		cmp	r3, r2
 987 0058 13D0     		beq	.L118
2261:Middlewares/Third_Party/FatFs/src/ff.c **** 		return 0;
2262:Middlewares/Third_Party/FatFs/src/ff.c **** 	if ((LD_DWORD(&fs->win.d8[BS_FilSysType32]) & 0xFFFFFF) == 0x544146)	/* Check "FAT" string */
 988              		.loc 1 2262 0
 989 005a 94F85530 		ldrb	r3, [r4, #85]	@ zero_extendqisi2
 990 005e 94F85400 		ldrb	r0, [r4, #84]	@ zero_extendqisi2
 991 0062 0004     		lsls	r0, r0, #16
 992 0064 40EA0360 		orr	r0, r0, r3, lsl #24
 993 0068 94F85230 		ldrb	r3, [r4, #82]	@ zero_extendqisi2
 994 006c 1843     		orrs	r0, r0, r3
ARM GAS  /tmp/ccktbAOa.s 			page 59


 995 006e 94F85330 		ldrb	r3, [r4, #83]	@ zero_extendqisi2
 996 0072 40EA0320 		orr	r0, r0, r3, lsl #8
 997 0076 20F07F40 		bic	r0, r0, #-16777216
2255:Middlewares/Third_Party/FatFs/src/ff.c **** 
 998              		.loc 1 2255 0
 999 007a 801A     		subs	r0, r0, r2
 1000 007c 18BF     		it	ne
 1001 007e 0120     		movne	r0, #1
 1002 0080 10BD     		pop	{r4, pc}
 1003              	.LVL130:
 1004              	.L118:
2261:Middlewares/Third_Party/FatFs/src/ff.c **** 		return 0;
 1005              		.loc 1 2261 0
 1006 0082 0020     		movs	r0, #0
2263:Middlewares/Third_Party/FatFs/src/ff.c **** 		return 0;
2264:Middlewares/Third_Party/FatFs/src/ff.c **** 
2265:Middlewares/Third_Party/FatFs/src/ff.c **** 	return 1;
2266:Middlewares/Third_Party/FatFs/src/ff.c **** }
 1007              		.loc 1 2266 0
 1008 0084 10BD     		pop	{r4, pc}
 1009              	.LVL131:
 1010              	.L123:
 1011 0086 00BF     		.align	2
 1012              	.L122:
 1013 0088 55AAFFFF 		.word	-21931
 1014 008c 46415400 		.word	5521734
 1015              		.cfi_endproc
 1016              	.LFE157:
 1018              		.section	.text.validate,"ax",%progbits
 1019              		.align	1
 1020              		.syntax unified
 1021              		.thumb
 1022              		.thumb_func
 1023              		.fpu fpv4-sp-d16
 1025              	validate:
 1026              	.LFB159:
2267:Middlewares/Third_Party/FatFs/src/ff.c **** 
2268:Middlewares/Third_Party/FatFs/src/ff.c **** 
2269:Middlewares/Third_Party/FatFs/src/ff.c **** 
2270:Middlewares/Third_Party/FatFs/src/ff.c **** 
2271:Middlewares/Third_Party/FatFs/src/ff.c **** /*-----------------------------------------------------------------------*/
2272:Middlewares/Third_Party/FatFs/src/ff.c **** /* Find logical drive and check if the volume is mounted                 */
2273:Middlewares/Third_Party/FatFs/src/ff.c **** /*-----------------------------------------------------------------------*/
2274:Middlewares/Third_Party/FatFs/src/ff.c **** 
2275:Middlewares/Third_Party/FatFs/src/ff.c **** static
2276:Middlewares/Third_Party/FatFs/src/ff.c **** FRESULT find_volume (	/* FR_OK(0): successful, !=0: any error occurred */
2277:Middlewares/Third_Party/FatFs/src/ff.c **** 	FATFS** rfs,		/* Pointer to pointer to the found file system object */
2278:Middlewares/Third_Party/FatFs/src/ff.c **** 	const TCHAR** path,	/* Pointer to pointer to the path name (drive number) */
2279:Middlewares/Third_Party/FatFs/src/ff.c **** 	BYTE wmode			/* !=0: Check write protection for write access */
2280:Middlewares/Third_Party/FatFs/src/ff.c **** )
2281:Middlewares/Third_Party/FatFs/src/ff.c **** {
2282:Middlewares/Third_Party/FatFs/src/ff.c **** 	BYTE fmt, *pt;
2283:Middlewares/Third_Party/FatFs/src/ff.c **** 	int vol;
2284:Middlewares/Third_Party/FatFs/src/ff.c **** 	DSTATUS stat;
2285:Middlewares/Third_Party/FatFs/src/ff.c **** 	DWORD bsect, fasize, tsect, sysect, nclst, szbfat, br[4];
2286:Middlewares/Third_Party/FatFs/src/ff.c **** 	WORD nrsv;
2287:Middlewares/Third_Party/FatFs/src/ff.c **** 	FATFS *fs;
ARM GAS  /tmp/ccktbAOa.s 			page 60


2288:Middlewares/Third_Party/FatFs/src/ff.c **** 	UINT i;
2289:Middlewares/Third_Party/FatFs/src/ff.c **** 
2290:Middlewares/Third_Party/FatFs/src/ff.c **** 
2291:Middlewares/Third_Party/FatFs/src/ff.c **** 	/* Get logical drive number from the path name */
2292:Middlewares/Third_Party/FatFs/src/ff.c **** 	*rfs = 0;
2293:Middlewares/Third_Party/FatFs/src/ff.c **** 	vol = get_ldnumber(path);
2294:Middlewares/Third_Party/FatFs/src/ff.c **** 	if (vol < 0) return FR_INVALID_DRIVE;
2295:Middlewares/Third_Party/FatFs/src/ff.c **** 
2296:Middlewares/Third_Party/FatFs/src/ff.c **** 	/* Check if the file system object is valid or not */
2297:Middlewares/Third_Party/FatFs/src/ff.c **** 	fs = FatFs[vol];					/* Get pointer to the file system object */
2298:Middlewares/Third_Party/FatFs/src/ff.c **** 	if (!fs) return FR_NOT_ENABLED;		/* Is the file system object available? */
2299:Middlewares/Third_Party/FatFs/src/ff.c **** 
2300:Middlewares/Third_Party/FatFs/src/ff.c **** 	ENTER_FF(fs);						/* Lock the volume */
2301:Middlewares/Third_Party/FatFs/src/ff.c **** 	*rfs = fs;							/* Return pointer to the file system object */
2302:Middlewares/Third_Party/FatFs/src/ff.c **** 
2303:Middlewares/Third_Party/FatFs/src/ff.c **** 	if (fs->fs_type) {					/* If the volume has been mounted */
2304:Middlewares/Third_Party/FatFs/src/ff.c **** 		stat = disk_status(fs->drv);
2305:Middlewares/Third_Party/FatFs/src/ff.c **** 		if (!(stat & STA_NOINIT)) {		/* and the physical drive is kept initialized */
2306:Middlewares/Third_Party/FatFs/src/ff.c **** 			if (!_FS_READONLY && wmode && (stat & STA_PROTECT))	/* Check write protection if needed */
2307:Middlewares/Third_Party/FatFs/src/ff.c **** 				return FR_WRITE_PROTECTED;
2308:Middlewares/Third_Party/FatFs/src/ff.c **** 			return FR_OK;				/* The file system object is valid */
2309:Middlewares/Third_Party/FatFs/src/ff.c **** 		}
2310:Middlewares/Third_Party/FatFs/src/ff.c **** 	}
2311:Middlewares/Third_Party/FatFs/src/ff.c **** 
2312:Middlewares/Third_Party/FatFs/src/ff.c **** 	/* The file system object is not valid. */
2313:Middlewares/Third_Party/FatFs/src/ff.c **** 	/* Following code attempts to mount the volume. (analyze BPB and initialize the fs object) */
2314:Middlewares/Third_Party/FatFs/src/ff.c **** 
2315:Middlewares/Third_Party/FatFs/src/ff.c **** 	fs->fs_type = 0;					/* Clear the file system object */
2316:Middlewares/Third_Party/FatFs/src/ff.c **** 	fs->drv = LD2PD(vol);				/* Bind the logical drive and a physical drive */
2317:Middlewares/Third_Party/FatFs/src/ff.c **** 	stat = disk_initialize(fs->drv);	/* Initialize the physical drive */
2318:Middlewares/Third_Party/FatFs/src/ff.c **** 	if (stat & STA_NOINIT)				/* Check if the initialization succeeded */
2319:Middlewares/Third_Party/FatFs/src/ff.c **** 		return FR_NOT_READY;			/* Failed to initialize due to no medium or hard error */
2320:Middlewares/Third_Party/FatFs/src/ff.c **** 	if (!_FS_READONLY && wmode && (stat & STA_PROTECT))	/* Check disk write protection if needed */
2321:Middlewares/Third_Party/FatFs/src/ff.c **** 		return FR_WRITE_PROTECTED;
2322:Middlewares/Third_Party/FatFs/src/ff.c **** #if _MAX_SS != _MIN_SS						/* Get sector size (multiple sector size cfg only) */
2323:Middlewares/Third_Party/FatFs/src/ff.c **** 	if (disk_ioctl(fs->drv, GET_SECTOR_SIZE, &SS(fs)) != RES_OK
2324:Middlewares/Third_Party/FatFs/src/ff.c **** 		|| SS(fs) < _MIN_SS || SS(fs) > _MAX_SS) return FR_DISK_ERR;
2325:Middlewares/Third_Party/FatFs/src/ff.c **** #endif
2326:Middlewares/Third_Party/FatFs/src/ff.c **** 	/* Find an FAT partition on the drive. Supports only generic partitioning, FDISK and SFD. */
2327:Middlewares/Third_Party/FatFs/src/ff.c **** 	bsect = 0;
2328:Middlewares/Third_Party/FatFs/src/ff.c **** 	fmt = check_fs(fs, bsect);					/* Load sector 0 and check if it is an FAT boot sector as SFD */
2329:Middlewares/Third_Party/FatFs/src/ff.c **** 	if (fmt == 1 || (!fmt && (LD2PT(vol)))) {	/* Not an FAT boot sector or forced partition number */
2330:Middlewares/Third_Party/FatFs/src/ff.c **** 		for (i = 0; i < 4; i++) {			/* Get partition offset */
2331:Middlewares/Third_Party/FatFs/src/ff.c **** 			pt = fs->win.d8 + MBR_Table + i * SZ_PTE;
2332:Middlewares/Third_Party/FatFs/src/ff.c **** 			br[i] = pt[4] ? LD_DWORD(&pt[8]) : 0;
2333:Middlewares/Third_Party/FatFs/src/ff.c **** 		}
2334:Middlewares/Third_Party/FatFs/src/ff.c **** 		i = LD2PT(vol);						/* Partition number: 0:auto, 1-4:forced */
2335:Middlewares/Third_Party/FatFs/src/ff.c **** 		if (i) i--;
2336:Middlewares/Third_Party/FatFs/src/ff.c **** 		do {								/* Find an FAT volume */
2337:Middlewares/Third_Party/FatFs/src/ff.c **** 			bsect = br[i];
2338:Middlewares/Third_Party/FatFs/src/ff.c **** 			fmt = bsect ? check_fs(fs, bsect) : 2;	/* Check the partition */
2339:Middlewares/Third_Party/FatFs/src/ff.c **** 		} while (!LD2PT(vol) && fmt && ++i < 4);
2340:Middlewares/Third_Party/FatFs/src/ff.c **** 	}
2341:Middlewares/Third_Party/FatFs/src/ff.c **** 	if (fmt == 3) return FR_DISK_ERR;		/* An error occured in the disk I/O layer */
2342:Middlewares/Third_Party/FatFs/src/ff.c **** 	if (fmt) return FR_NO_FILESYSTEM;		/* No FAT volume is found */
2343:Middlewares/Third_Party/FatFs/src/ff.c **** 
2344:Middlewares/Third_Party/FatFs/src/ff.c **** 	/* An FAT volume is found. Following code initializes the file system object */
ARM GAS  /tmp/ccktbAOa.s 			page 61


2345:Middlewares/Third_Party/FatFs/src/ff.c **** 
2346:Middlewares/Third_Party/FatFs/src/ff.c **** 	if (LD_WORD(fs->win.d8 + BPB_BytsPerSec) != SS(fs))	/* (BPB_BytsPerSec must be equal to the physic
2347:Middlewares/Third_Party/FatFs/src/ff.c **** 		return FR_NO_FILESYSTEM;
2348:Middlewares/Third_Party/FatFs/src/ff.c **** 
2349:Middlewares/Third_Party/FatFs/src/ff.c **** 	fasize = LD_WORD(fs->win.d8 + BPB_FATSz16);			/* Number of sectors per FAT */
2350:Middlewares/Third_Party/FatFs/src/ff.c **** 	if (!fasize) fasize = LD_DWORD(fs->win.d8 + BPB_FATSz32);
2351:Middlewares/Third_Party/FatFs/src/ff.c **** 	fs->fsize = fasize;
2352:Middlewares/Third_Party/FatFs/src/ff.c **** 
2353:Middlewares/Third_Party/FatFs/src/ff.c **** 	fs->n_fats = fs->win.d8[BPB_NumFATs];					/* Number of FAT copies */
2354:Middlewares/Third_Party/FatFs/src/ff.c **** 	if (fs->n_fats != 1 && fs->n_fats != 2)				/* (Must be 1 or 2) */
2355:Middlewares/Third_Party/FatFs/src/ff.c **** 		return FR_NO_FILESYSTEM;
2356:Middlewares/Third_Party/FatFs/src/ff.c **** 	fasize *= fs->n_fats;								/* Number of sectors for FAT area */
2357:Middlewares/Third_Party/FatFs/src/ff.c **** 
2358:Middlewares/Third_Party/FatFs/src/ff.c **** 	fs->csize = fs->win.d8[BPB_SecPerClus];				/* Number of sectors per cluster */
2359:Middlewares/Third_Party/FatFs/src/ff.c **** 	if (!fs->csize || (fs->csize & (fs->csize - 1)))	/* (Must be power of 2) */
2360:Middlewares/Third_Party/FatFs/src/ff.c **** 		return FR_NO_FILESYSTEM;
2361:Middlewares/Third_Party/FatFs/src/ff.c **** 
2362:Middlewares/Third_Party/FatFs/src/ff.c **** 	fs->n_rootdir = LD_WORD(fs->win.d8 + BPB_RootEntCnt);	/* Number of root directory entries */
2363:Middlewares/Third_Party/FatFs/src/ff.c **** 	if (fs->n_rootdir % (SS(fs) / SZ_DIRE))				/* (Must be sector aligned) */
2364:Middlewares/Third_Party/FatFs/src/ff.c **** 		return FR_NO_FILESYSTEM;
2365:Middlewares/Third_Party/FatFs/src/ff.c **** 
2366:Middlewares/Third_Party/FatFs/src/ff.c **** 	tsect = LD_WORD(fs->win.d8 + BPB_TotSec16);			/* Number of sectors on the volume */
2367:Middlewares/Third_Party/FatFs/src/ff.c **** 	if (!tsect) tsect = LD_DWORD(fs->win.d8 + BPB_TotSec32);
2368:Middlewares/Third_Party/FatFs/src/ff.c **** 
2369:Middlewares/Third_Party/FatFs/src/ff.c **** 	nrsv = LD_WORD(fs->win.d8 + BPB_RsvdSecCnt);			/* Number of reserved sectors */
2370:Middlewares/Third_Party/FatFs/src/ff.c **** 	if (!nrsv) return FR_NO_FILESYSTEM;					/* (Must not be 0) */
2371:Middlewares/Third_Party/FatFs/src/ff.c **** 
2372:Middlewares/Third_Party/FatFs/src/ff.c **** 	/* Determine the FAT sub type */
2373:Middlewares/Third_Party/FatFs/src/ff.c **** 	sysect = nrsv + fasize + fs->n_rootdir / (SS(fs) / SZ_DIRE);	/* RSV + FAT + DIR */
2374:Middlewares/Third_Party/FatFs/src/ff.c **** 	if (tsect < sysect) return FR_NO_FILESYSTEM;		/* (Invalid volume size) */
2375:Middlewares/Third_Party/FatFs/src/ff.c **** 	nclst = (tsect - sysect) / fs->csize;				/* Number of clusters */
2376:Middlewares/Third_Party/FatFs/src/ff.c **** 	if (!nclst) return FR_NO_FILESYSTEM;				/* (Invalid volume size) */
2377:Middlewares/Third_Party/FatFs/src/ff.c **** 	fmt = FS_FAT12;
2378:Middlewares/Third_Party/FatFs/src/ff.c **** 	if (nclst >= MIN_FAT16) fmt = FS_FAT16;
2379:Middlewares/Third_Party/FatFs/src/ff.c **** 	if (nclst >= MIN_FAT32) fmt = FS_FAT32;
2380:Middlewares/Third_Party/FatFs/src/ff.c **** 
2381:Middlewares/Third_Party/FatFs/src/ff.c **** 	/* Boundaries and Limits */
2382:Middlewares/Third_Party/FatFs/src/ff.c **** 	fs->n_fatent = nclst + 2;							/* Number of FAT entries */
2383:Middlewares/Third_Party/FatFs/src/ff.c **** 	fs->volbase = bsect;								/* Volume start sector */
2384:Middlewares/Third_Party/FatFs/src/ff.c **** 	fs->fatbase = bsect + nrsv; 						/* FAT start sector */
2385:Middlewares/Third_Party/FatFs/src/ff.c **** 	fs->database = bsect + sysect;						/* Data start sector */
2386:Middlewares/Third_Party/FatFs/src/ff.c **** 	if (fmt == FS_FAT32) {
2387:Middlewares/Third_Party/FatFs/src/ff.c **** 		if (fs->n_rootdir) return FR_NO_FILESYSTEM;		/* (BPB_RootEntCnt must be 0) */
2388:Middlewares/Third_Party/FatFs/src/ff.c **** 		fs->dirbase = LD_DWORD(fs->win.d8 + BPB_RootClus);	/* Root directory start cluster */
2389:Middlewares/Third_Party/FatFs/src/ff.c **** 		szbfat = fs->n_fatent * 4;						/* (Needed FAT size) */
2390:Middlewares/Third_Party/FatFs/src/ff.c **** 	} else {
2391:Middlewares/Third_Party/FatFs/src/ff.c **** 		if (!fs->n_rootdir)	return FR_NO_FILESYSTEM;	/* (BPB_RootEntCnt must not be 0) */
2392:Middlewares/Third_Party/FatFs/src/ff.c **** 		fs->dirbase = fs->fatbase + fasize;				/* Root directory start sector */
2393:Middlewares/Third_Party/FatFs/src/ff.c **** 		szbfat = (fmt == FS_FAT16) ?					/* (Needed FAT size) */
2394:Middlewares/Third_Party/FatFs/src/ff.c **** 			fs->n_fatent * 2 : fs->n_fatent * 3 / 2 + (fs->n_fatent & 1);
2395:Middlewares/Third_Party/FatFs/src/ff.c **** 	}
2396:Middlewares/Third_Party/FatFs/src/ff.c **** 	if (fs->fsize < (szbfat + (SS(fs) - 1)) / SS(fs))	/* (BPB_FATSz must not be less than the size nee
2397:Middlewares/Third_Party/FatFs/src/ff.c **** 		return FR_NO_FILESYSTEM;
2398:Middlewares/Third_Party/FatFs/src/ff.c **** 
2399:Middlewares/Third_Party/FatFs/src/ff.c **** #if !_FS_READONLY
2400:Middlewares/Third_Party/FatFs/src/ff.c **** 	/* Initialize cluster allocation information */
2401:Middlewares/Third_Party/FatFs/src/ff.c **** 	fs->last_clust = fs->free_clust = 0xFFFFFFFF;
ARM GAS  /tmp/ccktbAOa.s 			page 62


2402:Middlewares/Third_Party/FatFs/src/ff.c **** 
2403:Middlewares/Third_Party/FatFs/src/ff.c **** 	/* Get fsinfo if available */
2404:Middlewares/Third_Party/FatFs/src/ff.c **** 	fs->fsi_flag = 0x80;
2405:Middlewares/Third_Party/FatFs/src/ff.c **** #if (_FS_NOFSINFO & 3) != 3
2406:Middlewares/Third_Party/FatFs/src/ff.c **** 	if (fmt == FS_FAT32				/* Enable FSINFO only if FAT32 and BPB_FSInfo is 1 */
2407:Middlewares/Third_Party/FatFs/src/ff.c **** 		&& LD_WORD(fs->win.d8 + BPB_FSInfo) == 1
2408:Middlewares/Third_Party/FatFs/src/ff.c **** 		&& move_window(fs, bsect + 1) == FR_OK)
2409:Middlewares/Third_Party/FatFs/src/ff.c **** 	{
2410:Middlewares/Third_Party/FatFs/src/ff.c **** 		fs->fsi_flag = 0;
2411:Middlewares/Third_Party/FatFs/src/ff.c **** 		if (LD_WORD(fs->win.d8 + BS_55AA) == 0xAA55	/* Load FSINFO data if available */
2412:Middlewares/Third_Party/FatFs/src/ff.c **** 			&& LD_DWORD(fs->win.d8 + FSI_LeadSig) == 0x41615252
2413:Middlewares/Third_Party/FatFs/src/ff.c **** 			&& LD_DWORD(fs->win.d8 + FSI_StrucSig) == 0x61417272)
2414:Middlewares/Third_Party/FatFs/src/ff.c **** 		{
2415:Middlewares/Third_Party/FatFs/src/ff.c **** #if (_FS_NOFSINFO & 1) == 0
2416:Middlewares/Third_Party/FatFs/src/ff.c **** 			fs->free_clust = LD_DWORD(fs->win.d8 + FSI_Free_Count);
2417:Middlewares/Third_Party/FatFs/src/ff.c **** #endif
2418:Middlewares/Third_Party/FatFs/src/ff.c **** #if (_FS_NOFSINFO & 2) == 0
2419:Middlewares/Third_Party/FatFs/src/ff.c **** 			fs->last_clust = LD_DWORD(fs->win.d8 + FSI_Nxt_Free);
2420:Middlewares/Third_Party/FatFs/src/ff.c **** #endif
2421:Middlewares/Third_Party/FatFs/src/ff.c **** 		}
2422:Middlewares/Third_Party/FatFs/src/ff.c **** 	}
2423:Middlewares/Third_Party/FatFs/src/ff.c **** #endif
2424:Middlewares/Third_Party/FatFs/src/ff.c **** #endif
2425:Middlewares/Third_Party/FatFs/src/ff.c **** 	fs->fs_type = fmt;	/* FAT sub-type */
2426:Middlewares/Third_Party/FatFs/src/ff.c **** 	fs->id = ++Fsid;	/* File system mount ID */
2427:Middlewares/Third_Party/FatFs/src/ff.c **** #if _FS_RPATH
2428:Middlewares/Third_Party/FatFs/src/ff.c **** 	fs->cdir = 0;		/* Set current directory to root */
2429:Middlewares/Third_Party/FatFs/src/ff.c **** #endif
2430:Middlewares/Third_Party/FatFs/src/ff.c **** #if _FS_LOCK			/* Clear file lock semaphores */
2431:Middlewares/Third_Party/FatFs/src/ff.c **** 	clear_lock(fs);
2432:Middlewares/Third_Party/FatFs/src/ff.c **** #endif
2433:Middlewares/Third_Party/FatFs/src/ff.c **** 
2434:Middlewares/Third_Party/FatFs/src/ff.c **** 	return FR_OK;
2435:Middlewares/Third_Party/FatFs/src/ff.c **** }
2436:Middlewares/Third_Party/FatFs/src/ff.c **** 
2437:Middlewares/Third_Party/FatFs/src/ff.c **** 
2438:Middlewares/Third_Party/FatFs/src/ff.c **** 
2439:Middlewares/Third_Party/FatFs/src/ff.c **** 
2440:Middlewares/Third_Party/FatFs/src/ff.c **** /*-----------------------------------------------------------------------*/
2441:Middlewares/Third_Party/FatFs/src/ff.c **** /* Check if the file/directory object is valid or not                    */
2442:Middlewares/Third_Party/FatFs/src/ff.c **** /*-----------------------------------------------------------------------*/
2443:Middlewares/Third_Party/FatFs/src/ff.c **** 
2444:Middlewares/Third_Party/FatFs/src/ff.c **** static
2445:Middlewares/Third_Party/FatFs/src/ff.c **** FRESULT validate (	/* FR_OK(0): The object is valid, !=0: Invalid */
2446:Middlewares/Third_Party/FatFs/src/ff.c **** 	void* obj		/* Pointer to the object FIL/DIR to check validity */
2447:Middlewares/Third_Party/FatFs/src/ff.c **** )
2448:Middlewares/Third_Party/FatFs/src/ff.c **** {
 1027              		.loc 1 2448 0
 1028              		.cfi_startproc
 1029              		@ args = 0, pretend = 0, frame = 0
 1030              		@ frame_needed = 0, uses_anonymous_args = 0
 1031              	.LVL132:
2449:Middlewares/Third_Party/FatFs/src/ff.c **** 	FIL *fil = (FIL*)obj;	/* Assuming offset of .fs and .id in the FIL/DIR structure is identical */
2450:Middlewares/Third_Party/FatFs/src/ff.c **** 
2451:Middlewares/Third_Party/FatFs/src/ff.c **** 
2452:Middlewares/Third_Party/FatFs/src/ff.c **** 	if (!fil || !fil->fs || !fil->fs->fs_type || fil->fs->id != fil->id || (disk_status(fil->fs->drv) 
 1032              		.loc 1 2452 0
ARM GAS  /tmp/ccktbAOa.s 			page 63


 1033 0000 D8B1     		cbz	r0, .L126
2448:Middlewares/Third_Party/FatFs/src/ff.c **** 	FIL *fil = (FIL*)obj;	/* Assuming offset of .fs and .id in the FIL/DIR structure is identical */
 1034              		.loc 1 2448 0 discriminator 1
 1035 0002 08B5     		push	{r3, lr}
 1036              	.LCFI12:
 1037              		.cfi_def_cfa_offset 8
 1038              		.cfi_offset 3, -8
 1039              		.cfi_offset 14, -4
 1040              		.loc 1 2452 0 discriminator 1
 1041 0004 D0F80032 		ldr	r3, [r0, #512]
 1042 0008 CBB1     		cbz	r3, .L127
 1043              		.loc 1 2452 0 is_stmt 0 discriminator 2
 1044 000a 93F80012 		ldrb	r1, [r3, #512]	@ zero_extendqisi2
 1045 000e 09B9     		cbnz	r1, .L135
2453:Middlewares/Third_Party/FatFs/src/ff.c **** 		return FR_INVALID_OBJECT;
 1046              		.loc 1 2453 0 is_stmt 1
 1047 0010 0920     		movs	r0, #9
 1048              	.LVL133:
 1049 0012 08BD     		pop	{r3, pc}
 1050              	.LVL134:
 1051              	.L135:
2452:Middlewares/Third_Party/FatFs/src/ff.c **** 		return FR_INVALID_OBJECT;
 1052              		.loc 1 2452 0 discriminator 3
 1053 0014 B3F80612 		ldrh	r1, [r3, #518]
 1054 0018 B0F80422 		ldrh	r2, [r0, #516]
 1055 001c 9142     		cmp	r1, r2
 1056 001e 01D0     		beq	.L136
 1057              		.loc 1 2453 0
 1058 0020 0920     		movs	r0, #9
 1059              	.LVL135:
2454:Middlewares/Third_Party/FatFs/src/ff.c **** 
