ARM GAS  /tmp/ccugowHg.s 			page 1


   1              		.cpu cortex-m4
   2              		.eabi_attribute 27, 1
   3              		.eabi_attribute 28, 1
   4              		.eabi_attribute 23, 1
   5              		.eabi_attribute 24, 1
   6              		.eabi_attribute 25, 1
   7              		.eabi_attribute 26, 1
   8              		.eabi_attribute 30, 2
   9              		.eabi_attribute 34, 1
  10              		.eabi_attribute 18, 4
  11              		.file	"ili9340.c"
  12              		.text
  13              	.Ltext0:
  14              		.cfi_sections	.debug_frame
  15              		.section	.text.ili9340_awake,"ax",%progbits
  16              		.align	1
  17              		.p2align 2,,3
  18              		.global	ili9340_awake
  19              		.syntax unified
  20              		.thumb
  21              		.thumb_func
  22              		.fpu fpv4-sp-d16
  24              	ili9340_awake:
  25              	.LFB136:
  26              		.file 1 "MakiseGUI/MakiseGUI/ILI9340C/ili9340.c"
   1:MakiseGUI/MakiseGUI/ILI9340C/ili9340.c **** //#ifdef MAKISE_ILI9340_USE
   2:MakiseGUI/MakiseGUI/ILI9340C/ili9340.c **** #include "ili9340.h"
   3:MakiseGUI/MakiseGUI/ILI9340C/ili9340.c **** #include "stm32f4xx_hal_tim.h"
   4:MakiseGUI/MakiseGUI/ILI9340C/ili9340.c **** #include "dma.h"
   5:MakiseGUI/MakiseGUI/ILI9340C/ili9340.c **** 
   6:MakiseGUI/MakiseGUI/ILI9340C/ili9340.c **** extern inline void _ili9340_delay(uint32_t x) { HAL_Delay(x); }
   7:MakiseGUI/MakiseGUI/ILI9340C/ili9340.c **** extern inline void _ili9340_rst(uint8_t st){HAL_GPIO_WritePin(ILI9340_RST, st ? GPIO_PIN_SET : GPIO
   8:MakiseGUI/MakiseGUI/ILI9340C/ili9340.c **** extern inline void _ili9340_cs(uint8_t st){HAL_GPIO_WritePin(ILI9340_CS, st ? GPIO_PIN_SET : GPIO_P
   9:MakiseGUI/MakiseGUI/ILI9340C/ili9340.c **** extern inline void _ili9340_dc(uint8_t st){HAL_GPIO_WritePin(ILI9340_DC, st ? GPIO_PIN_SET : GPIO_P
  10:MakiseGUI/MakiseGUI/ILI9340C/ili9340.c **** 
  11:MakiseGUI/MakiseGUI/ILI9340C/ili9340.c **** uint8_t ili9340_backlight = 0;
  12:MakiseGUI/MakiseGUI/ILI9340C/ili9340.c **** 
  13:MakiseGUI/MakiseGUI/ILI9340C/ili9340.c **** void ili9340_driver(MakiseDriver * d)
  14:MakiseGUI/MakiseGUI/ILI9340C/ili9340.c **** {
  15:MakiseGUI/MakiseGUI/ILI9340C/ili9340.c ****     d->lcd_height    = 320;
  16:MakiseGUI/MakiseGUI/ILI9340C/ili9340.c ****     d->lcd_width     = 240;
  17:MakiseGUI/MakiseGUI/ILI9340C/ili9340.c ****     d->buffer_height = MAKISE_BUF_H;
  18:MakiseGUI/MakiseGUI/ILI9340C/ili9340.c ****     d->buffer_width  = MAKISE_BUF_W;
  19:MakiseGUI/MakiseGUI/ILI9340C/ili9340.c ****     d->pixeldepth    = 16;
  20:MakiseGUI/MakiseGUI/ILI9340C/ili9340.c ****     d->buffer        = 0;
  21:MakiseGUI/MakiseGUI/ILI9340C/ili9340.c ****     d->size          = MAKISE_BUF_H * MAKISE_BUF_W * 2;
  22:MakiseGUI/MakiseGUI/ILI9340C/ili9340.c ****     d->posx          = 0;
  23:MakiseGUI/MakiseGUI/ILI9340C/ili9340.c ****     d->posy          = 321;
  24:MakiseGUI/MakiseGUI/ILI9340C/ili9340.c ****     d->init          = &ili9340_init;
  25:MakiseGUI/MakiseGUI/ILI9340C/ili9340.c ****     d->start         = &ili9340_start;
  26:MakiseGUI/MakiseGUI/ILI9340C/ili9340.c ****     d->sleep         = &ili9340_sleep;
  27:MakiseGUI/MakiseGUI/ILI9340C/ili9340.c ****     d->awake         = &ili9340_awake;
  28:MakiseGUI/MakiseGUI/ILI9340C/ili9340.c ****     d->set_backlight = &ili9340_set_backlight;
  29:MakiseGUI/MakiseGUI/ILI9340C/ili9340.c **** }
  30:MakiseGUI/MakiseGUI/ILI9340C/ili9340.c **** 
  31:MakiseGUI/MakiseGUI/ILI9340C/ili9340.c **** uint8_t ili9340_init(MakiseGUI* gui)
  32:MakiseGUI/MakiseGUI/ILI9340C/ili9340.c **** {
ARM GAS  /tmp/ccugowHg.s 			page 2


  33:MakiseGUI/MakiseGUI/ILI9340C/ili9340.c ****     _ili9340_rst(1);
  34:MakiseGUI/MakiseGUI/ILI9340C/ili9340.c ****     _ili9340_delay(5);
  35:MakiseGUI/MakiseGUI/ILI9340C/ili9340.c ****     _ili9340_rst(0);
  36:MakiseGUI/MakiseGUI/ILI9340C/ili9340.c ****     _ili9340_delay(20);
  37:MakiseGUI/MakiseGUI/ILI9340C/ili9340.c ****     _ili9340_rst(1);
  38:MakiseGUI/MakiseGUI/ILI9340C/ili9340.c ****     _ili9340_delay(150);
  39:MakiseGUI/MakiseGUI/ILI9340C/ili9340.c **** 
  40:MakiseGUI/MakiseGUI/ILI9340C/ili9340.c ****     ili9340_write_command(0x01); //software reset
  41:MakiseGUI/MakiseGUI/ILI9340C/ili9340.c ****     _ili9340_delay(5);
  42:MakiseGUI/MakiseGUI/ILI9340C/ili9340.c ****     ili9340_write_command(0x28);
  43:MakiseGUI/MakiseGUI/ILI9340C/ili9340.c ****     // display off
  44:MakiseGUI/MakiseGUI/ILI9340C/ili9340.c ****     //---------------------------------------------------------
  45:MakiseGUI/MakiseGUI/ILI9340C/ili9340.c ****     // magic?
  46:MakiseGUI/MakiseGUI/ILI9340C/ili9340.c ****     ili9340_write_command(0xcf);
  47:MakiseGUI/MakiseGUI/ILI9340C/ili9340.c ****     ili9340_write_data(0x00);
  48:MakiseGUI/MakiseGUI/ILI9340C/ili9340.c ****     ili9340_write_data(0x83);
  49:MakiseGUI/MakiseGUI/ILI9340C/ili9340.c ****     ili9340_write_data(0x30);
  50:MakiseGUI/MakiseGUI/ILI9340C/ili9340.c **** 
  51:MakiseGUI/MakiseGUI/ILI9340C/ili9340.c ****     ili9340_write_command(0xed);
  52:MakiseGUI/MakiseGUI/ILI9340C/ili9340.c ****     ili9340_write_data(0x64);
  53:MakiseGUI/MakiseGUI/ILI9340C/ili9340.c ****     ili9340_write_data(0x03);
  54:MakiseGUI/MakiseGUI/ILI9340C/ili9340.c ****     ili9340_write_data(0x12);
  55:MakiseGUI/MakiseGUI/ILI9340C/ili9340.c ****     ili9340_write_data(0x81);
  56:MakiseGUI/MakiseGUI/ILI9340C/ili9340.c ****     ili9340_write_command(0xe8);
  57:MakiseGUI/MakiseGUI/ILI9340C/ili9340.c ****     ili9340_write_data(0x85);
  58:MakiseGUI/MakiseGUI/ILI9340C/ili9340.c ****     ili9340_write_data(0x01);
  59:MakiseGUI/MakiseGUI/ILI9340C/ili9340.c ****     ili9340_write_data(0x79);
  60:MakiseGUI/MakiseGUI/ILI9340C/ili9340.c ****     ili9340_write_command(0xcb);
  61:MakiseGUI/MakiseGUI/ILI9340C/ili9340.c ****     ili9340_write_data(0x39);
  62:MakiseGUI/MakiseGUI/ILI9340C/ili9340.c ****     ili9340_write_data(0x2c);
  63:MakiseGUI/MakiseGUI/ILI9340C/ili9340.c ****     ili9340_write_data(0x00);
  64:MakiseGUI/MakiseGUI/ILI9340C/ili9340.c ****     ili9340_write_data(0x34);
  65:MakiseGUI/MakiseGUI/ILI9340C/ili9340.c ****     ili9340_write_data(0x02);
  66:MakiseGUI/MakiseGUI/ILI9340C/ili9340.c ****     ili9340_write_command(0xf7);
  67:MakiseGUI/MakiseGUI/ILI9340C/ili9340.c ****     ili9340_write_data(0x20);
  68:MakiseGUI/MakiseGUI/ILI9340C/ili9340.c ****     ili9340_write_command(0xea);
  69:MakiseGUI/MakiseGUI/ILI9340C/ili9340.c ****     ili9340_write_data(0x00);
  70:MakiseGUI/MakiseGUI/ILI9340C/ili9340.c ****     ili9340_write_data(0x00);
  71:MakiseGUI/MakiseGUI/ILI9340C/ili9340.c ****     //------------power control------------------------------
  72:MakiseGUI/MakiseGUI/ILI9340C/ili9340.c ****     ili9340_write_command(0xc0); //power control
  73:MakiseGUI/MakiseGUI/ILI9340C/ili9340.c ****     ili9340_write_data(0x26);
  74:MakiseGUI/MakiseGUI/ILI9340C/ili9340.c ****     ili9340_write_command(0xc1); //power control
  75:MakiseGUI/MakiseGUI/ILI9340C/ili9340.c ****     ili9340_write_data(0x11);
  76:MakiseGUI/MakiseGUI/ILI9340C/ili9340.c ****     //--------------VCOM
  77:MakiseGUI/MakiseGUI/ILI9340C/ili9340.c ****     ili9340_write_command(0xc5); //vcom control
  78:MakiseGUI/MakiseGUI/ILI9340C/ili9340.c ****     ili9340_write_data(0x35);//35
  79:MakiseGUI/MakiseGUI/ILI9340C/ili9340.c ****     ili9340_write_data(0x3e);//3E
  80:MakiseGUI/MakiseGUI/ILI9340C/ili9340.c ****     ili9340_write_command(0xc7); //vcom control
  81:MakiseGUI/MakiseGUI/ILI9340C/ili9340.c ****     ili9340_write_data(0xbe); // 0x94
  82:MakiseGUI/MakiseGUI/ILI9340C/ili9340.c ****     //------------memory access control------------------------
  83:MakiseGUI/MakiseGUI/ILI9340C/ili9340.c ****     ili9340_write_command(0x36);
  84:MakiseGUI/MakiseGUI/ILI9340C/ili9340.c ****     // memory access control
  85:MakiseGUI/MakiseGUI/ILI9340C/ili9340.c ****     ili9340_write_data(0x48); //0048 my,mx,mv,ml,BGR,mh,0.0
  86:MakiseGUI/MakiseGUI/ILI9340C/ili9340.c ****     ili9340_write_command(0x3a); // pixel format set
  87:MakiseGUI/MakiseGUI/ILI9340C/ili9340.c ****     ili9340_write_data(0x55);//16bit /pixel
  88:MakiseGUI/MakiseGUI/ILI9340C/ili9340.c ****     //----------------- frame rate------------------------------
  89:MakiseGUI/MakiseGUI/ILI9340C/ili9340.c ****     ili9340_write_command(0xb1);
ARM GAS  /tmp/ccugowHg.s 			page 3


  90:MakiseGUI/MakiseGUI/ILI9340C/ili9340.c ****     // frame rate
  91:MakiseGUI/MakiseGUI/ILI9340C/ili9340.c ****     ili9340_write_data(0x00);
  92:MakiseGUI/MakiseGUI/ILI9340C/ili9340.c ****     ili9340_write_data(0x1B); //70
  93:MakiseGUI/MakiseGUI/ILI9340C/ili9340.c ****     //----------------Gamma---------------------------------
  94:MakiseGUI/MakiseGUI/ILI9340C/ili9340.c ****     ili9340_write_command(0xf2); // 3Gamma Function Disable
  95:MakiseGUI/MakiseGUI/ILI9340C/ili9340.c ****     ili9340_write_data(0x08);
  96:MakiseGUI/MakiseGUI/ILI9340C/ili9340.c ****     ili9340_write_command(0x26);
  97:MakiseGUI/MakiseGUI/ILI9340C/ili9340.c ****     ili9340_write_data(0x02); // gamma set 4 gamma curve 01/02/04/08
  98:MakiseGUI/MakiseGUI/ILI9340C/ili9340.c **** 
  99:MakiseGUI/MakiseGUI/ILI9340C/ili9340.c ****     ili9340_write_command(0xE0); //positive gamma correction
 100:MakiseGUI/MakiseGUI/ILI9340C/ili9340.c ****     ili9340_write_data(0x0F); 
 101:MakiseGUI/MakiseGUI/ILI9340C/ili9340.c ****     ili9340_write_data(0x31); 
 102:MakiseGUI/MakiseGUI/ILI9340C/ili9340.c ****     ili9340_write_data(0x2B); 
 103:MakiseGUI/MakiseGUI/ILI9340C/ili9340.c ****     ili9340_write_data(0x0C); 
 104:MakiseGUI/MakiseGUI/ILI9340C/ili9340.c ****     ili9340_write_data(0x0E); 
 105:MakiseGUI/MakiseGUI/ILI9340C/ili9340.c ****     ili9340_write_data(0x08); 
 106:MakiseGUI/MakiseGUI/ILI9340C/ili9340.c ****     ili9340_write_data(0x4E); 
 107:MakiseGUI/MakiseGUI/ILI9340C/ili9340.c ****     ili9340_write_data(0xF1); 
 108:MakiseGUI/MakiseGUI/ILI9340C/ili9340.c ****     ili9340_write_data(0x37); 
 109:MakiseGUI/MakiseGUI/ILI9340C/ili9340.c ****     ili9340_write_data(0x07); 
 110:MakiseGUI/MakiseGUI/ILI9340C/ili9340.c ****     ili9340_write_data(0x10); 
 111:MakiseGUI/MakiseGUI/ILI9340C/ili9340.c ****     ili9340_write_data(0x03); 
 112:MakiseGUI/MakiseGUI/ILI9340C/ili9340.c ****     ili9340_write_data(0x0E); 
 113:MakiseGUI/MakiseGUI/ILI9340C/ili9340.c ****     ili9340_write_data(0x09); 
 114:MakiseGUI/MakiseGUI/ILI9340C/ili9340.c ****     ili9340_write_data(0x00); 
 115:MakiseGUI/MakiseGUI/ILI9340C/ili9340.c ****     ili9340_write_command(0xE1); //negamma correction
 116:MakiseGUI/MakiseGUI/ILI9340C/ili9340.c ****     ili9340_write_data(0x00); 
 117:MakiseGUI/MakiseGUI/ILI9340C/ili9340.c ****     ili9340_write_data(0x0E); 
 118:MakiseGUI/MakiseGUI/ILI9340C/ili9340.c ****     ili9340_write_data(0x14); 
 119:MakiseGUI/MakiseGUI/ILI9340C/ili9340.c ****     ili9340_write_data(0x03); 
 120:MakiseGUI/MakiseGUI/ILI9340C/ili9340.c ****     ili9340_write_data(0x11); 
 121:MakiseGUI/MakiseGUI/ILI9340C/ili9340.c ****     ili9340_write_data(0x07); 
 122:MakiseGUI/MakiseGUI/ILI9340C/ili9340.c ****     ili9340_write_data(0x31); 
 123:MakiseGUI/MakiseGUI/ILI9340C/ili9340.c ****     ili9340_write_data(0xC1); 
 124:MakiseGUI/MakiseGUI/ILI9340C/ili9340.c ****     ili9340_write_data(0x48); 
 125:MakiseGUI/MakiseGUI/ILI9340C/ili9340.c ****     ili9340_write_data(0x08); 
 126:MakiseGUI/MakiseGUI/ILI9340C/ili9340.c ****     ili9340_write_data(0x0F); 
 127:MakiseGUI/MakiseGUI/ILI9340C/ili9340.c ****     ili9340_write_data(0x0C); 
 128:MakiseGUI/MakiseGUI/ILI9340C/ili9340.c ****     ili9340_write_data(0x31); 
 129:MakiseGUI/MakiseGUI/ILI9340C/ili9340.c ****     ili9340_write_data(0x36); 
 130:MakiseGUI/MakiseGUI/ILI9340C/ili9340.c ****     ili9340_write_data(0x0F); 
 131:MakiseGUI/MakiseGUI/ILI9340C/ili9340.c ****     //--------------ddram ---------------------
 132:MakiseGUI/MakiseGUI/ILI9340C/ili9340.c ****     ili9340_write_command(0x2a);
 133:MakiseGUI/MakiseGUI/ILI9340C/ili9340.c ****     // column set
 134:MakiseGUI/MakiseGUI/ILI9340C/ili9340.c ****     // size = 239
 135:MakiseGUI/MakiseGUI/ILI9340C/ili9340.c ****     ili9340_write_data(0x00);
 136:MakiseGUI/MakiseGUI/ILI9340C/ili9340.c ****     ili9340_write_data(0x00);
 137:MakiseGUI/MakiseGUI/ILI9340C/ili9340.c ****     ili9340_write_data(0x00);
 138:MakiseGUI/MakiseGUI/ILI9340C/ili9340.c ****     ili9340_write_data(0xEF);
 139:MakiseGUI/MakiseGUI/ILI9340C/ili9340.c ****     ili9340_write_command(0x2b);
 140:MakiseGUI/MakiseGUI/ILI9340C/ili9340.c ****     // page address set
 141:MakiseGUI/MakiseGUI/ILI9340C/ili9340.c ****     // size = 319
 142:MakiseGUI/MakiseGUI/ILI9340C/ili9340.c ****     ili9340_write_data(0x00);
 143:MakiseGUI/MakiseGUI/ILI9340C/ili9340.c ****     ili9340_write_data(0x00);
 144:MakiseGUI/MakiseGUI/ILI9340C/ili9340.c ****     ili9340_write_data(0x01);
 145:MakiseGUI/MakiseGUI/ILI9340C/ili9340.c ****     ili9340_write_data(0x3F);
 146:MakiseGUI/MakiseGUI/ILI9340C/ili9340.c ****     ili9340_write_command(0x34);
ARM GAS  /tmp/ccugowHg.s 			page 4


 147:MakiseGUI/MakiseGUI/ILI9340C/ili9340.c ****     ili9340_write_command(0x35);
 148:MakiseGUI/MakiseGUI/ILI9340C/ili9340.c ****     ili9340_write_data(0x01);
 149:MakiseGUI/MakiseGUI/ILI9340C/ili9340.c ****     // tearing effect off
 150:MakiseGUI/MakiseGUI/ILI9340C/ili9340.c ****     // tearing effect on
 151:MakiseGUI/MakiseGUI/ILI9340C/ili9340.c ****     // ili9340_write_command(0xb4); // display inversion
 152:MakiseGUI/MakiseGUI/ILI9340C/ili9340.c ****     ili9340_write_command(0xb7); //entry mode set
 153:MakiseGUI/MakiseGUI/ILI9340C/ili9340.c ****     ili9340_write_data(0x07);
 154:MakiseGUI/MakiseGUI/ILI9340C/ili9340.c ****     //-----------------display---------------------
 155:MakiseGUI/MakiseGUI/ILI9340C/ili9340.c ****     ili9340_write_command(0xb6);
 156:MakiseGUI/MakiseGUI/ILI9340C/ili9340.c ****     // display function control
 157:MakiseGUI/MakiseGUI/ILI9340C/ili9340.c ****     ili9340_write_data(0x0a);
 158:MakiseGUI/MakiseGUI/ILI9340C/ili9340.c ****     ili9340_write_data(0x82);
 159:MakiseGUI/MakiseGUI/ILI9340C/ili9340.c ****     ili9340_write_data(0x27);
 160:MakiseGUI/MakiseGUI/ILI9340C/ili9340.c ****     ili9340_write_data(0x00);
 161:MakiseGUI/MakiseGUI/ILI9340C/ili9340.c ****     ili9340_write_command(0x11); //sleep out
 162:MakiseGUI/MakiseGUI/ILI9340C/ili9340.c ****     _ili9340_delay(100);
 163:MakiseGUI/MakiseGUI/ILI9340C/ili9340.c ****     ili9340_write_command(0x29); // display on
 164:MakiseGUI/MakiseGUI/ILI9340C/ili9340.c ****     _ili9340_delay(100);
 165:MakiseGUI/MakiseGUI/ILI9340C/ili9340.c **** 
 166:MakiseGUI/MakiseGUI/ILI9340C/ili9340.c ****     
 167:MakiseGUI/MakiseGUI/ILI9340C/ili9340.c ****     return HAL_OK;
 168:MakiseGUI/MakiseGUI/ILI9340C/ili9340.c **** }
 169:MakiseGUI/MakiseGUI/ILI9340C/ili9340.c **** uint8_t _ili9340_addr_kek[2];
 170:MakiseGUI/MakiseGUI/ILI9340C/ili9340.c **** void setAddrWindow(uint16_t x0, uint16_t y0, uint16_t x1,
 171:MakiseGUI/MakiseGUI/ILI9340C/ili9340.c **** 		   uint16_t y1) {
 172:MakiseGUI/MakiseGUI/ILI9340C/ili9340.c **** 
 173:MakiseGUI/MakiseGUI/ILI9340C/ili9340.c ****     _ili9340_cs(0);
 174:MakiseGUI/MakiseGUI/ILI9340C/ili9340.c ****     ili9340_write_command(ILI9340_CASET); // Column addr set
 175:MakiseGUI/MakiseGUI/ILI9340C/ili9340.c ****     
 176:MakiseGUI/MakiseGUI/ILI9340C/ili9340.c ****     _ili9340_dc(1);
 177:MakiseGUI/MakiseGUI/ILI9340C/ili9340.c ****     _ili9340_addr_kek[0] = x0 >> 8;
 178:MakiseGUI/MakiseGUI/ILI9340C/ili9340.c ****     _ili9340_addr_kek[1] = x0;
 179:MakiseGUI/MakiseGUI/ILI9340C/ili9340.c ****     _ili9340_addr_kek[2] = x1 >> 8;
 180:MakiseGUI/MakiseGUI/ILI9340C/ili9340.c ****     _ili9340_addr_kek[3] = x1;
 181:MakiseGUI/MakiseGUI/ILI9340C/ili9340.c ****     HAL_SPI_Transmit(&ILI9340_SPI, (uint8_t*)_ili9340_addr_kek, 4, 10);
 182:MakiseGUI/MakiseGUI/ILI9340C/ili9340.c **** 
 183:MakiseGUI/MakiseGUI/ILI9340C/ili9340.c ****     ili9340_write_command(ILI9340_PASET); // Row addr set
 184:MakiseGUI/MakiseGUI/ILI9340C/ili9340.c **** 
 185:MakiseGUI/MakiseGUI/ILI9340C/ili9340.c ****     _ili9340_dc(1);
 186:MakiseGUI/MakiseGUI/ILI9340C/ili9340.c ****     _ili9340_addr_kek[0] = y0 >> 8;
 187:MakiseGUI/MakiseGUI/ILI9340C/ili9340.c ****     _ili9340_addr_kek[1] = y0;
 188:MakiseGUI/MakiseGUI/ILI9340C/ili9340.c ****     _ili9340_addr_kek[2] = y1 >>8;
 189:MakiseGUI/MakiseGUI/ILI9340C/ili9340.c ****     _ili9340_addr_kek[3] = y1;
 190:MakiseGUI/MakiseGUI/ILI9340C/ili9340.c ****     HAL_SPI_Transmit(&ILI9340_SPI, (uint8_t*)_ili9340_addr_kek, 4, 10);
 191:MakiseGUI/MakiseGUI/ILI9340C/ili9340.c **** 
 192:MakiseGUI/MakiseGUI/ILI9340C/ili9340.c ****     ili9340_write_command(ILI9340_RAMWR); // write to RAM
 193:MakiseGUI/MakiseGUI/ILI9340C/ili9340.c **** }
 194:MakiseGUI/MakiseGUI/ILI9340C/ili9340.c **** 
 195:MakiseGUI/MakiseGUI/ILI9340C/ili9340.c **** uint32_t t, ss, se, w=0;
 196:MakiseGUI/MakiseGUI/ILI9340C/ili9340.c **** uint8_t ili_f = 0;
 197:MakiseGUI/MakiseGUI/ILI9340C/ili9340.c **** uint8_t col = 0;
 198:MakiseGUI/MakiseGUI/ILI9340C/ili9340.c **** void strt_tx(MakiseDriver* d)
 199:MakiseGUI/MakiseGUI/ILI9340C/ili9340.c **** {
 200:MakiseGUI/MakiseGUI/ILI9340C/ili9340.c ****     uint8_t dr = 0;
 201:MakiseGUI/MakiseGUI/ILI9340C/ili9340.c ****     MakiseBuffer *bu = d->gui->buffer;
 202:MakiseGUI/MakiseGUI/ILI9340C/ili9340.c ****     
 203:MakiseGUI/MakiseGUI/ILI9340C/ili9340.c ****     if(d->posy >= d->lcd_height)
ARM GAS  /tmp/ccugowHg.s 			page 5


 204:MakiseGUI/MakiseGUI/ILI9340C/ili9340.c ****     {
 205:MakiseGUI/MakiseGUI/ILI9340C/ili9340.c **** 	ili_f = 0;
 206:MakiseGUI/MakiseGUI/ILI9340C/ili9340.c **** 	dr = 1;
 207:MakiseGUI/MakiseGUI/ILI9340C/ili9340.c **** 	d->posy = 0;
 208:MakiseGUI/MakiseGUI/ILI9340C/ili9340.c **** 
 209:MakiseGUI/MakiseGUI/ILI9340C/ili9340.c **** 	memset(bu->buffer +
 210:MakiseGUI/MakiseGUI/ILI9340C/ili9340.c **** 	       d->lcd_width * (d->lcd_height - d->buffer_height) * bu->pixeldepth / 8,
 211:MakiseGUI/MakiseGUI/ILI9340C/ili9340.c **** 	       col, d->lcd_width * d->buffer_height * bu->pixeldepth / 8);
 212:MakiseGUI/MakiseGUI/ILI9340C/ili9340.c **** 	
 213:MakiseGUI/MakiseGUI/ILI9340C/ili9340.c **** 	if(d->gui->draw != 0)
 214:MakiseGUI/MakiseGUI/ILI9340C/ili9340.c **** 	{
 215:MakiseGUI/MakiseGUI/ILI9340C/ili9340.c **** 	    d->gui->draw(d->gui);
 216:MakiseGUI/MakiseGUI/ILI9340C/ili9340.c **** 	}
 217:MakiseGUI/MakiseGUI/ILI9340C/ili9340.c ****     }
 218:MakiseGUI/MakiseGUI/ILI9340C/ili9340.c ****     else if(d->posy != 0)
 219:MakiseGUI/MakiseGUI/ILI9340C/ili9340.c ****     {
 220:MakiseGUI/MakiseGUI/ILI9340C/ili9340.c **** 	//HAL_DMA_Start_IT(&hdma_memtomem_dma2_stream0,
 221:MakiseGUI/MakiseGUI/ILI9340C/ili9340.c **** 	//(uint32_t)&col,
 222:MakiseGUI/MakiseGUI/ILI9340C/ili9340.c **** 	uint32_t g = 0;
 223:MakiseGUI/MakiseGUI/ILI9340C/ili9340.c **** 	memset(bu->buffer + (d->posy - d->buffer_height) *
 224:MakiseGUI/MakiseGUI/ILI9340C/ili9340.c **** 	       d->lcd_width * bu->pixeldepth / 32,
 225:MakiseGUI/MakiseGUI/ILI9340C/ili9340.c **** 	       g,
 226:MakiseGUI/MakiseGUI/ILI9340C/ili9340.c **** 	       d->lcd_width * d->buffer_height * bu->pixeldepth / 8);
 227:MakiseGUI/MakiseGUI/ILI9340C/ili9340.c ****     }
 228:MakiseGUI/MakiseGUI/ILI9340C/ili9340.c **** 
 229:MakiseGUI/MakiseGUI/ILI9340C/ili9340.c ****     setAddrWindow(0, d->posy, d->lcd_width, d->buffer_height - 1 + d->posy);
 230:MakiseGUI/MakiseGUI/ILI9340C/ili9340.c ****     ili9340_render(d->gui);
 231:MakiseGUI/MakiseGUI/ILI9340C/ili9340.c **** 
 232:MakiseGUI/MakiseGUI/ILI9340C/ili9340.c ****     _ili9340_dc(1);
 233:MakiseGUI/MakiseGUI/ILI9340C/ili9340.c ****     _ili9340_cs(0);
 234:MakiseGUI/MakiseGUI/ILI9340C/ili9340.c **** 
 235:MakiseGUI/MakiseGUI/ILI9340C/ili9340.c ****     if(w==0)
 236:MakiseGUI/MakiseGUI/ILI9340C/ili9340.c ****     {
 237:MakiseGUI/MakiseGUI/ILI9340C/ili9340.c **** 	HAL_SPI_Transmit_DMA(&ILI9340_SPI, d->buffer, d->size);
 238:MakiseGUI/MakiseGUI/ILI9340C/ili9340.c **** 	w = 1;
 239:MakiseGUI/MakiseGUI/ILI9340C/ili9340.c ****     }
 240:MakiseGUI/MakiseGUI/ILI9340C/ili9340.c ****     else
 241:MakiseGUI/MakiseGUI/ILI9340C/ili9340.c ****     {
 242:MakiseGUI/MakiseGUI/ILI9340C/ili9340.c **** 	HAL_DMA_Start_IT(ILI9340_SPI.hdmatx, (uint32_t)d->buffer, (uint32_t)&ILI9340_SPI.Instance->DR, d->
 243:MakiseGUI/MakiseGUI/ILI9340C/ili9340.c **** 	  /* Enable the SPI Error Interrupt Bit */
 244:MakiseGUI/MakiseGUI/ILI9340C/ili9340.c **** 	SET_BIT(ILI9340_SPI.Instance->CR2, SPI_CR2_ERRIE);
 245:MakiseGUI/MakiseGUI/ILI9340C/ili9340.c **** 
 246:MakiseGUI/MakiseGUI/ILI9340C/ili9340.c **** 	/* Enable Tx DMA Request */
 247:MakiseGUI/MakiseGUI/ILI9340C/ili9340.c **** 	SET_BIT(ILI9340_SPI.Instance->CR2, SPI_CR2_TXDMAEN);
 248:MakiseGUI/MakiseGUI/ILI9340C/ili9340.c **** 
 249:MakiseGUI/MakiseGUI/ILI9340C/ili9340.c ****     }
 250:MakiseGUI/MakiseGUI/ILI9340C/ili9340.c **** //    HAL_GPIO_TogglePin(GPIOB, GPIO_PIN_3);
 251:MakiseGUI/MakiseGUI/ILI9340C/ili9340.c ****     if(dr)
 252:MakiseGUI/MakiseGUI/ILI9340C/ili9340.c ****     {
 253:MakiseGUI/MakiseGUI/ILI9340C/ili9340.c **** 	if(d->gui->predraw != 0)
 254:MakiseGUI/MakiseGUI/ILI9340C/ili9340.c **** 	{
 255:MakiseGUI/MakiseGUI/ILI9340C/ili9340.c **** 	    d->gui->predraw(d->gui);
 256:MakiseGUI/MakiseGUI/ILI9340C/ili9340.c **** 	}
 257:MakiseGUI/MakiseGUI/ILI9340C/ili9340.c **** 	if(d->gui->update != 0)
 258:MakiseGUI/MakiseGUI/ILI9340C/ili9340.c **** 	{
 259:MakiseGUI/MakiseGUI/ILI9340C/ili9340.c **** 	    d->gui->update(d->gui);
 260:MakiseGUI/MakiseGUI/ILI9340C/ili9340.c **** 	}
ARM GAS  /tmp/ccugowHg.s 			page 6


 261:MakiseGUI/MakiseGUI/ILI9340C/ili9340.c ****     }
 262:MakiseGUI/MakiseGUI/ILI9340C/ili9340.c **** }
 263:MakiseGUI/MakiseGUI/ILI9340C/ili9340.c **** 
 264:MakiseGUI/MakiseGUI/ILI9340C/ili9340.c **** uint8_t ili9340_start(MakiseGUI* gui)
 265:MakiseGUI/MakiseGUI/ILI9340C/ili9340.c **** {
 266:MakiseGUI/MakiseGUI/ILI9340C/ili9340.c ****     if(ILI9340_LED_USE_PWM)
 267:MakiseGUI/MakiseGUI/ILI9340C/ili9340.c ****     {
 268:MakiseGUI/MakiseGUI/ILI9340C/ili9340.c **** 	HAL_TIM_Base_Start(ILI9340_LED_PWM);
 269:MakiseGUI/MakiseGUI/ILI9340C/ili9340.c **** 	HAL_TIM_PWM_Start(ILI9340_LED_PWM, ILI9340_LED_PWM_CHANNEL);
 270:MakiseGUI/MakiseGUI/ILI9340C/ili9340.c ****     }
 271:MakiseGUI/MakiseGUI/ILI9340C/ili9340.c **** //    ili9340_set_backlight(1);
 272:MakiseGUI/MakiseGUI/ILI9340C/ili9340.c ****     ili9340_set_backlight(gui, 31);
 273:MakiseGUI/MakiseGUI/ILI9340C/ili9340.c ****     strt_tx(gui->driver);
 274:MakiseGUI/MakiseGUI/ILI9340C/ili9340.c **** }
 275:MakiseGUI/MakiseGUI/ILI9340C/ili9340.c **** uint8_t ili9340_sleep(MakiseGUI* gui)
 276:MakiseGUI/MakiseGUI/ILI9340C/ili9340.c **** {
 277:MakiseGUI/MakiseGUI/ILI9340C/ili9340.c ****     
 278:MakiseGUI/MakiseGUI/ILI9340C/ili9340.c **** }
 279:MakiseGUI/MakiseGUI/ILI9340C/ili9340.c **** uint8_t ili9340_awake(MakiseGUI* gui)
 280:MakiseGUI/MakiseGUI/ILI9340C/ili9340.c **** {
  27              		.loc 1 280 0
  28              		.cfi_startproc
  29              		@ args = 0, pretend = 0, frame = 0
  30              		@ frame_needed = 0, uses_anonymous_args = 0
  31              		@ link register save eliminated.
  32              	.LVL0:
  33              	.LVL1:
 281:MakiseGUI/MakiseGUI/ILI9340C/ili9340.c ****     
 282:MakiseGUI/MakiseGUI/ILI9340C/ili9340.c **** }
  34              		.loc 1 282 0
  35 0000 7047     		bx	lr
  36              		.cfi_endproc
  37              	.LFE136:
  39 0002 00BF     		.section	.text.ili9340_set_backlight,"ax",%progbits
  40              		.align	1
  41              		.p2align 2,,3
  42              		.global	ili9340_set_backlight
  43              		.syntax unified
  44              		.thumb
  45              		.thumb_func
  46              		.fpu fpv4-sp-d16
  48              	ili9340_set_backlight:
  49              	.LFB137:
 283:MakiseGUI/MakiseGUI/ILI9340C/ili9340.c **** uint8_t ili9340_set_backlight(MakiseGUI* gui, uint8_t val)
 284:MakiseGUI/MakiseGUI/ILI9340C/ili9340.c **** {
  50              		.loc 1 284 0
  51              		.cfi_startproc
  52              		@ args = 0, pretend = 0, frame = 0
  53              		@ frame_needed = 0, uses_anonymous_args = 0
  54              		@ link register save eliminated.
  55              	.LVL2:
 285:MakiseGUI/MakiseGUI/ILI9340C/ili9340.c ****     if(ILI9340_LED_USE_PWM)
 286:MakiseGUI/MakiseGUI/ILI9340C/ili9340.c **** 	__HAL_TIM_SET_COMPARE(ILI9340_LED_PWM, ILI9340_LED_PWM_CHANNEL, val);
  56              		.loc 1 286 0
  57 0000 014B     		ldr	r3, .L3
  58              	.LVL3:
  59 0002 1B68     		ldr	r3, [r3]
ARM GAS  /tmp/ccugowHg.s 			page 7


  60 0004 1964     		str	r1, [r3, #64]
 287:MakiseGUI/MakiseGUI/ILI9340C/ili9340.c ****     else
 288:MakiseGUI/MakiseGUI/ILI9340C/ili9340.c **** 	HAL_GPIO_WritePin(ILI9340_LED, val ? GPIO_PIN_SET : GPIO_PIN_RESET);
 289:MakiseGUI/MakiseGUI/ILI9340C/ili9340.c **** }
  61              		.loc 1 289 0
  62 0006 7047     		bx	lr
  63              	.L4:
  64              		.align	2
  65              	.L3:
  66 0008 00000000 		.word	htim3
  67              		.cfi_endproc
  68              	.LFE137:
  70              		.section	.text.ili9340_sleep,"ax",%progbits
  71              		.align	1
  72              		.p2align 2,,3
  73              		.global	ili9340_sleep
  74              		.syntax unified
  75              		.thumb
  76              		.thumb_func
  77              		.fpu fpv4-sp-d16
  79              	ili9340_sleep:
  80              	.LFB144:
  81              		.cfi_startproc
  82              		@ args = 0, pretend = 0, frame = 0
  83              		@ frame_needed = 0, uses_anonymous_args = 0
  84              		@ link register save eliminated.
  85 0000 0020     		movs	r0, #0
  86 0002 7047     		bx	lr
  87              		.cfi_endproc
  88              	.LFE144:
  90              		.section	.text.ili9340_init,"ax",%progbits
  91              		.align	1
  92              		.p2align 2,,3
  93              		.global	ili9340_init
  94              		.syntax unified
  95              		.thumb
  96              		.thumb_func
  97              		.fpu fpv4-sp-d16
  99              	ili9340_init:
 100              	.LFB131:
  32:MakiseGUI/MakiseGUI/ILI9340C/ili9340.c ****     _ili9340_rst(1);
 101              		.loc 1 32 0
 102              		.cfi_startproc
 103              		@ args = 0, pretend = 0, frame = 112
 104              		@ frame_needed = 0, uses_anonymous_args = 0
 105              	.LVL4:
  32:MakiseGUI/MakiseGUI/ILI9340C/ili9340.c ****     _ili9340_rst(1);
 106              		.loc 1 32 0
 107 0000 2DE9F04F 		push	{r4, r5, r6, r7, r8, r9, r10, fp, lr}
 108              	.LCFI0:
 109              		.cfi_def_cfa_offset 36
 110              		.cfi_offset 4, -36
 111              		.cfi_offset 5, -32
 112              		.cfi_offset 6, -28
 113              		.cfi_offset 7, -24
 114              		.cfi_offset 8, -20
 115              		.cfi_offset 9, -16
ARM GAS  /tmp/ccugowHg.s 			page 8


 116              		.cfi_offset 10, -12
 117              		.cfi_offset 11, -8
 118              		.cfi_offset 14, -4
 119              	.LBB457:
 120              	.LBB458:
   7:MakiseGUI/MakiseGUI/ILI9340C/ili9340.c **** extern inline void _ili9340_cs(uint8_t st){HAL_GPIO_WritePin(ILI9340_CS, st ? GPIO_PIN_SET : GPIO_P
 121              		.loc 1 7 0
 122 0004 F34D     		ldr	r5, .L8
 123              	.LBE458:
 124              	.LBE457:
 125              	.LBB460:
 126              	.LBB461:
 290:MakiseGUI/MakiseGUI/ILI9340C/ili9340.c **** uint8_t ili9340_spi_txhalfcplt(MakiseDriver* d)
 291:MakiseGUI/MakiseGUI/ILI9340C/ili9340.c **** {
 292:MakiseGUI/MakiseGUI/ILI9340C/ili9340.c ****     HAL_GPIO_TogglePin(GPIOB, GPIO_PIN_4);
 293:MakiseGUI/MakiseGUI/ILI9340C/ili9340.c ****     ili_f = 1;
 294:MakiseGUI/MakiseGUI/ILI9340C/ili9340.c ****     if(d->posy < d->lcd_height)
 295:MakiseGUI/MakiseGUI/ILI9340C/ili9340.c **** 	ili9340_render(d->gui);
 296:MakiseGUI/MakiseGUI/ILI9340C/ili9340.c ****     HAL_GPIO_TogglePin(GPIOB, GPIO_PIN_4);
 297:MakiseGUI/MakiseGUI/ILI9340C/ili9340.c **** }
 298:MakiseGUI/MakiseGUI/ILI9340C/ili9340.c **** uint8_t ili9340_spi_txcplt(MakiseDriver* driver)
 299:MakiseGUI/MakiseGUI/ILI9340C/ili9340.c **** {
 300:MakiseGUI/MakiseGUI/ILI9340C/ili9340.c ****     ili_f = 2;
 301:MakiseGUI/MakiseGUI/ILI9340C/ili9340.c ****     _ili9340_cs(1);
 302:MakiseGUI/MakiseGUI/ILI9340C/ili9340.c ****     strt_tx(driver);
 303:MakiseGUI/MakiseGUI/ILI9340C/ili9340.c **** }
 304:MakiseGUI/MakiseGUI/ILI9340C/ili9340.c **** 
 305:MakiseGUI/MakiseGUI/ILI9340C/ili9340.c **** uint16_t clrs[] = {ILI9340_BLACK, ILI9340_WHITE, ILI9340_RED,
 306:MakiseGUI/MakiseGUI/ILI9340C/ili9340.c **** 		   ILI9340_GREEN, ILI9340_BLUE, ILI9340_CYAN,
 307:MakiseGUI/MakiseGUI/ILI9340C/ili9340.c **** 		   ILI9340_YELLOW, ILI9340_MAGENTA};
 308:MakiseGUI/MakiseGUI/ILI9340C/ili9340.c **** void    ili9340_render(MakiseGUI* gui)
 309:MakiseGUI/MakiseGUI/ILI9340C/ili9340.c **** {
 310:MakiseGUI/MakiseGUI/ILI9340C/ili9340.c ****     MakiseDriver * d = gui->driver;
 311:MakiseGUI/MakiseGUI/ILI9340C/ili9340.c ****     uint16_t c;
 312:MakiseGUI/MakiseGUI/ILI9340C/ili9340.c **** 
 313:MakiseGUI/MakiseGUI/ILI9340C/ili9340.c ****     uint32_t y = d->posy, x = 0, i = 0,
 314:MakiseGUI/MakiseGUI/ILI9340C/ili9340.c **** 	cu, bu = 0, m;
 315:MakiseGUI/MakiseGUI/ILI9340C/ili9340.c **** 
 316:MakiseGUI/MakiseGUI/ILI9340C/ili9340.c ****     if(ili_f == 0) //render full buffer
 317:MakiseGUI/MakiseGUI/ILI9340C/ili9340.c ****     {
 318:MakiseGUI/MakiseGUI/ILI9340C/ili9340.c **** 	m = d->posy + d->buffer_height;
 319:MakiseGUI/MakiseGUI/ILI9340C/ili9340.c **** 	d->posy += d->buffer_height;
 320:MakiseGUI/MakiseGUI/ILI9340C/ili9340.c **** 	ili_f = 1;
 321:MakiseGUI/MakiseGUI/ILI9340C/ili9340.c ****     }
 322:MakiseGUI/MakiseGUI/ILI9340C/ili9340.c ****     else if(ili_f == 1) //render first half (called by halfcplt callback)
 323:MakiseGUI/MakiseGUI/ILI9340C/ili9340.c ****     {
 324:MakiseGUI/MakiseGUI/ILI9340C/ili9340.c **** 	m = d->posy + (d->buffer_height / 2);
 325:MakiseGUI/MakiseGUI/ILI9340C/ili9340.c **** 	y = d->posy;
 326:MakiseGUI/MakiseGUI/ILI9340C/ili9340.c ****     }
 327:MakiseGUI/MakiseGUI/ILI9340C/ili9340.c ****     else if(ili_f == 2) //render second half (called by cplt callback)
 328:MakiseGUI/MakiseGUI/ILI9340C/ili9340.c ****     {
 329:MakiseGUI/MakiseGUI/ILI9340C/ili9340.c **** 	m = d->posy + d->buffer_height;
 330:MakiseGUI/MakiseGUI/ILI9340C/ili9340.c **** 	y = d->posy + (d->buffer_height / 2);
 331:MakiseGUI/MakiseGUI/ILI9340C/ili9340.c **** 	i = d->size / 4;
 332:MakiseGUI/MakiseGUI/ILI9340C/ili9340.c **** 	d->posy += d->buffer_height;
 333:MakiseGUI/MakiseGUI/ILI9340C/ili9340.c ****     }
 334:MakiseGUI/MakiseGUI/ILI9340C/ili9340.c ****     
ARM GAS  /tmp/ccugowHg.s 			page 9


 335:MakiseGUI/MakiseGUI/ILI9340C/ili9340.c ****     cu = (y * gui->buffer->width)*gui->buffer->pixeldepth/32;
 336:MakiseGUI/MakiseGUI/ILI9340C/ili9340.c ****     for (; y < m; y++) {	
 337:MakiseGUI/MakiseGUI/ILI9340C/ili9340.c **** 	for (x = 0; x < d->buffer_width; x+=1)
 338:MakiseGUI/MakiseGUI/ILI9340C/ili9340.c **** 	{
 339:MakiseGUI/MakiseGUI/ILI9340C/ili9340.c **** 	    c = clrs[((((uint32_t*)gui->buffer->buffer)[cu]) >> bu) & gui->buffer->depthmask];
 340:MakiseGUI/MakiseGUI/ILI9340C/ili9340.c **** 	    bu += gui->buffer->pixeldepth;
 341:MakiseGUI/MakiseGUI/ILI9340C/ili9340.c **** 	    if(bu>=32)
 342:MakiseGUI/MakiseGUI/ILI9340C/ili9340.c **** 	    {
 343:MakiseGUI/MakiseGUI/ILI9340C/ili9340.c **** 		bu = 0;
 344:MakiseGUI/MakiseGUI/ILI9340C/ili9340.c **** 		cu ++;
 345:MakiseGUI/MakiseGUI/ILI9340C/ili9340.c **** 	    }
 346:MakiseGUI/MakiseGUI/ILI9340C/ili9340.c **** 	    //c+=bc;
 347:MakiseGUI/MakiseGUI/ILI9340C/ili9340.c **** 	    ((uint16_t*)d->buffer)[i] = c;
 348:MakiseGUI/MakiseGUI/ILI9340C/ili9340.c **** 	    i+=1;
 349:MakiseGUI/MakiseGUI/ILI9340C/ili9340.c **** 	}
 350:MakiseGUI/MakiseGUI/ILI9340C/ili9340.c ****     }
 351:MakiseGUI/MakiseGUI/ILI9340C/ili9340.c **** }
 352:MakiseGUI/MakiseGUI/ILI9340C/ili9340.c **** 
 353:MakiseGUI/MakiseGUI/ILI9340C/ili9340.c **** 
 354:MakiseGUI/MakiseGUI/ILI9340C/ili9340.c **** uint8_t ili9340_write_data(uint8_t d)
 355:MakiseGUI/MakiseGUI/ILI9340C/ili9340.c **** {
 356:MakiseGUI/MakiseGUI/ILI9340C/ili9340.c ****     _ili9340_dc(1);
 357:MakiseGUI/MakiseGUI/ILI9340C/ili9340.c **** 
 358:MakiseGUI/MakiseGUI/ILI9340C/ili9340.c ****     HAL_SPI_Transmit(&ILI9340_SPI, &d, 1, 10);
 359:MakiseGUI/MakiseGUI/ILI9340C/ili9340.c **** }
 360:MakiseGUI/MakiseGUI/ILI9340C/ili9340.c **** 
 361:MakiseGUI/MakiseGUI/ILI9340C/ili9340.c **** uint8_t ili9340_write_command(uint8_t c)
 362:MakiseGUI/MakiseGUI/ILI9340C/ili9340.c **** {
 363:MakiseGUI/MakiseGUI/ILI9340C/ili9340.c ****     _ili9340_dc(0);
 364:MakiseGUI/MakiseGUI/ILI9340C/ili9340.c **** 
 365:MakiseGUI/MakiseGUI/ILI9340C/ili9340.c ****     HAL_SPI_Transmit(&ILI9340_SPI, &c, 1, 10);
 127              		.loc 1 365 0
 128 0006 F44E     		ldr	r6, .L8+4
 129              	.LBE461:
 130              	.LBE460:
  32:MakiseGUI/MakiseGUI/ILI9340C/ili9340.c ****     _ili9340_rst(1);
 131              		.loc 1 32 0
 132 0008 9DB0     		sub	sp, sp, #116
 133              	.LCFI1:
 134              		.cfi_def_cfa_offset 152
 135              	.LBB465:
 136              	.LBB459:
   7:MakiseGUI/MakiseGUI/ILI9340C/ili9340.c **** extern inline void _ili9340_cs(uint8_t st){HAL_GPIO_WritePin(ILI9340_CS, st ? GPIO_PIN_SET : GPIO_P
 137              		.loc 1 7 0
 138 000a 2846     		mov	r0, r5
 139              	.LVL5:
 140 000c 0122     		movs	r2, #1
 141 000e 2021     		movs	r1, #32
 142 0010 FFF7FEFF 		bl	HAL_GPIO_WritePin
 143              	.LVL6:
 144              	.LBE459:
 145              	.LBE465:
 146              	.LBB466:
 147              	.LBB467:
   6:MakiseGUI/MakiseGUI/ILI9340C/ili9340.c **** extern inline void _ili9340_rst(uint8_t st){HAL_GPIO_WritePin(ILI9340_RST, st ? GPIO_PIN_SET : GPIO
 148              		.loc 1 6 0
 149 0014 0520     		movs	r0, #5
ARM GAS  /tmp/ccugowHg.s 			page 10


 150 0016 FFF7FEFF 		bl	HAL_Delay
 151              	.LVL7:
 152              	.LBE467:
 153              	.LBE466:
 154              	.LBB468:
 155              	.LBB469:
   7:MakiseGUI/MakiseGUI/ILI9340C/ili9340.c **** extern inline void _ili9340_cs(uint8_t st){HAL_GPIO_WritePin(ILI9340_CS, st ? GPIO_PIN_SET : GPIO_P
 156              		.loc 1 7 0
 157 001a 2846     		mov	r0, r5
 158 001c 0022     		movs	r2, #0
 159 001e 2021     		movs	r1, #32
 160 0020 FFF7FEFF 		bl	HAL_GPIO_WritePin
 161              	.LVL8:
 162              	.LBE469:
 163              	.LBE468:
 164              	.LBB470:
 165              	.LBB471:
   6:MakiseGUI/MakiseGUI/ILI9340C/ili9340.c **** extern inline void _ili9340_rst(uint8_t st){HAL_GPIO_WritePin(ILI9340_RST, st ? GPIO_PIN_SET : GPIO
 166              		.loc 1 6 0
 167 0024 1420     		movs	r0, #20
 168 0026 FFF7FEFF 		bl	HAL_Delay
 169              	.LVL9:
 170 002a 1CAF     		add	r7, sp, #112
 171              	.LBE471:
 172              	.LBE470:
 173              	.LBB472:
 174              	.LBB473:
   7:MakiseGUI/MakiseGUI/ILI9340C/ili9340.c **** extern inline void _ili9340_cs(uint8_t st){HAL_GPIO_WritePin(ILI9340_CS, st ? GPIO_PIN_SET : GPIO_P
 175              		.loc 1 7 0
 176 002c 2846     		mov	r0, r5
 177 002e 0122     		movs	r2, #1
 178 0030 2021     		movs	r1, #32
 179 0032 0124     		movs	r4, #1
 180 0034 FFF7FEFF 		bl	HAL_GPIO_WritePin
 181              	.LVL10:
 182              	.LBE473:
 183              	.LBE472:
 184              	.LBB474:
 185              	.LBB475:
   6:MakiseGUI/MakiseGUI/ILI9340C/ili9340.c **** extern inline void _ili9340_rst(uint8_t st){HAL_GPIO_WritePin(ILI9340_RST, st ? GPIO_PIN_SET : GPIO
 186              		.loc 1 6 0
 187 0038 9620     		movs	r0, #150
 188 003a FFF7FEFF 		bl	HAL_Delay
 189              	.LVL11:
 190 003e 07F8014D 		strb	r4, [r7, #-1]!
 191              	.LVL12:
 192              	.LBE475:
 193              	.LBE474:
 194              	.LBB476:
 195              	.LBB464:
 196              	.LBB462:
 197              	.LBB463:
   9:MakiseGUI/MakiseGUI/ILI9340C/ili9340.c **** 
 198              		.loc 1 9 0
 199 0042 2846     		mov	r0, r5
 200 0044 0022     		movs	r2, #0
 201 0046 1021     		movs	r1, #16
ARM GAS  /tmp/ccugowHg.s 			page 11


 202 0048 FFF7FEFF 		bl	HAL_GPIO_WritePin
 203              	.LVL13:
 204              	.LBE463:
 205              	.LBE462:
 206              		.loc 1 365 0
 207 004c 3946     		mov	r1, r7
 208 004e 2246     		mov	r2, r4
 209 0050 0A23     		movs	r3, #10
 210 0052 3046     		mov	r0, r6
 211 0054 FFF7FEFF 		bl	HAL_SPI_Transmit
 212              	.LVL14:
 213 0058 0DF17008 		add	r8, sp, #112
 214              	.LBE464:
 215              	.LBE476:
 216              	.LBB477:
 217              	.LBB478:
   6:MakiseGUI/MakiseGUI/ILI9340C/ili9340.c **** extern inline void _ili9340_rst(uint8_t st){HAL_GPIO_WritePin(ILI9340_RST, st ? GPIO_PIN_SET : GPIO
 218              		.loc 1 6 0
 219 005c 0520     		movs	r0, #5
 220 005e FFF7FEFF 		bl	HAL_Delay
 221              	.LVL15:
 222 0062 2823     		movs	r3, #40
 223 0064 08F8023D 		strb	r3, [r8, #-2]!
 224              	.LVL16:
 225              	.LBE478:
 226              	.LBE477:
 227              	.LBB479:
 228              	.LBB480:
 229              	.LBB481:
 230              	.LBB482:
   9:MakiseGUI/MakiseGUI/ILI9340C/ili9340.c **** 
 231              		.loc 1 9 0
 232 0068 2846     		mov	r0, r5
 233 006a 0022     		movs	r2, #0
 234 006c 1021     		movs	r1, #16
 235 006e FFF7FEFF 		bl	HAL_GPIO_WritePin
 236              	.LVL17:
 237 0072 1CAF     		add	r7, sp, #112
 238              	.LBE482:
 239              	.LBE481:
 240              		.loc 1 365 0
 241 0074 4146     		mov	r1, r8
 242 0076 2246     		mov	r2, r4
 243 0078 3046     		mov	r0, r6
 244 007a 0A23     		movs	r3, #10
 245 007c FFF7FEFF 		bl	HAL_SPI_Transmit
 246              	.LVL18:
 247 0080 CF23     		movs	r3, #207
 248 0082 07F8033D 		strb	r3, [r7, #-3]!
 249              	.LVL19:
 250 0086 0DF17008 		add	r8, sp, #112
 251              	.LBE480:
 252              	.LBE479:
 253              	.LBB483:
 254              	.LBB484:
 255              	.LBB485:
 256              	.LBB486:
ARM GAS  /tmp/ccugowHg.s 			page 12


   9:MakiseGUI/MakiseGUI/ILI9340C/ili9340.c **** 
 257              		.loc 1 9 0
 258 008a 2846     		mov	r0, r5
 259 008c 0022     		movs	r2, #0
 260 008e 1021     		movs	r1, #16
 261 0090 4FF0000B 		mov	fp, #0
 262 0094 FFF7FEFF 		bl	HAL_GPIO_WritePin
 263              	.LVL20:
 264              	.LBE486:
 265              	.LBE485:
 266              		.loc 1 365 0
 267 0098 3946     		mov	r1, r7
 268 009a 2246     		mov	r2, r4
 269 009c 0A23     		movs	r3, #10
 270 009e 3046     		mov	r0, r6
 271 00a0 FFF7FEFF 		bl	HAL_SPI_Transmit
 272              	.LVL21:
 273 00a4 08F804BD 		strb	fp, [r8, #-4]!
 274              	.LVL22:
 275              	.LBE484:
 276              	.LBE483:
 277              	.LBB487:
 278              	.LBB488:
 279              	.LBB489:
 280              	.LBB490:
   9:MakiseGUI/MakiseGUI/ILI9340C/ili9340.c **** 
 281              		.loc 1 9 0
 282 00a8 2246     		mov	r2, r4
 283 00aa 2846     		mov	r0, r5
 284 00ac 1021     		movs	r1, #16
 285 00ae FFF7FEFF 		bl	HAL_GPIO_WritePin
 286              	.LVL23:
 287 00b2 1CAF     		add	r7, sp, #112
 288              	.LBE490:
 289              	.LBE489:
 358:MakiseGUI/MakiseGUI/ILI9340C/ili9340.c **** }
 290              		.loc 1 358 0
 291 00b4 4146     		mov	r1, r8
 292 00b6 2246     		mov	r2, r4
 293 00b8 3046     		mov	r0, r6
 294 00ba 0A23     		movs	r3, #10
 295 00bc FFF7FEFF 		bl	HAL_SPI_Transmit
 296              	.LVL24:
 297 00c0 8323     		movs	r3, #131
 298 00c2 07F8053D 		strb	r3, [r7, #-5]!
 299              	.LVL25:
 300              	.LBE488:
 301              	.LBE487:
 302              	.LBB491:
 303              	.LBB492:
 304              	.LBB493:
 305              	.LBB494:
   9:MakiseGUI/MakiseGUI/ILI9340C/ili9340.c **** 
 306              		.loc 1 9 0
 307 00c6 2246     		mov	r2, r4
 308 00c8 2846     		mov	r0, r5
 309 00ca 1021     		movs	r1, #16
ARM GAS  /tmp/ccugowHg.s 			page 13


 310 00cc FFF7FEFF 		bl	HAL_GPIO_WritePin
 311              	.LVL26:
 312 00d0 0DF17008 		add	r8, sp, #112
 313              	.LBE494:
 314              	.LBE493:
 358:MakiseGUI/MakiseGUI/ILI9340C/ili9340.c **** }
 315              		.loc 1 358 0
 316 00d4 3946     		mov	r1, r7
 317 00d6 2246     		mov	r2, r4
 318 00d8 3046     		mov	r0, r6
 319 00da 0A23     		movs	r3, #10
 320 00dc FFF7FEFF 		bl	HAL_SPI_Transmit
 321              	.LVL27:
 322 00e0 3023     		movs	r3, #48
 323 00e2 08F8063D 		strb	r3, [r8, #-6]!
 324              	.LVL28:
 325              	.LBE492:
 326              	.LBE491:
 327              	.LBB495:
 328              	.LBB496:
 329              	.LBB497:
 330              	.LBB498:
   9:MakiseGUI/MakiseGUI/ILI9340C/ili9340.c **** 
 331              		.loc 1 9 0
 332 00e6 2246     		mov	r2, r4
 333 00e8 2846     		mov	r0, r5
 334 00ea 1021     		movs	r1, #16
 335 00ec FFF7FEFF 		bl	HAL_GPIO_WritePin
 336              	.LVL29:
 337 00f0 1CAF     		add	r7, sp, #112
 338              	.LBE498:
 339              	.LBE497:
 358:MakiseGUI/MakiseGUI/ILI9340C/ili9340.c **** }
 340              		.loc 1 358 0
 341 00f2 4146     		mov	r1, r8
 342 00f4 2246     		mov	r2, r4
 343 00f6 3046     		mov	r0, r6
 344 00f8 0A23     		movs	r3, #10
 345 00fa FFF7FEFF 		bl	HAL_SPI_Transmit
 346              	.LVL30:
 347 00fe ED23     		movs	r3, #237
 348 0100 07F8073D 		strb	r3, [r7, #-7]!
 349              	.LVL31:
 350              	.LBE496:
 351              	.LBE495:
 352              	.LBB499:
 353              	.LBB500:
 354              	.LBB501:
 355              	.LBB502:
   9:MakiseGUI/MakiseGUI/ILI9340C/ili9340.c **** 
 356              		.loc 1 9 0
 357 0104 5A46     		mov	r2, fp
 358 0106 2846     		mov	r0, r5
 359 0108 1021     		movs	r1, #16
 360 010a FFF7FEFF 		bl	HAL_GPIO_WritePin
 361              	.LVL32:
 362 010e 0DF17008 		add	r8, sp, #112
ARM GAS  /tmp/ccugowHg.s 			page 14


 363              	.LBE502:
 364              	.LBE501:
 365              		.loc 1 365 0
 366 0112 3946     		mov	r1, r7
 367 0114 2246     		mov	r2, r4
 368 0116 3046     		mov	r0, r6
 369 0118 0A23     		movs	r3, #10
 370 011a FFF7FEFF 		bl	HAL_SPI_Transmit
 371              	.LVL33:
 372 011e 6423     		movs	r3, #100
 373 0120 08F8083D 		strb	r3, [r8, #-8]!
 374              	.LVL34:
 375              	.LBE500:
 376              	.LBE499:
 377              	.LBB503:
 378              	.LBB504:
 379              	.LBB505:
 380              	.LBB506:
   9:MakiseGUI/MakiseGUI/ILI9340C/ili9340.c **** 
 381              		.loc 1 9 0
 382 0124 2246     		mov	r2, r4
 383 0126 2846     		mov	r0, r5
 384 0128 1021     		movs	r1, #16
 385 012a FFF7FEFF 		bl	HAL_GPIO_WritePin
 386              	.LVL35:
 387 012e 1CAF     		add	r7, sp, #112
 388              	.LBE506:
 389              	.LBE505:
 358:MakiseGUI/MakiseGUI/ILI9340C/ili9340.c **** }
 390              		.loc 1 358 0
 391 0130 4146     		mov	r1, r8
 392 0132 2246     		mov	r2, r4
 393 0134 3046     		mov	r0, r6
 394 0136 0A23     		movs	r3, #10
 395 0138 FFF7FEFF 		bl	HAL_SPI_Transmit
 396              	.LVL36:
 397 013c 4FF00303 		mov	r3, #3
 398 0140 07F8093D 		strb	r3, [r7, #-9]!
 399              	.LVL37:
 400              	.LBE504:
 401              	.LBE503:
 402              	.LBB507:
 403              	.LBB508:
 404              	.LBB509:
 405              	.LBB510:
   9:MakiseGUI/MakiseGUI/ILI9340C/ili9340.c **** 
 406              		.loc 1 9 0
 407 0144 2246     		mov	r2, r4
 408 0146 2846     		mov	r0, r5
 409 0148 1021     		movs	r1, #16
 410 014a FFF7FEFF 		bl	HAL_GPIO_WritePin
 411              	.LVL38:
 412 014e 0DF17008 		add	r8, sp, #112
 413              	.LBE510:
 414              	.LBE509:
 358:MakiseGUI/MakiseGUI/ILI9340C/ili9340.c **** }
 415              		.loc 1 358 0
ARM GAS  /tmp/ccugowHg.s 			page 15


 416 0152 3946     		mov	r1, r7
 417 0154 2246     		mov	r2, r4
 418 0156 3046     		mov	r0, r6
 419 0158 0A23     		movs	r3, #10
 420 015a FFF7FEFF 		bl	HAL_SPI_Transmit
 421              	.LVL39:
 422 015e 1223     		movs	r3, #18
 423 0160 08F80A3D 		strb	r3, [r8, #-10]!
 424              	.LVL40:
 425              	.LBE508:
 426              	.LBE507:
 427              	.LBB511:
 428              	.LBB512:
 429              	.LBB513:
 430              	.LBB514:
   9:MakiseGUI/MakiseGUI/ILI9340C/ili9340.c **** 
 431              		.loc 1 9 0
 432 0164 2246     		mov	r2, r4
 433 0166 2846     		mov	r0, r5
 434 0168 1021     		movs	r1, #16
 435 016a FFF7FEFF 		bl	HAL_GPIO_WritePin
 436              	.LVL41:
 437 016e 1CAF     		add	r7, sp, #112
 438              	.LBE514:
 439              	.LBE513:
 358:MakiseGUI/MakiseGUI/ILI9340C/ili9340.c **** }
 440              		.loc 1 358 0
 441 0170 4146     		mov	r1, r8
 442 0172 2246     		mov	r2, r4
 443 0174 3046     		mov	r0, r6
 444 0176 0A23     		movs	r3, #10
 445 0178 FFF7FEFF 		bl	HAL_SPI_Transmit
 446              	.LVL42:
 447 017c 8123     		movs	r3, #129
 448 017e 07F80B3D 		strb	r3, [r7, #-11]!
 449              	.LVL43:
 450              	.LBE512:
 451              	.LBE511:
 452              	.LBB515:
 453              	.LBB516:
 454              	.LBB517:
 455              	.LBB518:
   9:MakiseGUI/MakiseGUI/ILI9340C/ili9340.c **** 
 456              		.loc 1 9 0
 457 0182 2246     		mov	r2, r4
 458 0184 2846     		mov	r0, r5
 459 0186 1021     		movs	r1, #16
 460 0188 FFF7FEFF 		bl	HAL_GPIO_WritePin
 461              	.LVL44:
 462 018c 0DF17008 		add	r8, sp, #112
 463              	.LBE518:
 464              	.LBE517:
 358:MakiseGUI/MakiseGUI/ILI9340C/ili9340.c **** }
 465              		.loc 1 358 0
 466 0190 3946     		mov	r1, r7
 467 0192 2246     		mov	r2, r4
 468 0194 3046     		mov	r0, r6
ARM GAS  /tmp/ccugowHg.s 			page 16


 469 0196 0A23     		movs	r3, #10
 470 0198 FFF7FEFF 		bl	HAL_SPI_Transmit
 471              	.LVL45:
 472 019c E823     		movs	r3, #232
 473 019e 08F80C3D 		strb	r3, [r8, #-12]!
 474              	.LVL46:
 475              	.LBE516:
 476              	.LBE515:
 477              	.LBB519:
 478              	.LBB520:
 479              	.LBB521:
 480              	.LBB522:
   9:MakiseGUI/MakiseGUI/ILI9340C/ili9340.c **** 
 481              		.loc 1 9 0
 482 01a2 5A46     		mov	r2, fp
 483 01a4 2846     		mov	r0, r5
 484 01a6 1021     		movs	r1, #16
 485 01a8 FFF7FEFF 		bl	HAL_GPIO_WritePin
 486              	.LVL47:
 487 01ac 1CAF     		add	r7, sp, #112
 488              	.LBE522:
 489              	.LBE521:
 490              		.loc 1 365 0
 491 01ae 4146     		mov	r1, r8
 492 01b0 2246     		mov	r2, r4
 493 01b2 3046     		mov	r0, r6
 494 01b4 0A23     		movs	r3, #10
 495 01b6 FFF7FEFF 		bl	HAL_SPI_Transmit
 496              	.LVL48:
 497 01ba 8523     		movs	r3, #133
 498 01bc 07F80D3D 		strb	r3, [r7, #-13]!
 499              	.LVL49:
 500              	.LBE520:
 501              	.LBE519:
 502              	.LBB523:
 503              	.LBB524:
 504              	.LBB525:
 505              	.LBB526:
   9:MakiseGUI/MakiseGUI/ILI9340C/ili9340.c **** 
 506              		.loc 1 9 0
 507 01c0 2246     		mov	r2, r4
 508 01c2 2846     		mov	r0, r5
 509 01c4 1021     		movs	r1, #16
 510 01c6 FFF7FEFF 		bl	HAL_GPIO_WritePin
 511              	.LVL50:
 512              	.LBE526:
 513              	.LBE525:
 358:MakiseGUI/MakiseGUI/ILI9340C/ili9340.c **** }
 514              		.loc 1 358 0
 515 01ca 3946     		mov	r1, r7
 516 01cc 1CAF     		add	r7, sp, #112
 517 01ce 2246     		mov	r2, r4
 518 01d0 0A23     		movs	r3, #10
 519 01d2 3046     		mov	r0, r6
 520 01d4 FFF7FEFF 		bl	HAL_SPI_Transmit
 521              	.LVL51:
 522 01d8 07F80E4D 		strb	r4, [r7, #-14]!
ARM GAS  /tmp/ccugowHg.s 			page 17


 523              	.LVL52:
 524              	.LBE524:
 525              	.LBE523:
 526              	.LBB527:
 527              	.LBB528:
 528              	.LBB529:
 529              	.LBB530:
   9:MakiseGUI/MakiseGUI/ILI9340C/ili9340.c **** 
 530              		.loc 1 9 0
 531 01dc 2246     		mov	r2, r4
 532 01de 2846     		mov	r0, r5
 533 01e0 1021     		movs	r1, #16
 534 01e2 FFF7FEFF 		bl	HAL_GPIO_WritePin
 535              	.LVL53:
 536 01e6 0DF17008 		add	r8, sp, #112
 537              	.LBE530:
 538              	.LBE529:
 358:MakiseGUI/MakiseGUI/ILI9340C/ili9340.c **** }
 539              		.loc 1 358 0
 540 01ea 3946     		mov	r1, r7
 541 01ec 2246     		mov	r2, r4
 542 01ee 3046     		mov	r0, r6
 543 01f0 0A23     		movs	r3, #10
 544 01f2 FFF7FEFF 		bl	HAL_SPI_Transmit
 545              	.LVL54:
 546 01f6 7923     		movs	r3, #121
 547 01f8 08F80F3D 		strb	r3, [r8, #-15]!
 548              	.LVL55:
 549              	.LBE528:
 550              	.LBE527:
 551              	.LBB531:
 552              	.LBB532:
 553              	.LBB533:
 554              	.LBB534:
   9:MakiseGUI/MakiseGUI/ILI9340C/ili9340.c **** 
 555              		.loc 1 9 0
 556 01fc 2246     		mov	r2, r4
 557 01fe 2846     		mov	r0, r5
 558 0200 1021     		movs	r1, #16
 559 0202 FFF7FEFF 		bl	HAL_GPIO_WritePin
 560              	.LVL56:
 561 0206 1CAF     		add	r7, sp, #112
 562              	.LBE534:
 563              	.LBE533:
 358:MakiseGUI/MakiseGUI/ILI9340C/ili9340.c **** }
 564              		.loc 1 358 0
 565 0208 4146     		mov	r1, r8
 566 020a 2246     		mov	r2, r4
 567 020c 3046     		mov	r0, r6
 568 020e 0A23     		movs	r3, #10
 569 0210 FFF7FEFF 		bl	HAL_SPI_Transmit
 570              	.LVL57:
 571 0214 CB23     		movs	r3, #203
 572 0216 07F8103D 		strb	r3, [r7, #-16]!
 573              	.LVL58:
 574              	.LBE532:
 575              	.LBE531:
ARM GAS  /tmp/ccugowHg.s 			page 18


 576              	.LBB535:
 577              	.LBB536:
 578              	.LBB537:
 579              	.LBB538:
   9:MakiseGUI/MakiseGUI/ILI9340C/ili9340.c **** 
 580              		.loc 1 9 0
 581 021a 5A46     		mov	r2, fp
 582 021c 2846     		mov	r0, r5
 583 021e 1021     		movs	r1, #16
 584 0220 FFF7FEFF 		bl	HAL_GPIO_WritePin
 585              	.LVL59:
 586 0224 0DF17008 		add	r8, sp, #112
 587              	.LBE538:
 588              	.LBE537:
 589              		.loc 1 365 0
 590 0228 3946     		mov	r1, r7
 591 022a 2246     		mov	r2, r4
 592 022c 3046     		mov	r0, r6
 593 022e 0A23     		movs	r3, #10
 594 0230 FFF7FEFF 		bl	HAL_SPI_Transmit
 595              	.LVL60:
 596 0234 3923     		movs	r3, #57
 597 0236 08F8113D 		strb	r3, [r8, #-17]!
 598              	.LVL61:
 599              	.LBE536:
 600              	.LBE535:
 601              	.LBB539:
 602              	.LBB540:
 603              	.LBB541:
 604              	.LBB542:
   9:MakiseGUI/MakiseGUI/ILI9340C/ili9340.c **** 
 605              		.loc 1 9 0
 606 023a 2246     		mov	r2, r4
 607 023c 2846     		mov	r0, r5
 608 023e 1021     		movs	r1, #16
 609 0240 FFF7FEFF 		bl	HAL_GPIO_WritePin
 610              	.LVL62:
 611 0244 1CAF     		add	r7, sp, #112
 612              	.LBE542:
 613              	.LBE541:
 358:MakiseGUI/MakiseGUI/ILI9340C/ili9340.c **** }
 614              		.loc 1 358 0
 615 0246 4146     		mov	r1, r8
 616 0248 2246     		mov	r2, r4
 617 024a 3046     		mov	r0, r6
 618 024c 0A23     		movs	r3, #10
 619 024e FFF7FEFF 		bl	HAL_SPI_Transmit
 620              	.LVL63:
 621 0252 2C23     		movs	r3, #44
 622 0254 07F8123D 		strb	r3, [r7, #-18]!
 623              	.LVL64:
 624 0258 0DF17008 		add	r8, sp, #112
 625              	.LBE540:
 626              	.LBE539:
 627              	.LBB543:
 628              	.LBB544:
 629              	.LBB545:
ARM GAS  /tmp/ccugowHg.s 			page 19


 630              	.LBB546:
   9:MakiseGUI/MakiseGUI/ILI9340C/ili9340.c **** 
 631              		.loc 1 9 0
 632 025c 2246     		mov	r2, r4
 633 025e 2846     		mov	r0, r5
 634 0260 1021     		movs	r1, #16
 635 0262 FFF7FEFF 		bl	HAL_GPIO_WritePin
 636              	.LVL65:
 637              	.LBE546:
 638              	.LBE545:
 358:MakiseGUI/MakiseGUI/ILI9340C/ili9340.c **** }
 639              		.loc 1 358 0
 640 0266 3946     		mov	r1, r7
 641 0268 2246     		mov	r2, r4
 642 026a 0A23     		movs	r3, #10
 643 026c 3046     		mov	r0, r6
 644 026e FFF7FEFF 		bl	HAL_SPI_Transmit
 645              	.LVL66:
 646 0272 08F813BD 		strb	fp, [r8, #-19]!
 647              	.LVL67:
 648              	.LBE544:
 649              	.LBE543:
 650              	.LBB547:
 651              	.LBB548:
 652              	.LBB549:
 653              	.LBB550:
   9:MakiseGUI/MakiseGUI/ILI9340C/ili9340.c **** 
 654              		.loc 1 9 0
 655 0276 2246     		mov	r2, r4
 656 0278 2846     		mov	r0, r5
 657 027a 1021     		movs	r1, #16
 658 027c FFF7FEFF 		bl	HAL_GPIO_WritePin
 659              	.LVL68:
 660 0280 1CAF     		add	r7, sp, #112
 661              	.LBE550:
 662              	.LBE549:
 358:MakiseGUI/MakiseGUI/ILI9340C/ili9340.c **** }
 663              		.loc 1 358 0
 664 0282 4146     		mov	r1, r8
 665 0284 2246     		mov	r2, r4
 666 0286 3046     		mov	r0, r6
 667 0288 0A23     		movs	r3, #10
 668 028a FFF7FEFF 		bl	HAL_SPI_Transmit
 669              	.LVL69:
 670 028e 3423     		movs	r3, #52
 671 0290 07F8143D 		strb	r3, [r7, #-20]!
 672              	.LVL70:
 673 0294 0DF17008 		add	r8, sp, #112
 674              	.LBE548:
 675              	.LBE547:
 676              	.LBB551:
 677              	.LBB552:
 678              	.LBB553:
 679              	.LBB554:
   9:MakiseGUI/MakiseGUI/ILI9340C/ili9340.c **** 
 680              		.loc 1 9 0
 681 0298 2246     		mov	r2, r4
ARM GAS  /tmp/ccugowHg.s 			page 20


 682 029a 2846     		mov	r0, r5
 683 029c 1021     		movs	r1, #16
 684 029e FFF7FEFF 		bl	HAL_GPIO_WritePin
 685              	.LVL71:
 686 02a2 4FF00209 		mov	r9, #2
 687              	.LBE554:
 688              	.LBE553:
 358:MakiseGUI/MakiseGUI/ILI9340C/ili9340.c **** }
 689              		.loc 1 358 0
 690 02a6 3946     		mov	r1, r7
 691 02a8 2246     		mov	r2, r4
 692 02aa 0A23     		movs	r3, #10
 693 02ac 3046     		mov	r0, r6
 694 02ae FFF7FEFF 		bl	HAL_SPI_Transmit
 695              	.LVL72:
 696 02b2 08F8159D 		strb	r9, [r8, #-21]!
 697              	.LVL73:
 698              	.LBE552:
 699              	.LBE551:
 700              	.LBB555:
 701              	.LBB556:
 702              	.LBB557:
 703              	.LBB558:
   9:MakiseGUI/MakiseGUI/ILI9340C/ili9340.c **** 
 704              		.loc 1 9 0
 705 02b6 2246     		mov	r2, r4
 706 02b8 2846     		mov	r0, r5
 707 02ba 1021     		movs	r1, #16
 708 02bc FFF7FEFF 		bl	HAL_GPIO_WritePin
 709              	.LVL74:
 710 02c0 1CAF     		add	r7, sp, #112
 711              	.LBE558:
 712              	.LBE557:
 358:MakiseGUI/MakiseGUI/ILI9340C/ili9340.c **** }
 713              		.loc 1 358 0
 714 02c2 4146     		mov	r1, r8
 715 02c4 2246     		mov	r2, r4
 716 02c6 3046     		mov	r0, r6
 717 02c8 0A23     		movs	r3, #10
 718 02ca FFF7FEFF 		bl	HAL_SPI_Transmit
 719              	.LVL75:
 720 02ce F723     		movs	r3, #247
 721 02d0 07F8163D 		strb	r3, [r7, #-22]!
 722              	.LVL76:
 723              	.LBE556:
 724              	.LBE555:
 725              	.LBB559:
 726              	.LBB560:
 727              	.LBB561:
 728              	.LBB562:
   9:MakiseGUI/MakiseGUI/ILI9340C/ili9340.c **** 
 729              		.loc 1 9 0
 730 02d4 5A46     		mov	r2, fp
 731 02d6 2846     		mov	r0, r5
 732 02d8 1021     		movs	r1, #16
 733 02da FFF7FEFF 		bl	HAL_GPIO_WritePin
 734              	.LVL77:
ARM GAS  /tmp/ccugowHg.s 			page 21


 735 02de 0DF17008 		add	r8, sp, #112
 736              	.LBE562:
 737              	.LBE561:
 738              		.loc 1 365 0
 739 02e2 3946     		mov	r1, r7
 740 02e4 2246     		mov	r2, r4
 741 02e6 3046     		mov	r0, r6
 742 02e8 0A23     		movs	r3, #10
 743 02ea FFF7FEFF 		bl	HAL_SPI_Transmit
 744              	.LVL78:
 745 02ee 2023     		movs	r3, #32
 746 02f0 08F8173D 		strb	r3, [r8, #-23]!
 747              	.LVL79:
 748              	.LBE560:
 749              	.LBE559:
 750              	.LBB563:
 751              	.LBB564:
 752              	.LBB565:
 753              	.LBB566:
   9:MakiseGUI/MakiseGUI/ILI9340C/ili9340.c **** 
 754              		.loc 1 9 0
 755 02f4 2246     		mov	r2, r4
 756 02f6 2846     		mov	r0, r5
 757 02f8 1021     		movs	r1, #16
 758 02fa FFF7FEFF 		bl	HAL_GPIO_WritePin
 759              	.LVL80:
 760 02fe 1CAF     		add	r7, sp, #112
 761              	.LBE566:
 762              	.LBE565:
 358:MakiseGUI/MakiseGUI/ILI9340C/ili9340.c **** }
 763              		.loc 1 358 0
 764 0300 4146     		mov	r1, r8
 765 0302 2246     		mov	r2, r4
 766 0304 3046     		mov	r0, r6
 767 0306 0A23     		movs	r3, #10
 768 0308 FFF7FEFF 		bl	HAL_SPI_Transmit
 769              	.LVL81:
 770 030c EA23     		movs	r3, #234
 771 030e 07F8183D 		strb	r3, [r7, #-24]!
 772              	.LVL82:
 773              	.LBE564:
 774              	.LBE563:
 775              	.LBB567:
 776              	.LBB568:
 777              	.LBB569:
 778              	.LBB570:
   9:MakiseGUI/MakiseGUI/ILI9340C/ili9340.c **** 
 779              		.loc 1 9 0
 780 0312 5A46     		mov	r2, fp
 781 0314 2846     		mov	r0, r5
 782 0316 1021     		movs	r1, #16
 783 0318 FFF7FEFF 		bl	HAL_GPIO_WritePin
 784              	.LVL83:
 785              	.LBE570:
 786              	.LBE569:
 787              		.loc 1 365 0
 788 031c 3946     		mov	r1, r7
ARM GAS  /tmp/ccugowHg.s 			page 22


 789 031e 1CAF     		add	r7, sp, #112
 790 0320 2246     		mov	r2, r4
 791 0322 0A23     		movs	r3, #10
 792 0324 3046     		mov	r0, r6
 793 0326 FFF7FEFF 		bl	HAL_SPI_Transmit
 794              	.LVL84:
 795 032a 07F819BD 		strb	fp, [r7, #-25]!
 796              	.LVL85:
 797              	.LBE568:
 798              	.LBE567:
 799              	.LBB571:
 800              	.LBB572:
 801              	.LBB573:
 802              	.LBB574:
   9:MakiseGUI/MakiseGUI/ILI9340C/ili9340.c **** 
 803              		.loc 1 9 0
 804 032e 2246     		mov	r2, r4
 805 0330 2846     		mov	r0, r5
 806 0332 1021     		movs	r1, #16
 807 0334 FFF7FEFF 		bl	HAL_GPIO_WritePin
 808              	.LVL86:
 809              	.LBE574:
 810              	.LBE573:
 358:MakiseGUI/MakiseGUI/ILI9340C/ili9340.c **** }
 811              		.loc 1 358 0
 812 0338 3946     		mov	r1, r7
 813 033a 1CAF     		add	r7, sp, #112
 814 033c 2246     		mov	r2, r4
 815 033e 0A23     		movs	r3, #10
 816 0340 3046     		mov	r0, r6
 817 0342 FFF7FEFF 		bl	HAL_SPI_Transmit
 818              	.LVL87:
 819 0346 07F81ABD 		strb	fp, [r7, #-26]!
 820              	.LVL88:
 821              	.LBE572:
 822              	.LBE571:
 823              	.LBB575:
 824              	.LBB576:
 825              	.LBB577:
 826              	.LBB578:
   9:MakiseGUI/MakiseGUI/ILI9340C/ili9340.c **** 
 827              		.loc 1 9 0
 828 034a 2246     		mov	r2, r4
 829 034c 2846     		mov	r0, r5
 830 034e 1021     		movs	r1, #16
 831 0350 FFF7FEFF 		bl	HAL_GPIO_WritePin
 832              	.LVL89:
 833 0354 0DF17008 		add	r8, sp, #112
 834              	.LBE578:
 835              	.LBE577:
 358:MakiseGUI/MakiseGUI/ILI9340C/ili9340.c **** }
 836              		.loc 1 358 0
 837 0358 3946     		mov	r1, r7
 838 035a 2246     		mov	r2, r4
 839 035c 3046     		mov	r0, r6
 840 035e 0A23     		movs	r3, #10
 841 0360 FFF7FEFF 		bl	HAL_SPI_Transmit
ARM GAS  /tmp/ccugowHg.s 			page 23


 842              	.LVL90:
 843 0364 C023     		movs	r3, #192
 844 0366 08F81B3D 		strb	r3, [r8, #-27]!
 845              	.LVL91:
 846 036a 1CAF     		add	r7, sp, #112
 847              	.LBE576:
 848              	.LBE575:
 849              	.LBB579:
 850              	.LBB580:
 851              	.LBB581:
 852              	.LBB582:
   9:MakiseGUI/MakiseGUI/ILI9340C/ili9340.c **** 
 853              		.loc 1 9 0
 854 036c 5A46     		mov	r2, fp
 855 036e 2846     		mov	r0, r5
 856 0370 1021     		movs	r1, #16
 857 0372 FFF7FEFF 		bl	HAL_GPIO_WritePin
 858              	.LVL92:
 859 0376 4FF0260A 		mov	r10, #38
 860              	.LBE582:
 861              	.LBE581:
 862              		.loc 1 365 0
 863 037a 4146     		mov	r1, r8
 864 037c 2246     		mov	r2, r4
 865 037e 0A23     		movs	r3, #10
 866 0380 3046     		mov	r0, r6
 867 0382 FFF7FEFF 		bl	HAL_SPI_Transmit
 868              	.LVL93:
 869 0386 07F81CAD 		strb	r10, [r7, #-28]!
 870              	.LVL94:
 871              	.LBE580:
 872              	.LBE579:
 873              	.LBB583:
 874              	.LBB584:
 875              	.LBB585:
 876              	.LBB586:
   9:MakiseGUI/MakiseGUI/ILI9340C/ili9340.c **** 
 877              		.loc 1 9 0
 878 038a 2246     		mov	r2, r4
 879 038c 2846     		mov	r0, r5
 880 038e 1021     		movs	r1, #16
 881 0390 FFF7FEFF 		bl	HAL_GPIO_WritePin
 882              	.LVL95:
 883 0394 0DF17008 		add	r8, sp, #112
 884              	.LBE586:
 885              	.LBE585:
 358:MakiseGUI/MakiseGUI/ILI9340C/ili9340.c **** }
 886              		.loc 1 358 0
 887 0398 3946     		mov	r1, r7
 888 039a 2246     		mov	r2, r4
 889 039c 3046     		mov	r0, r6
 890 039e 0A23     		movs	r3, #10
 891 03a0 FFF7FEFF 		bl	HAL_SPI_Transmit
 892              	.LVL96:
 893 03a4 6FF03E03 		mvn	r3, #62
 894 03a8 08F81D3D 		strb	r3, [r8, #-29]!
 895              	.LVL97:
ARM GAS  /tmp/ccugowHg.s 			page 24


 896              	.LBE584:
 897              	.LBE583:
 898              	.LBB587:
 899              	.LBB588:
 900              	.LBB589:
 901              	.LBB590:
   9:MakiseGUI/MakiseGUI/ILI9340C/ili9340.c **** 
 902              		.loc 1 9 0
 903 03ac 5A46     		mov	r2, fp
 904 03ae 2846     		mov	r0, r5
 905 03b0 1021     		movs	r1, #16
 906 03b2 FFF7FEFF 		bl	HAL_GPIO_WritePin
 907              	.LVL98:
 908 03b6 1CAF     		add	r7, sp, #112
 909              	.LBE590:
 910              	.LBE589:
 911              		.loc 1 365 0
 912 03b8 4146     		mov	r1, r8
 913 03ba 2246     		mov	r2, r4
 914 03bc 3046     		mov	r0, r6
 915 03be 0A23     		movs	r3, #10
 916 03c0 FFF7FEFF 		bl	HAL_SPI_Transmit
 917              	.LVL99:
 918 03c4 4FF01103 		mov	r3, #17
 919 03c8 07F81E3D 		strb	r3, [r7, #-30]!
 920              	.LVL100:
 921              	.LBE588:
 922              	.LBE587:
 923              	.LBB591:
 924              	.LBB592:
 925              	.LBB593:
 926              	.LBB594:
   9:MakiseGUI/MakiseGUI/ILI9340C/ili9340.c **** 
 927              		.loc 1 9 0
 928 03cc 2246     		mov	r2, r4
 929 03ce 2846     		mov	r0, r5
 930 03d0 1021     		movs	r1, #16
 931 03d2 03E0     		b	.L9
 932              	.L10:
 933              		.align	2
 934              	.L8:
 935 03d4 00080240 		.word	1073874944
 936 03d8 00000000 		.word	hspi1
 937              	.L9:
 938 03dc FFF7FEFF 		bl	HAL_GPIO_WritePin
 939              	.LVL101:
 940 03e0 0DF17008 		add	r8, sp, #112
 941              	.LBE594:
 942              	.LBE593:
 358:MakiseGUI/MakiseGUI/ILI9340C/ili9340.c **** }
 943              		.loc 1 358 0
 944 03e4 3946     		mov	r1, r7
 945 03e6 2246     		mov	r2, r4
 946 03e8 3046     		mov	r0, r6
 947 03ea 0A23     		movs	r3, #10
 948 03ec FFF7FEFF 		bl	HAL_SPI_Transmit
 949              	.LVL102:
ARM GAS  /tmp/ccugowHg.s 			page 25


 950 03f0 C523     		movs	r3, #197
 951 03f2 08F81F3D 		strb	r3, [r8, #-31]!
 952              	.LVL103:
 953              	.LBE592:
 954              	.LBE591:
 955              	.LBB595:
 956              	.LBB596:
 957              	.LBB597:
 958              	.LBB598:
   9:MakiseGUI/MakiseGUI/ILI9340C/ili9340.c **** 
 959              		.loc 1 9 0
 960 03f6 5A46     		mov	r2, fp
 961 03f8 2846     		mov	r0, r5
 962 03fa 1021     		movs	r1, #16
 963 03fc FFF7FEFF 		bl	HAL_GPIO_WritePin
 964              	.LVL104:
 965 0400 1CAF     		add	r7, sp, #112
 966              	.LBE598:
 967              	.LBE597:
 968              		.loc 1 365 0
 969 0402 4146     		mov	r1, r8
 970 0404 2246     		mov	r2, r4
 971 0406 3046     		mov	r0, r6
 972 0408 0A23     		movs	r3, #10
 973 040a FFF7FEFF 		bl	HAL_SPI_Transmit
 974              	.LVL105:
 975 040e 3523     		movs	r3, #53
 976 0410 07F8203D 		strb	r3, [r7, #-32]!
 977              	.LVL106:
 978              	.LBE596:
 979              	.LBE595:
 980              	.LBB599:
 981              	.LBB600:
 982              	.LBB601:
 983              	.LBB602:
   9:MakiseGUI/MakiseGUI/ILI9340C/ili9340.c **** 
 984              		.loc 1 9 0
 985 0414 2246     		mov	r2, r4
 986 0416 2846     		mov	r0, r5
 987 0418 1021     		movs	r1, #16
 988 041a FFF7FEFF 		bl	HAL_GPIO_WritePin
 989              	.LVL107:
 990 041e 0DF17008 		add	r8, sp, #112
 991              	.LBE602:
 992              	.LBE601:
 358:MakiseGUI/MakiseGUI/ILI9340C/ili9340.c **** }
 993              		.loc 1 358 0
 994 0422 3946     		mov	r1, r7
 995 0424 2246     		mov	r2, r4
 996 0426 3046     		mov	r0, r6
 997 0428 0A23     		movs	r3, #10
 998 042a FFF7FEFF 		bl	HAL_SPI_Transmit
 999              	.LVL108:
 1000 042e 3E23     		movs	r3, #62
 1001 0430 08F8213D 		strb	r3, [r8, #-33]!
 1002              	.LVL109:
 1003              	.LBE600:
ARM GAS  /tmp/ccugowHg.s 			page 26


 1004              	.LBE599:
 1005              	.LBB603:
 1006              	.LBB604:
 1007              	.LBB605:
 1008              	.LBB606:
   9:MakiseGUI/MakiseGUI/ILI9340C/ili9340.c **** 
 1009              		.loc 1 9 0
 1010 0434 2246     		mov	r2, r4
 1011 0436 2846     		mov	r0, r5
 1012 0438 1021     		movs	r1, #16
 1013 043a FFF7FEFF 		bl	HAL_GPIO_WritePin
 1014              	.LVL110:
 1015 043e 1CAF     		add	r7, sp, #112
 1016              	.LBE606:
 1017              	.LBE605:
 358:MakiseGUI/MakiseGUI/ILI9340C/ili9340.c **** }
 1018              		.loc 1 358 0
 1019 0440 4146     		mov	r1, r8
 1020 0442 2246     		mov	r2, r4
 1021 0444 3046     		mov	r0, r6
 1022 0446 0A23     		movs	r3, #10
 1023 0448 FFF7FEFF 		bl	HAL_SPI_Transmit
 1024              	.LVL111:
 1025 044c C723     		movs	r3, #199
 1026 044e 07F8223D 		strb	r3, [r7, #-34]!
 1027              	.LVL112:
 1028              	.LBE604:
 1029              	.LBE603:
 1030              	.LBB607:
 1031              	.LBB608:
 1032              	.LBB609:
 1033              	.LBB610:
   9:MakiseGUI/MakiseGUI/ILI9340C/ili9340.c **** 
 1034              		.loc 1 9 0
 1035 0452 5A46     		mov	r2, fp
 1036 0454 2846     		mov	r0, r5
 1037 0456 1021     		movs	r1, #16
 1038 0458 FFF7FEFF 		bl	HAL_GPIO_WritePin
 1039              	.LVL113:
 1040 045c 0DF17008 		add	r8, sp, #112
 1041              	.LBE610:
 1042              	.LBE609:
 1043              		.loc 1 365 0
 1044 0460 3946     		mov	r1, r7
 1045 0462 2246     		mov	r2, r4
 1046 0464 3046     		mov	r0, r6
 1047 0466 0A23     		movs	r3, #10
 1048 0468 FFF7FEFF 		bl	HAL_SPI_Transmit
 1049              	.LVL114:
 1050 046c BE23     		movs	r3, #190
 1051 046e 08F8233D 		strb	r3, [r8, #-35]!
 1052              	.LVL115:
 1053              	.LBE608:
 1054              	.LBE607:
 1055              	.LBB611:
 1056              	.LBB612:
 1057              	.LBB613:
ARM GAS  /tmp/ccugowHg.s 			page 27


 1058              	.LBB614:
   9:MakiseGUI/MakiseGUI/ILI9340C/ili9340.c **** 
 1059              		.loc 1 9 0
 1060 0472 2246     		mov	r2, r4
 1061 0474 2846     		mov	r0, r5
 1062 0476 1021     		movs	r1, #16
 1063 0478 FFF7FEFF 		bl	HAL_GPIO_WritePin
 1064              	.LVL116:
 1065 047c 1CAF     		add	r7, sp, #112
 1066              	.LBE614:
 1067              	.LBE613:
 358:MakiseGUI/MakiseGUI/ILI9340C/ili9340.c **** }
 1068              		.loc 1 358 0
 1069 047e 4146     		mov	r1, r8
 1070 0480 2246     		mov	r2, r4
 1071 0482 3046     		mov	r0, r6
 1072 0484 0A23     		movs	r3, #10
 1073 0486 FFF7FEFF 		bl	HAL_SPI_Transmit
 1074              	.LVL117:
 1075 048a 4FF03603 		mov	r3, #54
 1076 048e 07F8243D 		strb	r3, [r7, #-36]!
 1077              	.LVL118:
 1078              	.LBE612:
 1079              	.LBE611:
 1080              	.LBB615:
 1081              	.LBB616:
 1082              	.LBB617:
 1083              	.LBB618:
   9:MakiseGUI/MakiseGUI/ILI9340C/ili9340.c **** 
 1084              		.loc 1 9 0
 1085 0492 5A46     		mov	r2, fp
 1086 0494 2846     		mov	r0, r5
 1087 0496 1021     		movs	r1, #16
 1088 0498 FFF7FEFF 		bl	HAL_GPIO_WritePin
 1089              	.LVL119:
 1090 049c 0DF17008 		add	r8, sp, #112
 1091              	.LBE618:
 1092              	.LBE617:
 1093              		.loc 1 365 0
 1094 04a0 3946     		mov	r1, r7
 1095 04a2 2246     		mov	r2, r4
 1096 04a4 3046     		mov	r0, r6
 1097 04a6 0A23     		movs	r3, #10
 1098 04a8 FFF7FEFF 		bl	HAL_SPI_Transmit
 1099              	.LVL120:
 1100 04ac 4FF04803 		mov	r3, #72
 1101 04b0 08F8253D 		strb	r3, [r8, #-37]!
 1102              	.LVL121:
 1103              	.LBE616:
 1104              	.LBE615:
 1105              	.LBB619:
 1106              	.LBB620:
 1107              	.LBB621:
 1108              	.LBB622:
   9:MakiseGUI/MakiseGUI/ILI9340C/ili9340.c **** 
 1109              		.loc 1 9 0
 1110 04b4 2246     		mov	r2, r4
ARM GAS  /tmp/ccugowHg.s 			page 28


 1111 04b6 2846     		mov	r0, r5
 1112 04b8 1021     		movs	r1, #16
 1113 04ba FFF7FEFF 		bl	HAL_GPIO_WritePin
 1114              	.LVL122:
 1115 04be 1CAF     		add	r7, sp, #112
 1116              	.LBE622:
 1117              	.LBE621:
 358:MakiseGUI/MakiseGUI/ILI9340C/ili9340.c **** }
 1118              		.loc 1 358 0
 1119 04c0 4146     		mov	r1, r8
 1120 04c2 2246     		mov	r2, r4
 1121 04c4 3046     		mov	r0, r6
 1122 04c6 0A23     		movs	r3, #10
 1123 04c8 FFF7FEFF 		bl	HAL_SPI_Transmit
 1124              	.LVL123:
 1125 04cc 3A23     		movs	r3, #58
 1126 04ce 07F8263D 		strb	r3, [r7, #-38]!
 1127              	.LVL124:
 1128              	.LBE620:
 1129              	.LBE619:
 1130              	.LBB623:
 1131              	.LBB624:
 1132              	.LBB625:
 1133              	.LBB626:
   9:MakiseGUI/MakiseGUI/ILI9340C/ili9340.c **** 
 1134              		.loc 1 9 0
 1135 04d2 5A46     		mov	r2, fp
 1136 04d4 2846     		mov	r0, r5
 1137 04d6 1021     		movs	r1, #16
 1138 04d8 FFF7FEFF 		bl	HAL_GPIO_WritePin
 1139              	.LVL125:
 1140 04dc 0DF17008 		add	r8, sp, #112
 1141              	.LBE626:
 1142              	.LBE625:
 1143              		.loc 1 365 0
 1144 04e0 3946     		mov	r1, r7
 1145 04e2 2246     		mov	r2, r4
 1146 04e4 3046     		mov	r0, r6
 1147 04e6 0A23     		movs	r3, #10
 1148 04e8 FFF7FEFF 		bl	HAL_SPI_Transmit
 1149              	.LVL126:
 1150 04ec 5523     		movs	r3, #85
 1151 04ee 08F8273D 		strb	r3, [r8, #-39]!
 1152              	.LVL127:
 1153              	.LBE624:
 1154              	.LBE623:
 1155              	.LBB627:
 1156              	.LBB628:
 1157              	.LBB629:
 1158              	.LBB630:
   9:MakiseGUI/MakiseGUI/ILI9340C/ili9340.c **** 
 1159              		.loc 1 9 0
 1160 04f2 2246     		mov	r2, r4
 1161 04f4 2846     		mov	r0, r5
 1162 04f6 1021     		movs	r1, #16
 1163 04f8 FFF7FEFF 		bl	HAL_GPIO_WritePin
 1164              	.LVL128:
ARM GAS  /tmp/ccugowHg.s 			page 29


 1165 04fc 1CAF     		add	r7, sp, #112
 1166              	.LBE630:
 1167              	.LBE629:
 358:MakiseGUI/MakiseGUI/ILI9340C/ili9340.c **** }
 1168              		.loc 1 358 0
 1169 04fe 4146     		mov	r1, r8
 1170 0500 2246     		mov	r2, r4
 1171 0502 3046     		mov	r0, r6
 1172 0504 0A23     		movs	r3, #10
 1173 0506 FFF7FEFF 		bl	HAL_SPI_Transmit
 1174              	.LVL129:
 1175 050a B123     		movs	r3, #177
 1176 050c 07F8283D 		strb	r3, [r7, #-40]!
 1177              	.LVL130:
 1178 0510 0DF17008 		add	r8, sp, #112
 1179              	.LBE628:
 1180              	.LBE627:
 1181              	.LBB631:
 1182              	.LBB632:
 1183              	.LBB633:
 1184              	.LBB634:
   9:MakiseGUI/MakiseGUI/ILI9340C/ili9340.c **** 
 1185              		.loc 1 9 0
 1186 0514 5A46     		mov	r2, fp
 1187 0516 2846     		mov	r0, r5
 1188 0518 1021     		movs	r1, #16
 1189 051a FFF7FEFF 		bl	HAL_GPIO_WritePin
 1190              	.LVL131:
 1191              	.LBE634:
 1192              	.LBE633:
 1193              		.loc 1 365 0
 1194 051e 3946     		mov	r1, r7
 1195 0520 2246     		mov	r2, r4
 1196 0522 0A23     		movs	r3, #10
 1197 0524 3046     		mov	r0, r6
 1198 0526 FFF7FEFF 		bl	HAL_SPI_Transmit
 1199              	.LVL132:
 1200 052a 08F829BD 		strb	fp, [r8, #-41]!
 1201              	.LVL133:
 1202              	.LBE632:
 1203              	.LBE631:
 1204              	.LBB635:
 1205              	.LBB636:
 1206              	.LBB637:
 1207              	.LBB638:
   9:MakiseGUI/MakiseGUI/ILI9340C/ili9340.c **** 
 1208              		.loc 1 9 0
 1209 052e 2246     		mov	r2, r4
 1210 0530 2846     		mov	r0, r5
 1211 0532 1021     		movs	r1, #16
 1212 0534 FFF7FEFF 		bl	HAL_GPIO_WritePin
 1213              	.LVL134:
 1214 0538 1CAF     		add	r7, sp, #112
 1215              	.LBE638:
 1216              	.LBE637:
 358:MakiseGUI/MakiseGUI/ILI9340C/ili9340.c **** }
 1217              		.loc 1 358 0
ARM GAS  /tmp/ccugowHg.s 			page 30


 1218 053a 4146     		mov	r1, r8
 1219 053c 2246     		mov	r2, r4
 1220 053e 3046     		mov	r0, r6
 1221 0540 0A23     		movs	r3, #10
 1222 0542 FFF7FEFF 		bl	HAL_SPI_Transmit
 1223              	.LVL135:
 1224 0546 1B23     		movs	r3, #27
 1225 0548 07F82A3D 		strb	r3, [r7, #-42]!
 1226              	.LVL136:
 1227              	.LBE636:
 1228              	.LBE635:
 1229              	.LBB639:
 1230              	.LBB640:
 1231              	.LBB641:
 1232              	.LBB642:
   9:MakiseGUI/MakiseGUI/ILI9340C/ili9340.c **** 
 1233              		.loc 1 9 0
 1234 054c 2246     		mov	r2, r4
 1235 054e 2846     		mov	r0, r5
 1236 0550 1021     		movs	r1, #16
 1237 0552 FFF7FEFF 		bl	HAL_GPIO_WritePin
 1238              	.LVL137:
 1239 0556 0DF17008 		add	r8, sp, #112
 1240              	.LBE642:
 1241              	.LBE641:
 358:MakiseGUI/MakiseGUI/ILI9340C/ili9340.c **** }
 1242              		.loc 1 358 0
 1243 055a 3946     		mov	r1, r7
 1244 055c 2246     		mov	r2, r4
 1245 055e 3046     		mov	r0, r6
 1246 0560 0A23     		movs	r3, #10
 1247 0562 FFF7FEFF 		bl	HAL_SPI_Transmit
 1248              	.LVL138:
 1249 0566 F223     		movs	r3, #242
 1250 0568 08F82B3D 		strb	r3, [r8, #-43]!
 1251              	.LVL139:
 1252              	.LBE640:
 1253              	.LBE639:
 1254              	.LBB643:
 1255              	.LBB644:
 1256              	.LBB645:
 1257              	.LBB646:
   9:MakiseGUI/MakiseGUI/ILI9340C/ili9340.c **** 
 1258              		.loc 1 9 0
 1259 056c 5A46     		mov	r2, fp
 1260 056e 2846     		mov	r0, r5
 1261 0570 1021     		movs	r1, #16
 1262 0572 FFF7FEFF 		bl	HAL_GPIO_WritePin
 1263              	.LVL140:
 1264 0576 1CAF     		add	r7, sp, #112
 1265              	.LBE646:
 1266              	.LBE645:
 1267              		.loc 1 365 0
 1268 0578 4146     		mov	r1, r8
 1269 057a 2246     		mov	r2, r4
 1270 057c 3046     		mov	r0, r6
 1271 057e 0A23     		movs	r3, #10
ARM GAS  /tmp/ccugowHg.s 			page 31


 1272 0580 FFF7FEFF 		bl	HAL_SPI_Transmit
 1273              	.LVL141:
 1274 0584 4FF00803 		mov	r3, #8
 1275 0588 07F82C3D 		strb	r3, [r7, #-44]!
 1276              	.LVL142:
 1277              	.LBE644:
 1278              	.LBE643:
 1279              	.LBB647:
 1280              	.LBB648:
 1281              	.LBB649:
 1282              	.LBB650:
   9:MakiseGUI/MakiseGUI/ILI9340C/ili9340.c **** 
 1283              		.loc 1 9 0
 1284 058c 2246     		mov	r2, r4
 1285 058e 2846     		mov	r0, r5
 1286 0590 1021     		movs	r1, #16
 1287 0592 FFF7FEFF 		bl	HAL_GPIO_WritePin
 1288              	.LVL143:
 1289              	.LBE650:
 1290              	.LBE649:
 358:MakiseGUI/MakiseGUI/ILI9340C/ili9340.c **** }
 1291              		.loc 1 358 0
 1292 0596 3946     		mov	r1, r7
 1293 0598 1CAF     		add	r7, sp, #112
 1294 059a 2246     		mov	r2, r4
 1295 059c 0A23     		movs	r3, #10
 1296 059e 3046     		mov	r0, r6
 1297 05a0 FFF7FEFF 		bl	HAL_SPI_Transmit
 1298              	.LVL144:
 1299 05a4 07F82DAD 		strb	r10, [r7, #-45]!
 1300              	.LVL145:
 1301              	.LBE648:
 1302              	.LBE647:
 1303              	.LBB651:
 1304              	.LBB652:
 1305              	.LBB653:
 1306              	.LBB654:
   9:MakiseGUI/MakiseGUI/ILI9340C/ili9340.c **** 
 1307              		.loc 1 9 0
 1308 05a8 5A46     		mov	r2, fp
 1309 05aa 2846     		mov	r0, r5
 1310 05ac 1021     		movs	r1, #16
 1311 05ae FFF7FEFF 		bl	HAL_GPIO_WritePin
 1312              	.LVL146:
 1313              	.LBE654:
 1314              	.LBE653:
 1315              		.loc 1 365 0
 1316 05b2 3946     		mov	r1, r7
 1317 05b4 1CAF     		add	r7, sp, #112
 1318 05b6 2246     		mov	r2, r4
 1319 05b8 0A23     		movs	r3, #10
 1320 05ba 3046     		mov	r0, r6
 1321 05bc FFF7FEFF 		bl	HAL_SPI_Transmit
 1322              	.LVL147:
 1323 05c0 07F82E9D 		strb	r9, [r7, #-46]!
 1324              	.LVL148:
 1325              	.LBE652:
ARM GAS  /tmp/ccugowHg.s 			page 32


 1326              	.LBE651:
 1327              	.LBB655:
 1328              	.LBB656:
 1329              	.LBB657:
 1330              	.LBB658:
   9:MakiseGUI/MakiseGUI/ILI9340C/ili9340.c **** 
 1331              		.loc 1 9 0
 1332 05c4 2246     		mov	r2, r4
 1333 05c6 2846     		mov	r0, r5
 1334 05c8 1021     		movs	r1, #16
 1335 05ca FFF7FEFF 		bl	HAL_GPIO_WritePin
 1336              	.LVL149:
 1337 05ce 0DF17008 		add	r8, sp, #112
 1338              	.LBE658:
 1339              	.LBE657:
 358:MakiseGUI/MakiseGUI/ILI9340C/ili9340.c **** }
 1340              		.loc 1 358 0
 1341 05d2 3946     		mov	r1, r7
 1342 05d4 2246     		mov	r2, r4
 1343 05d6 3046     		mov	r0, r6
 1344 05d8 0A23     		movs	r3, #10
 1345 05da FFF7FEFF 		bl	HAL_SPI_Transmit
 1346              	.LVL150:
 1347 05de E023     		movs	r3, #224
 1348 05e0 08F82F3D 		strb	r3, [r8, #-47]!
 1349              	.LVL151:
 1350              	.LBE656:
 1351              	.LBE655:
 1352              	.LBB659:
 1353              	.LBB660:
 1354              	.LBB661:
 1355              	.LBB662:
   9:MakiseGUI/MakiseGUI/ILI9340C/ili9340.c **** 
 1356              		.loc 1 9 0
 1357 05e4 5A46     		mov	r2, fp
 1358 05e6 2846     		mov	r0, r5
 1359 05e8 1021     		movs	r1, #16
 1360 05ea FFF7FEFF 		bl	HAL_GPIO_WritePin
 1361              	.LVL152:
 1362 05ee 1CAF     		add	r7, sp, #112
 1363              	.LBE662:
 1364              	.LBE661:
 1365              		.loc 1 365 0
 1366 05f0 4146     		mov	r1, r8
 1367 05f2 2246     		mov	r2, r4
 1368 05f4 3046     		mov	r0, r6
 1369 05f6 0A23     		movs	r3, #10
 1370 05f8 FFF7FEFF 		bl	HAL_SPI_Transmit
 1371              	.LVL153:
 1372 05fc 4FF00F03 		mov	r3, #15
 1373 0600 07F8303D 		strb	r3, [r7, #-48]!
 1374              	.LVL154:
 1375              	.LBE660:
 1376              	.LBE659:
 1377              	.LBB663:
 1378              	.LBB664:
 1379              	.LBB665:
ARM GAS  /tmp/ccugowHg.s 			page 33


 1380              	.LBB666:
   9:MakiseGUI/MakiseGUI/ILI9340C/ili9340.c **** 
 1381              		.loc 1 9 0
 1382 0604 2246     		mov	r2, r4
 1383 0606 2846     		mov	r0, r5
 1384 0608 1021     		movs	r1, #16
 1385 060a FFF7FEFF 		bl	HAL_GPIO_WritePin
 1386              	.LVL155:
 1387 060e 0DF17008 		add	r8, sp, #112
 1388              	.LBE666:
 1389              	.LBE665:
 358:MakiseGUI/MakiseGUI/ILI9340C/ili9340.c **** }
 1390              		.loc 1 358 0
 1391 0612 3946     		mov	r1, r7
 1392 0614 2246     		mov	r2, r4
 1393 0616 3046     		mov	r0, r6
 1394 0618 0A23     		movs	r3, #10
 1395 061a FFF7FEFF 		bl	HAL_SPI_Transmit
 1396              	.LVL156:
 1397 061e 4FF03103 		mov	r3, #49
 1398 0622 08F8313D 		strb	r3, [r8, #-49]!
 1399              	.LVL157:
 1400              	.LBE664:
 1401              	.LBE663:
 1402              	.LBB667:
 1403              	.LBB668:
 1404              	.LBB669:
 1405              	.LBB670:
   9:MakiseGUI/MakiseGUI/ILI9340C/ili9340.c **** 
 1406              		.loc 1 9 0
 1407 0626 2246     		mov	r2, r4
 1408 0628 2846     		mov	r0, r5
 1409 062a 1021     		movs	r1, #16
 1410 062c FFF7FEFF 		bl	HAL_GPIO_WritePin
 1411              	.LVL158:
 1412 0630 1CAF     		add	r7, sp, #112
 1413              	.LBE670:
 1414              	.LBE669:
 358:MakiseGUI/MakiseGUI/ILI9340C/ili9340.c **** }
 1415              		.loc 1 358 0
 1416 0632 4146     		mov	r1, r8
 1417 0634 2246     		mov	r2, r4
 1418 0636 3046     		mov	r0, r6
 1419 0638 0A23     		movs	r3, #10
 1420 063a FFF7FEFF 		bl	HAL_SPI_Transmit
 1421              	.LVL159:
 1422 063e 2B23     		movs	r3, #43
 1423 0640 07F8323D 		strb	r3, [r7, #-50]!
 1424              	.LVL160:
 1425              	.LBE668:
 1426              	.LBE667:
 1427              	.LBB671:
 1428              	.LBB672:
 1429              	.LBB673:
 1430              	.LBB674:
   9:MakiseGUI/MakiseGUI/ILI9340C/ili9340.c **** 
 1431              		.loc 1 9 0
ARM GAS  /tmp/ccugowHg.s 			page 34


 1432 0644 2246     		mov	r2, r4
 1433 0646 2846     		mov	r0, r5
 1434 0648 1021     		movs	r1, #16
 1435 064a FFF7FEFF 		bl	HAL_GPIO_WritePin
 1436              	.LVL161:
 1437 064e 0DF17009 		add	r9, sp, #112
 1438              	.LBE674:
 1439              	.LBE673:
 358:MakiseGUI/MakiseGUI/ILI9340C/ili9340.c **** }
 1440              		.loc 1 358 0
 1441 0652 3946     		mov	r1, r7
 1442 0654 2246     		mov	r2, r4
 1443 0656 3046     		mov	r0, r6
 1444 0658 0A23     		movs	r3, #10
 1445 065a FFF7FEFF 		bl	HAL_SPI_Transmit
 1446              	.LVL162:
 1447 065e 4FF00C03 		mov	r3, #12
 1448 0662 09F8333D 		strb	r3, [r9, #-51]!
 1449              	.LVL163:
 1450 0666 1CAF     		add	r7, sp, #112
 1451              	.LBE672:
 1452              	.LBE671:
 1453              	.LBB675:
 1454              	.LBB676:
 1455              	.LBB677:
 1456              	.LBB678:
   9:MakiseGUI/MakiseGUI/ILI9340C/ili9340.c **** 
 1457              		.loc 1 9 0
 1458 0668 2246     		mov	r2, r4
 1459 066a 2846     		mov	r0, r5
 1460 066c 1021     		movs	r1, #16
 1461 066e FFF7FEFF 		bl	HAL_GPIO_WritePin
 1462              	.LVL164:
 1463 0672 4FF00E08 		mov	r8, #14
 1464              	.LBE678:
 1465              	.LBE677:
 358:MakiseGUI/MakiseGUI/ILI9340C/ili9340.c **** }
 1466              		.loc 1 358 0
 1467 0676 4946     		mov	r1, r9
 1468 0678 2246     		mov	r2, r4
 1469 067a 0A23     		movs	r3, #10
 1470 067c 3046     		mov	r0, r6
 1471 067e FFF7FEFF 		bl	HAL_SPI_Transmit
 1472              	.LVL165:
 1473 0682 07F8348D 		strb	r8, [r7, #-52]!
 1474              	.LVL166:
 1475              	.LBE676:
 1476              	.LBE675:
 1477              	.LBB679:
 1478              	.LBB680:
 1479              	.LBB681:
 1480              	.LBB682:
   9:MakiseGUI/MakiseGUI/ILI9340C/ili9340.c **** 
 1481              		.loc 1 9 0
 1482 0686 2246     		mov	r2, r4
 1483 0688 2846     		mov	r0, r5
 1484 068a 1021     		movs	r1, #16
ARM GAS  /tmp/ccugowHg.s 			page 35


 1485 068c FFF7FEFF 		bl	HAL_GPIO_WritePin
 1486              	.LVL167:
 1487 0690 0DF17009 		add	r9, sp, #112
 1488              	.LBE682:
 1489              	.LBE681:
 358:MakiseGUI/MakiseGUI/ILI9340C/ili9340.c **** }
 1490              		.loc 1 358 0
 1491 0694 3946     		mov	r1, r7
 1492 0696 2246     		mov	r2, r4
 1493 0698 3046     		mov	r0, r6
 1494 069a 0A23     		movs	r3, #10
 1495 069c FFF7FEFF 		bl	HAL_SPI_Transmit
 1496              	.LVL168:
 1497 06a0 4FF00803 		mov	r3, #8
 1498 06a4 09F8353D 		strb	r3, [r9, #-53]!
 1499              	.LVL169:
 1500              	.LBE680:
 1501              	.LBE679:
 1502              	.LBB683:
 1503              	.LBB684:
 1504              	.LBB685:
 1505              	.LBB686:
   9:MakiseGUI/MakiseGUI/ILI9340C/ili9340.c **** 
 1506              		.loc 1 9 0
 1507 06a8 2246     		mov	r2, r4
 1508 06aa 2846     		mov	r0, r5
 1509 06ac 1021     		movs	r1, #16
 1510 06ae FFF7FEFF 		bl	HAL_GPIO_WritePin
 1511              	.LVL170:
 1512 06b2 1CAF     		add	r7, sp, #112
 1513              	.LBE686:
 1514              	.LBE685:
 358:MakiseGUI/MakiseGUI/ILI9340C/ili9340.c **** }
 1515              		.loc 1 358 0
 1516 06b4 4946     		mov	r1, r9
 1517 06b6 2246     		mov	r2, r4
 1518 06b8 3046     		mov	r0, r6
 1519 06ba 0A23     		movs	r3, #10
 1520 06bc FFF7FEFF 		bl	HAL_SPI_Transmit
 1521              	.LVL171:
 1522 06c0 4E23     		movs	r3, #78
 1523 06c2 07F8363D 		strb	r3, [r7, #-54]!
 1524              	.LVL172:
 1525              	.LBE684:
 1526              	.LBE683:
 1527              	.LBB687:
 1528              	.LBB688:
 1529              	.LBB689:
 1530              	.LBB690:
   9:MakiseGUI/MakiseGUI/ILI9340C/ili9340.c **** 
 1531              		.loc 1 9 0
 1532 06c6 2246     		mov	r2, r4
 1533 06c8 2846     		mov	r0, r5
 1534 06ca 1021     		movs	r1, #16
 1535 06cc FFF7FEFF 		bl	HAL_GPIO_WritePin
 1536              	.LVL173:
 1537 06d0 0DF17009 		add	r9, sp, #112
ARM GAS  /tmp/ccugowHg.s 			page 36


 1538              	.LBE690:
 1539              	.LBE689:
 358:MakiseGUI/MakiseGUI/ILI9340C/ili9340.c **** }
 1540              		.loc 1 358 0
 1541 06d4 3946     		mov	r1, r7
 1542 06d6 2246     		mov	r2, r4
 1543 06d8 3046     		mov	r0, r6
 1544 06da 0A23     		movs	r3, #10
 1545 06dc FFF7FEFF 		bl	HAL_SPI_Transmit
 1546              	.LVL174:
 1547 06e0 F123     		movs	r3, #241
 1548 06e2 09F8373D 		strb	r3, [r9, #-55]!
 1549              	.LVL175:
 1550              	.LBE688:
 1551              	.LBE687:
 1552              	.LBB691:
 1553              	.LBB692:
 1554              	.LBB693:
 1555              	.LBB694:
   9:MakiseGUI/MakiseGUI/ILI9340C/ili9340.c **** 
 1556              		.loc 1 9 0
 1557 06e6 2246     		mov	r2, r4
 1558 06e8 2846     		mov	r0, r5
 1559 06ea 1021     		movs	r1, #16
 1560 06ec FFF7FEFF 		bl	HAL_GPIO_WritePin
 1561              	.LVL176:
 1562 06f0 1CAF     		add	r7, sp, #112
 1563              	.LBE694:
 1564              	.LBE693:
 358:MakiseGUI/MakiseGUI/ILI9340C/ili9340.c **** }
 1565              		.loc 1 358 0
 1566 06f2 4946     		mov	r1, r9
 1567 06f4 2246     		mov	r2, r4
 1568 06f6 3046     		mov	r0, r6
 1569 06f8 0A23     		movs	r3, #10
 1570 06fa FFF7FEFF 		bl	HAL_SPI_Transmit
 1571              	.LVL177:
 1572 06fe 3723     		movs	r3, #55
 1573 0700 07F8383D 		strb	r3, [r7, #-56]!
 1574              	.LVL178:
 1575              	.LBE692:
 1576              	.LBE691:
 1577              	.LBB695:
 1578              	.LBB696:
 1579              	.LBB697:
 1580              	.LBB698:
   9:MakiseGUI/MakiseGUI/ILI9340C/ili9340.c **** 
 1581              		.loc 1 9 0
 1582 0704 2246     		mov	r2, r4
 1583 0706 2846     		mov	r0, r5
 1584 0708 1021     		movs	r1, #16
 1585 070a FFF7FEFF 		bl	HAL_GPIO_WritePin
 1586              	.LVL179:
 1587 070e 0DF1700A 		add	r10, sp, #112
 1588              	.LBE698:
 1589              	.LBE697:
 358:MakiseGUI/MakiseGUI/ILI9340C/ili9340.c **** }
ARM GAS  /tmp/ccugowHg.s 			page 37


 1590              		.loc 1 358 0
 1591 0712 3946     		mov	r1, r7
 1592 0714 2246     		mov	r2, r4
 1593 0716 3046     		mov	r0, r6
 1594 0718 0A23     		movs	r3, #10
 1595 071a FFF7FEFF 		bl	HAL_SPI_Transmit
 1596              	.LVL180:
 1597 071e 4FF00703 		mov	r3, #7
 1598 0722 0AF8393D 		strb	r3, [r10, #-57]!
 1599              	.LVL181:
 1600 0726 0DF17009 		add	r9, sp, #112
 1601              	.LBE696:
 1602              	.LBE695:
 1603              	.LBB699:
 1604              	.LBB700:
 1605              	.LBB701:
 1606              	.LBB702:
   9:MakiseGUI/MakiseGUI/ILI9340C/ili9340.c **** 
 1607              		.loc 1 9 0
 1608 072a 2246     		mov	r2, r4
 1609 072c 2846     		mov	r0, r5
 1610 072e 1021     		movs	r1, #16
 1611 0730 1027     		movs	r7, #16
 1612 0732 FFF7FEFF 		bl	HAL_GPIO_WritePin
 1613              	.LVL182:
 1614              	.LBE702:
 1615              	.LBE701:
 358:MakiseGUI/MakiseGUI/ILI9340C/ili9340.c **** }
 1616              		.loc 1 358 0
 1617 0736 5146     		mov	r1, r10
 1618 0738 2246     		mov	r2, r4
 1619 073a 0A23     		movs	r3, #10
 1620 073c 3046     		mov	r0, r6
 1621 073e FFF7FEFF 		bl	HAL_SPI_Transmit
 1622              	.LVL183:
 1623 0742 09F83A7D 		strb	r7, [r9, #-58]!
 1624              	.LVL184:
 1625              	.LBE700:
 1626              	.LBE699:
 1627              	.LBB703:
 1628              	.LBB704:
 1629              	.LBB705:
 1630              	.LBB706:
   9:MakiseGUI/MakiseGUI/ILI9340C/ili9340.c **** 
 1631              		.loc 1 9 0
 1632 0746 2246     		mov	r2, r4
 1633 0748 2846     		mov	r0, r5
 1634 074a 3946     		mov	r1, r7
 1635 074c FFF7FEFF 		bl	HAL_GPIO_WritePin
 1636              	.LVL185:
 1637              	.LBE706:
 1638              	.LBE705:
 358:MakiseGUI/MakiseGUI/ILI9340C/ili9340.c **** }
 1639              		.loc 1 358 0
 1640 0750 4946     		mov	r1, r9
 1641 0752 2246     		mov	r2, r4
 1642 0754 0DF17009 		add	r9, sp, #112
ARM GAS  /tmp/ccugowHg.s 			page 38


 1643 0758 3046     		mov	r0, r6
 1644 075a 0A23     		movs	r3, #10
 1645 075c FFF7FEFF 		bl	HAL_SPI_Transmit
 1646              	.LVL186:
 1647 0760 4FF00303 		mov	r3, #3
 1648 0764 09F83B3D 		strb	r3, [r9, #-59]!
 1649              	.LVL187:
 1650 0768 0DF1700A 		add	r10, sp, #112
 1651              	.LBE704:
 1652              	.LBE703:
 1653              	.LBB707:
 1654              	.LBB708:
 1655              	.LBB709:
 1656              	.LBB710:
   9:MakiseGUI/MakiseGUI/ILI9340C/ili9340.c **** 
 1657              		.loc 1 9 0
 1658 076c 2246     		mov	r2, r4
 1659 076e 3946     		mov	r1, r7
 1660 0770 2846     		mov	r0, r5
 1661 0772 FFF7FEFF 		bl	HAL_GPIO_WritePin
 1662              	.LVL188:
 1663              	.LBE710:
 1664              	.LBE709:
 358:MakiseGUI/MakiseGUI/ILI9340C/ili9340.c **** }
 1665              		.loc 1 358 0
 1666 0776 4946     		mov	r1, r9
 1667 0778 2246     		mov	r2, r4
 1668 077a 0A23     		movs	r3, #10
 1669 077c 3046     		mov	r0, r6
 1670 077e FFF7FEFF 		bl	HAL_SPI_Transmit
 1671              	.LVL189:
 1672 0782 0AF83C8D 		strb	r8, [r10, #-60]!
 1673              	.LVL190:
 1674              	.LBE708:
 1675              	.LBE707:
 1676              	.LBB711:
 1677              	.LBB712:
 1678              	.LBB713:
 1679              	.LBB714:
   9:MakiseGUI/MakiseGUI/ILI9340C/ili9340.c **** 
 1680              		.loc 1 9 0
 1681 0786 2246     		mov	r2, r4
 1682 0788 3946     		mov	r1, r7
 1683 078a 2846     		mov	r0, r5
 1684 078c FFF7FEFF 		bl	HAL_GPIO_WritePin
 1685              	.LVL191:
 1686 0790 0DF17009 		add	r9, sp, #112
 1687              	.LBE714:
 1688              	.LBE713:
 358:MakiseGUI/MakiseGUI/ILI9340C/ili9340.c **** }
 1689              		.loc 1 358 0
 1690 0794 5146     		mov	r1, r10
 1691 0796 2246     		mov	r2, r4
 1692 0798 3046     		mov	r0, r6
 1693 079a 0A23     		movs	r3, #10
 1694 079c FFF7FEFF 		bl	HAL_SPI_Transmit
 1695              	.LVL192:
ARM GAS  /tmp/ccugowHg.s 			page 39


 1696 07a0 0923     		movs	r3, #9
 1697 07a2 09F83D3D 		strb	r3, [r9, #-61]!
 1698              	.LVL193:
 1699 07a6 0DF1700A 		add	r10, sp, #112
 1700              	.LBE712:
 1701              	.LBE711:
 1702              	.LBB715:
 1703              	.LBB716:
 1704              	.LBB717:
 1705              	.LBB718:
   9:MakiseGUI/MakiseGUI/ILI9340C/ili9340.c **** 
 1706              		.loc 1 9 0
 1707 07aa 2246     		mov	r2, r4
 1708 07ac 3946     		mov	r1, r7
 1709 07ae 2846     		mov	r0, r5
 1710 07b0 FFF7FEFF 		bl	HAL_GPIO_WritePin
 1711              	.LVL194:
 1712              	.LBE718:
 1713              	.LBE717:
 358:MakiseGUI/MakiseGUI/ILI9340C/ili9340.c **** }
 1714              		.loc 1 358 0
 1715 07b4 4946     		mov	r1, r9
 1716 07b6 2246     		mov	r2, r4
 1717 07b8 0A23     		movs	r3, #10
 1718 07ba 3046     		mov	r0, r6
 1719 07bc FFF7FEFF 		bl	HAL_SPI_Transmit
 1720              	.LVL195:
 1721 07c0 0AF83EBD 		strb	fp, [r10, #-62]!
 1722              	.LVL196:
 1723              	.LBE716:
 1724              	.LBE715:
 1725              	.LBB719:
 1726              	.LBB720:
 1727              	.LBB721:
 1728              	.LBB722:
   9:MakiseGUI/MakiseGUI/ILI9340C/ili9340.c **** 
 1729              		.loc 1 9 0
 1730 07c4 2246     		mov	r2, r4
 1731 07c6 3946     		mov	r1, r7
 1732 07c8 2846     		mov	r0, r5
 1733 07ca FFF7FEFF 		bl	HAL_GPIO_WritePin
 1734              	.LVL197:
 1735 07ce 0DF17009 		add	r9, sp, #112
 1736              	.LBE722:
 1737              	.LBE721:
 358:MakiseGUI/MakiseGUI/ILI9340C/ili9340.c **** }
 1738              		.loc 1 358 0
 1739 07d2 5146     		mov	r1, r10
 1740 07d4 2246     		mov	r2, r4
 1741 07d6 3046     		mov	r0, r6
 1742 07d8 0A23     		movs	r3, #10
 1743 07da FFF7FEFF 		bl	HAL_SPI_Transmit
 1744              	.LVL198:
 1745 07de E123     		movs	r3, #225
 1746 07e0 09F83F3D 		strb	r3, [r9, #-63]!
 1747              	.LVL199:
 1748              	.LBE720:
ARM GAS  /tmp/ccugowHg.s 			page 40


 1749              	.LBE719:
 1750              	.LBB723:
 1751              	.LBB724:
 1752              	.LBB725:
 1753              	.LBB726:
   9:MakiseGUI/MakiseGUI/ILI9340C/ili9340.c **** 
 1754              		.loc 1 9 0
 1755 07e4 5A46     		mov	r2, fp
 1756 07e6 3946     		mov	r1, r7
 1757 07e8 2846     		mov	r0, r5
 1758 07ea FFF7FEFF 		bl	HAL_GPIO_WritePin
 1759              	.LVL200:
 1760              	.LBE726:
 1761              	.LBE725:
 1762              		.loc 1 365 0
 1763 07ee 4946     		mov	r1, r9
 1764 07f0 0DF17009 		add	r9, sp, #112
 1765 07f4 2246     		mov	r2, r4
 1766 07f6 0A23     		movs	r3, #10
 1767 07f8 3046     		mov	r0, r6
 1768 07fa FFF7FEFF 		bl	HAL_SPI_Transmit
 1769              	.LVL201:
 1770 07fe 09F840BD 		strb	fp, [r9, #-64]!
 1771              	.LVL202:
 1772              	.LBE724:
 1773              	.LBE723:
 1774              	.LBB727:
 1775              	.LBB728:
 1776              	.LBB729:
 1777              	.LBB730:
   9:MakiseGUI/MakiseGUI/ILI9340C/ili9340.c **** 
 1778              		.loc 1 9 0
 1779 0802 2246     		mov	r2, r4
 1780 0804 3946     		mov	r1, r7
 1781 0806 2846     		mov	r0, r5
 1782 0808 FFF7FEFF 		bl	HAL_GPIO_WritePin
 1783              	.LVL203:
 1784              	.LBE730:
 1785              	.LBE729:
 358:MakiseGUI/MakiseGUI/ILI9340C/ili9340.c **** }
 1786              		.loc 1 358 0
 1787 080c 4946     		mov	r1, r9
 1788 080e 0DF17009 		add	r9, sp, #112
 1789 0812 2246     		mov	r2, r4
 1790 0814 0A23     		movs	r3, #10
 1791 0816 3046     		mov	r0, r6
 1792 0818 FFF7FEFF 		bl	HAL_SPI_Transmit
 1793              	.LVL204:
 1794 081c 09F8418D 		strb	r8, [r9, #-65]!
 1795              	.LVL205:
 1796              	.LBE728:
 1797              	.LBE727:
 1798              	.LBB731:
 1799              	.LBB732:
 1800              	.LBB733:
 1801              	.LBB734:
   9:MakiseGUI/MakiseGUI/ILI9340C/ili9340.c **** 
ARM GAS  /tmp/ccugowHg.s 			page 41


 1802              		.loc 1 9 0
 1803 0820 2246     		mov	r2, r4
 1804 0822 3946     		mov	r1, r7
 1805 0824 2846     		mov	r0, r5
 1806 0826 FFF7FEFF 		bl	HAL_GPIO_WritePin
 1807              	.LVL206:
 1808 082a 0DF17008 		add	r8, sp, #112
 1809              	.LBE734:
 1810              	.LBE733:
 358:MakiseGUI/MakiseGUI/ILI9340C/ili9340.c **** }
 1811              		.loc 1 358 0
 1812 082e 4946     		mov	r1, r9
 1813 0830 2246     		mov	r2, r4
 1814 0832 3046     		mov	r0, r6
 1815 0834 0A23     		movs	r3, #10
 1816 0836 FFF7FEFF 		bl	HAL_SPI_Transmit
 1817              	.LVL207:
 1818 083a 1423     		movs	r3, #20
 1819 083c 08F8423D 		strb	r3, [r8, #-66]!
 1820              	.LVL208:
 1821              	.LBE732:
 1822              	.LBE731:
 1823              	.LBB735:
 1824              	.LBB736:
 1825              	.LBB737:
 1826              	.LBB738:
   9:MakiseGUI/MakiseGUI/ILI9340C/ili9340.c **** 
 1827              		.loc 1 9 0
 1828 0840 2246     		mov	r2, r4
 1829 0842 3946     		mov	r1, r7
 1830 0844 2846     		mov	r0, r5
 1831 0846 FFF7FEFF 		bl	HAL_GPIO_WritePin
 1832              	.LVL209:
 1833              	.LBE738:
 1834              	.LBE737:
 358:MakiseGUI/MakiseGUI/ILI9340C/ili9340.c **** }
 1835              		.loc 1 358 0
 1836 084a 4146     		mov	r1, r8
 1837 084c 2246     		mov	r2, r4
 1838 084e 0DF17008 		add	r8, sp, #112
 1839 0852 3046     		mov	r0, r6
 1840 0854 0A23     		movs	r3, #10
 1841 0856 FFF7FEFF 		bl	HAL_SPI_Transmit
 1842              	.LVL210:
 1843 085a 4FF00303 		mov	r3, #3
 1844 085e 08F8433D 		strb	r3, [r8, #-67]!
 1845              	.LVL211:
 1846              	.LBE736:
 1847              	.LBE735:
 1848              	.LBB739:
 1849              	.LBB740:
 1850              	.LBB741:
 1851              	.LBB742:
   9:MakiseGUI/MakiseGUI/ILI9340C/ili9340.c **** 
 1852              		.loc 1 9 0
 1853 0862 3946     		mov	r1, r7
 1854 0864 2246     		mov	r2, r4
ARM GAS  /tmp/ccugowHg.s 			page 42


 1855 0866 2846     		mov	r0, r5
 1856 0868 FFF7FEFF 		bl	HAL_GPIO_WritePin
 1857              	.LVL212:
 1858 086c 0DF17009 		add	r9, sp, #112
 1859              	.LBE742:
 1860              	.LBE741:
 358:MakiseGUI/MakiseGUI/ILI9340C/ili9340.c **** }
 1861              		.loc 1 358 0
 1862 0870 4146     		mov	r1, r8
 1863 0872 2246     		mov	r2, r4
 1864 0874 3046     		mov	r0, r6
 1865 0876 0A23     		movs	r3, #10
 1866 0878 FFF7FEFF 		bl	HAL_SPI_Transmit
 1867              	.LVL213:
 1868 087c 4FF01103 		mov	r3, #17
 1869 0880 09F8443D 		strb	r3, [r9, #-68]!
 1870              	.LVL214:
 1871              	.LBE740:
 1872              	.LBE739:
 1873              	.LBB743:
 1874              	.LBB744:
 1875              	.LBB745:
 1876              	.LBB746:
   9:MakiseGUI/MakiseGUI/ILI9340C/ili9340.c **** 
 1877              		.loc 1 9 0
 1878 0884 3946     		mov	r1, r7
 1879 0886 2246     		mov	r2, r4
 1880 0888 2846     		mov	r0, r5
 1881 088a FFF7FEFF 		bl	HAL_GPIO_WritePin
 1882              	.LVL215:
 1883 088e 0DF17008 		add	r8, sp, #112
 1884              	.LBE746:
 1885              	.LBE745:
 358:MakiseGUI/MakiseGUI/ILI9340C/ili9340.c **** }
 1886              		.loc 1 358 0
 1887 0892 4946     		mov	r1, r9
 1888 0894 2246     		mov	r2, r4
 1889 0896 3046     		mov	r0, r6
 1890 0898 0A23     		movs	r3, #10
 1891 089a FFF7FEFF 		bl	HAL_SPI_Transmit
 1892              	.LVL216:
 1893 089e 4FF00703 		mov	r3, #7
 1894 08a2 08F8453D 		strb	r3, [r8, #-69]!
 1895              	.LVL217:
 1896              	.LBE744:
 1897              	.LBE743:
 1898              	.LBB747:
 1899              	.LBB748:
 1900              	.LBB749:
 1901              	.LBB750:
   9:MakiseGUI/MakiseGUI/ILI9340C/ili9340.c **** 
 1902              		.loc 1 9 0
 1903 08a6 3946     		mov	r1, r7
 1904 08a8 2246     		mov	r2, r4
 1905 08aa 2846     		mov	r0, r5
 1906 08ac FFF7FEFF 		bl	HAL_GPIO_WritePin
 1907              	.LVL218:
ARM GAS  /tmp/ccugowHg.s 			page 43


 1908              	.LBE750:
 1909              	.LBE749:
 358:MakiseGUI/MakiseGUI/ILI9340C/ili9340.c **** }
 1910              		.loc 1 358 0
 1911 08b0 4146     		mov	r1, r8
 1912 08b2 2246     		mov	r2, r4
 1913 08b4 0DF17008 		add	r8, sp, #112
 1914 08b8 3046     		mov	r0, r6
 1915 08ba 0A23     		movs	r3, #10
 1916 08bc FFF7FEFF 		bl	HAL_SPI_Transmit
 1917              	.LVL219:
 1918 08c0 4FF03103 		mov	r3, #49
 1919 08c4 08F8463D 		strb	r3, [r8, #-70]!
 1920              	.LVL220:
 1921              	.LBE748:
 1922              	.LBE747:
 1923              	.LBB751:
 1924              	.LBB752:
 1925              	.LBB753:
 1926              	.LBB754:
   9:MakiseGUI/MakiseGUI/ILI9340C/ili9340.c **** 
 1927              		.loc 1 9 0
 1928 08c8 3946     		mov	r1, r7
 1929 08ca 2246     		mov	r2, r4
 1930 08cc 2846     		mov	r0, r5
 1931 08ce FFF7FEFF 		bl	HAL_GPIO_WritePin
 1932              	.LVL221:
 1933              	.LBE754:
 1934              	.LBE753:
 358:MakiseGUI/MakiseGUI/ILI9340C/ili9340.c **** }
 1935              		.loc 1 358 0
 1936 08d2 4146     		mov	r1, r8
 1937 08d4 2246     		mov	r2, r4
 1938 08d6 0DF17008 		add	r8, sp, #112
 1939 08da 3046     		mov	r0, r6
 1940 08dc 0A23     		movs	r3, #10
 1941 08de FFF7FEFF 		bl	HAL_SPI_Transmit
 1942              	.LVL222:
 1943 08e2 6FF03E03 		mvn	r3, #62
 1944 08e6 08F8473D 		strb	r3, [r8, #-71]!
 1945              	.LVL223:
 1946              	.LBE752:
 1947              	.LBE751:
 1948              	.LBB755:
 1949              	.LBB756:
 1950              	.LBB757:
 1951              	.LBB758:
   9:MakiseGUI/MakiseGUI/ILI9340C/ili9340.c **** 
 1952              		.loc 1 9 0
 1953 08ea 2246     		mov	r2, r4
 1954 08ec 3946     		mov	r1, r7
 1955 08ee 2846     		mov	r0, r5
 1956 08f0 FFF7FEFF 		bl	HAL_GPIO_WritePin
 1957              	.LVL224:
 1958              	.LBE758:
 1959              	.LBE757:
 358:MakiseGUI/MakiseGUI/ILI9340C/ili9340.c **** }
ARM GAS  /tmp/ccugowHg.s 			page 44


 1960              		.loc 1 358 0
 1961 08f4 4146     		mov	r1, r8
 1962 08f6 2246     		mov	r2, r4
 1963 08f8 0DF17008 		add	r8, sp, #112
 1964 08fc 3046     		mov	r0, r6
 1965 08fe 0A23     		movs	r3, #10
 1966 0900 FFF7FEFF 		bl	HAL_SPI_Transmit
 1967              	.LVL225:
 1968 0904 4FF04803 		mov	r3, #72
 1969 0908 08F8483D 		strb	r3, [r8, #-72]!
 1970              	.LVL226:
 1971              	.LBE756:
 1972              	.LBE755:
 1973              	.LBB759:
 1974              	.LBB760:
 1975              	.LBB761:
 1976              	.LBB762:
   9:MakiseGUI/MakiseGUI/ILI9340C/ili9340.c **** 
 1977              		.loc 1 9 0
 1978 090c 2246     		mov	r2, r4
 1979 090e 3946     		mov	r1, r7
 1980 0910 2846     		mov	r0, r5
 1981 0912 FFF7FEFF 		bl	HAL_GPIO_WritePin
 1982              	.LVL227:
 1983              	.LBE762:
 1984              	.LBE761:
 358:MakiseGUI/MakiseGUI/ILI9340C/ili9340.c **** }
 1985              		.loc 1 358 0
 1986 0916 4146     		mov	r1, r8
 1987 0918 2246     		mov	r2, r4
 1988 091a 0DF17008 		add	r8, sp, #112
 1989 091e 3046     		mov	r0, r6
 1990 0920 0A23     		movs	r3, #10
 1991 0922 FFF7FEFF 		bl	HAL_SPI_Transmit
 1992              	.LVL228:
 1993 0926 4FF00803 		mov	r3, #8
 1994 092a 08F8493D 		strb	r3, [r8, #-73]!
 1995              	.LVL229:
 1996              	.LBE760:
 1997              	.LBE759:
 1998              	.LBB763:
 1999              	.LBB764:
 2000              	.LBB765:
 2001              	.LBB766:
   9:MakiseGUI/MakiseGUI/ILI9340C/ili9340.c **** 
 2002              		.loc 1 9 0
 2003 092e 2246     		mov	r2, r4
 2004 0930 3946     		mov	r1, r7
 2005 0932 2846     		mov	r0, r5
 2006 0934 FFF7FEFF 		bl	HAL_GPIO_WritePin
 2007              	.LVL230:
 2008              	.LBE766:
 2009              	.LBE765:
 358:MakiseGUI/MakiseGUI/ILI9340C/ili9340.c **** }
 2010              		.loc 1 358 0
 2011 0938 4146     		mov	r1, r8
 2012 093a 2246     		mov	r2, r4
ARM GAS  /tmp/ccugowHg.s 			page 45


 2013 093c 0DF17008 		add	r8, sp, #112
 2014 0940 3046     		mov	r0, r6
 2015 0942 0A23     		movs	r3, #10
 2016 0944 FFF7FEFF 		bl	HAL_SPI_Transmit
 2017              	.LVL231:
 2018 0948 4FF00F03 		mov	r3, #15
 2019 094c 08F84A3D 		strb	r3, [r8, #-74]!
 2020              	.LVL232:
 2021              	.LBE764:
 2022              	.LBE763:
 2023              	.LBB767:
 2024              	.LBB768:
 2025              	.LBB769:
 2026              	.LBB770:
   9:MakiseGUI/MakiseGUI/ILI9340C/ili9340.c **** 
 2027              		.loc 1 9 0
 2028 0950 2246     		mov	r2, r4
 2029 0952 3946     		mov	r1, r7
 2030 0954 2846     		mov	r0, r5
 2031 0956 FFF7FEFF 		bl	HAL_GPIO_WritePin
 2032              	.LVL233:
 2033              	.LBE770:
 2034              	.LBE769:
 358:MakiseGUI/MakiseGUI/ILI9340C/ili9340.c **** }
 2035              		.loc 1 358 0
 2036 095a 4146     		mov	r1, r8
 2037 095c 2246     		mov	r2, r4
 2038 095e 0DF17008 		add	r8, sp, #112
 2039 0962 3046     		mov	r0, r6
 2040 0964 0A23     		movs	r3, #10
 2041 0966 FFF7FEFF 		bl	HAL_SPI_Transmit
 2042              	.LVL234:
 2043 096a 4FF00C03 		mov	r3, #12
 2044 096e 08F84B3D 		strb	r3, [r8, #-75]!
 2045              	.LVL235:
 2046              	.LBE768:
 2047              	.LBE767:
 2048              	.LBB771:
 2049              	.LBB772:
 2050              	.LBB773:
 2051              	.LBB774:
   9:MakiseGUI/MakiseGUI/ILI9340C/ili9340.c **** 
 2052              		.loc 1 9 0
 2053 0972 2246     		mov	r2, r4
 2054 0974 3946     		mov	r1, r7
 2055 0976 2846     		mov	r0, r5
 2056 0978 FFF7FEFF 		bl	HAL_GPIO_WritePin
 2057              	.LVL236:
 2058              	.LBE774:
 2059              	.LBE773:
 358:MakiseGUI/MakiseGUI/ILI9340C/ili9340.c **** }
 2060              		.loc 1 358 0
 2061 097c 4146     		mov	r1, r8
 2062 097e 2246     		mov	r2, r4
 2063 0980 0DF17008 		add	r8, sp, #112
 2064 0984 3046     		mov	r0, r6
 2065 0986 0A23     		movs	r3, #10
ARM GAS  /tmp/ccugowHg.s 			page 46


 2066 0988 FFF7FEFF 		bl	HAL_SPI_Transmit
 2067              	.LVL237:
 2068 098c 4FF03103 		mov	r3, #49
 2069 0990 08F84C3D 		strb	r3, [r8, #-76]!
 2070              	.LVL238:
 2071              	.LBE772:
 2072              	.LBE771:
 2073              	.LBB775:
 2074              	.LBB776:
 2075              	.LBB777:
 2076              	.LBB778:
   9:MakiseGUI/MakiseGUI/ILI9340C/ili9340.c **** 
 2077              		.loc 1 9 0
 2078 0994 2246     		mov	r2, r4
 2079 0996 3946     		mov	r1, r7
 2080 0998 2846     		mov	r0, r5
 2081 099a FFF7FEFF 		bl	HAL_GPIO_WritePin
 2082              	.LVL239:
 2083 099e 0DF1700A 		add	r10, sp, #112
 2084              	.LBE778:
 2085              	.LBE777:
 358:MakiseGUI/MakiseGUI/ILI9340C/ili9340.c **** }
 2086              		.loc 1 358 0
 2087 09a2 4146     		mov	r1, r8
 2088 09a4 2246     		mov	r2, r4
 2089 09a6 3046     		mov	r0, r6
 2090 09a8 0A23     		movs	r3, #10
 2091 09aa FFF7FEFF 		bl	HAL_SPI_Transmit
 2092              	.LVL240:
 2093 09ae 4FF03603 		mov	r3, #54
 2094 09b2 0AF84D3D 		strb	r3, [r10, #-77]!
 2095              	.LVL241:
 2096              	.LBE776:
 2097              	.LBE775:
 2098              	.LBB779:
 2099              	.LBB780:
 2100              	.LBB781:
 2101              	.LBB782:
   9:MakiseGUI/MakiseGUI/ILI9340C/ili9340.c **** 
 2102              		.loc 1 9 0
 2103 09b6 2246     		mov	r2, r4
 2104 09b8 1123     		movs	r3, #17
 2105 09ba 3946     		mov	r1, r7
 2106 09bc 2846     		mov	r0, r5
 2107 09be 0193     		str	r3, [sp, #4]
 2108 09c0 FFF7FEFF 		bl	HAL_GPIO_WritePin
 2109              	.LVL242:
 2110              	.LBE782:
 2111              	.LBE781:
 358:MakiseGUI/MakiseGUI/ILI9340C/ili9340.c **** }
 2112              		.loc 1 358 0
 2113 09c4 5146     		mov	r1, r10
 2114 09c6 2246     		mov	r2, r4
 2115 09c8 0DF1700A 		add	r10, sp, #112
 2116 09cc 0A23     		movs	r3, #10
 2117 09ce 3046     		mov	r0, r6
 2118 09d0 FFF7FEFF 		bl	HAL_SPI_Transmit
ARM GAS  /tmp/ccugowHg.s 			page 47


 2119              	.LVL243:
 2120 09d4 4FF00F01 		mov	r1, #15
 2121 09d8 0AF84E1D 		strb	r1, [r10, #-78]!
 2122              	.LVL244:
 2123              	.LBE780:
 2124              	.LBE779:
 2125              	.LBB783:
 2126              	.LBB784:
 2127              	.LBB785:
 2128              	.LBB786:
   9:MakiseGUI/MakiseGUI/ILI9340C/ili9340.c **** 
 2129              		.loc 1 9 0
 2130 09dc 2246     		mov	r2, r4
 2131 09de 3946     		mov	r1, r7
 2132 09e0 2846     		mov	r0, r5
 2133 09e2 FFF7FEFF 		bl	HAL_GPIO_WritePin
 2134              	.LVL245:
 2135 09e6 0DF17008 		add	r8, sp, #112
 2136              	.LBE786:
 2137              	.LBE785:
 358:MakiseGUI/MakiseGUI/ILI9340C/ili9340.c **** }
 2138              		.loc 1 358 0
 2139 09ea 5146     		mov	r1, r10
 2140 09ec 2246     		mov	r2, r4
 2141 09ee 3046     		mov	r0, r6
 2142 09f0 0A23     		movs	r3, #10
 2143 09f2 FFF7FEFF 		bl	HAL_SPI_Transmit
 2144              	.LVL246:
 2145 09f6 2A23     		movs	r3, #42
 2146 09f8 08F84F3D 		strb	r3, [r8, #-79]!
 2147              	.LVL247:
 2148 09fc 0DF1700A 		add	r10, sp, #112
 2149              	.LBE784:
 2150              	.LBE783:
 2151              	.LBB787:
 2152              	.LBB788:
 2153              	.LBB789:
 2154              	.LBB790:
   9:MakiseGUI/MakiseGUI/ILI9340C/ili9340.c **** 
 2155              		.loc 1 9 0
 2156 0a00 5A46     		mov	r2, fp
 2157 0a02 3946     		mov	r1, r7
 2158 0a04 2846     		mov	r0, r5
 2159 0a06 FFF7FEFF 		bl	HAL_GPIO_WritePin
 2160              	.LVL248:
 2161              	.LBE790:
 2162              	.LBE789:
 2163              		.loc 1 365 0
 2164 0a0a 4146     		mov	r1, r8
 2165 0a0c 2246     		mov	r2, r4
 2166 0a0e 0A23     		movs	r3, #10
 2167 0a10 3046     		mov	r0, r6
 2168 0a12 FFF7FEFF 		bl	HAL_SPI_Transmit
 2169              	.LVL249:
 2170 0a16 0AF850BD 		strb	fp, [r10, #-80]!
 2171              	.LVL250:
 2172              	.LBE788:
ARM GAS  /tmp/ccugowHg.s 			page 48


 2173              	.LBE787:
 2174              	.LBB791:
 2175              	.LBB792:
 2176              	.LBB793:
 2177              	.LBB794:
   9:MakiseGUI/MakiseGUI/ILI9340C/ili9340.c **** 
 2178              		.loc 1 9 0
 2179 0a1a 2246     		mov	r2, r4
 2180 0a1c 3946     		mov	r1, r7
 2181 0a1e 2846     		mov	r0, r5
 2182 0a20 FFF7FEFF 		bl	HAL_GPIO_WritePin
 2183              	.LVL251:
 2184              	.LBE794:
 2185              	.LBE793:
 358:MakiseGUI/MakiseGUI/ILI9340C/ili9340.c **** }
 2186              		.loc 1 358 0
 2187 0a24 5146     		mov	r1, r10
 2188 0a26 0DF1700A 		add	r10, sp, #112
 2189 0a2a 2246     		mov	r2, r4
 2190 0a2c 0A23     		movs	r3, #10
 2191 0a2e 3046     		mov	r0, r6
 2192 0a30 FFF7FEFF 		bl	HAL_SPI_Transmit
 2193              	.LVL252:
 2194 0a34 0AF851BD 		strb	fp, [r10, #-81]!
 2195              	.LVL253:
 2196 0a38 0DF17008 		add	r8, sp, #112
 2197              	.LBE792:
 2198              	.LBE791:
 2199              	.LBB795:
 2200              	.LBB796:
 2201              	.LBB797:
 2202              	.LBB798:
   9:MakiseGUI/MakiseGUI/ILI9340C/ili9340.c **** 
 2203              		.loc 1 9 0
 2204 0a3c 2246     		mov	r2, r4
 2205 0a3e 3946     		mov	r1, r7
 2206 0a40 2846     		mov	r0, r5
 2207 0a42 FFF7FEFF 		bl	HAL_GPIO_WritePin
 2208              	.LVL254:
 2209              	.LBE798:
 2210              	.LBE797:
 358:MakiseGUI/MakiseGUI/ILI9340C/ili9340.c **** }
 2211              		.loc 1 358 0
 2212 0a46 5146     		mov	r1, r10
 2213 0a48 2246     		mov	r2, r4
 2214 0a4a 0A23     		movs	r3, #10
 2215 0a4c 3046     		mov	r0, r6
 2216 0a4e FFF7FEFF 		bl	HAL_SPI_Transmit
 2217              	.LVL255:
 2218 0a52 08F852BD 		strb	fp, [r8, #-82]!
 2219              	.LVL256:
 2220              	.LBE796:
 2221              	.LBE795:
 2222              	.LBB799:
 2223              	.LBB800:
 2224              	.LBB801:
 2225              	.LBB802:
ARM GAS  /tmp/ccugowHg.s 			page 49


   9:MakiseGUI/MakiseGUI/ILI9340C/ili9340.c **** 
 2226              		.loc 1 9 0
 2227 0a56 2246     		mov	r2, r4
 2228 0a58 3946     		mov	r1, r7
 2229 0a5a 2846     		mov	r0, r5
 2230 0a5c FFF7FEFF 		bl	HAL_GPIO_WritePin
 2231              	.LVL257:
 2232 0a60 0DF1700A 		add	r10, sp, #112
 2233              	.LBE802:
 2234              	.LBE801:
 358:MakiseGUI/MakiseGUI/ILI9340C/ili9340.c **** }
 2235              		.loc 1 358 0
 2236 0a64 4146     		mov	r1, r8
 2237 0a66 2246     		mov	r2, r4
 2238 0a68 3046     		mov	r0, r6
 2239 0a6a 0A23     		movs	r3, #10
 2240 0a6c FFF7FEFF 		bl	HAL_SPI_Transmit
 2241              	.LVL258:
 2242 0a70 EF23     		movs	r3, #239
 2243 0a72 0AF8533D 		strb	r3, [r10, #-83]!
 2244              	.LVL259:
 2245              	.LBE800:
 2246              	.LBE799:
 2247              	.LBB803:
 2248              	.LBB804:
 2249              	.LBB805:
 2250              	.LBB806:
   9:MakiseGUI/MakiseGUI/ILI9340C/ili9340.c **** 
 2251              		.loc 1 9 0
 2252 0a76 3946     		mov	r1, r7
 2253 0a78 2246     		mov	r2, r4
 2254 0a7a 2846     		mov	r0, r5
 2255 0a7c FFF7FEFF 		bl	HAL_GPIO_WritePin
 2256              	.LVL260:
 2257 0a80 1CAF     		add	r7, sp, #112
 2258              	.LBE806:
 2259              	.LBE805:
 358:MakiseGUI/MakiseGUI/ILI9340C/ili9340.c **** }
 2260              		.loc 1 358 0
 2261 0a82 5146     		mov	r1, r10
 2262 0a84 2246     		mov	r2, r4
 2263 0a86 3046     		mov	r0, r6
 2264 0a88 0A23     		movs	r3, #10
 2265 0a8a FFF7FEFF 		bl	HAL_SPI_Transmit
 2266              	.LVL261:
 2267 0a8e 2B23     		movs	r3, #43
 2268 0a90 07F8543D 		strb	r3, [r7, #-84]!
 2269              	.LVL262:
 2270              	.LBE804:
 2271              	.LBE803:
 2272              	.LBB807:
 2273              	.LBB808:
 2274              	.LBB809:
 2275              	.LBB810:
   9:MakiseGUI/MakiseGUI/ILI9340C/ili9340.c **** 
 2276              		.loc 1 9 0
 2277 0a94 5A46     		mov	r2, fp
ARM GAS  /tmp/ccugowHg.s 			page 50


 2278 0a96 2846     		mov	r0, r5
 2279 0a98 1021     		movs	r1, #16
 2280 0a9a FFF7FEFF 		bl	HAL_GPIO_WritePin
 2281              	.LVL263:
 2282              	.LBE810:
 2283              	.LBE809:
 2284              		.loc 1 365 0
 2285 0a9e 2246     		mov	r2, r4
 2286 0aa0 1CAC     		add	r4, sp, #112
 2287 0aa2 3946     		mov	r1, r7
 2288 0aa4 0A23     		movs	r3, #10
 2289 0aa6 3046     		mov	r0, r6
 2290 0aa8 FFF7FEFF 		bl	HAL_SPI_Transmit
 2291              	.LVL264:
 2292 0aac 04F855BD 		strb	fp, [r4, #-85]!
 2293              	.LVL265:
 2294 0ab0 1CAF     		add	r7, sp, #112
 2295              	.LBE808:
 2296              	.LBE807:
 2297              	.LBB811:
 2298              	.LBB812:
 2299              	.LBB813:
 2300              	.LBB814:
   9:MakiseGUI/MakiseGUI/ILI9340C/ili9340.c **** 
 2301              		.loc 1 9 0
 2302 0ab2 2846     		mov	r0, r5
 2303 0ab4 0122     		movs	r2, #1
 2304 0ab6 1021     		movs	r1, #16
 2305 0ab8 FFF7FEFF 		bl	HAL_GPIO_WritePin
 2306              	.LVL266:
 2307              	.LBE814:
 2308              	.LBE813:
 358:MakiseGUI/MakiseGUI/ILI9340C/ili9340.c **** }
 2309              		.loc 1 358 0
 2310 0abc 2146     		mov	r1, r4
 2311 0abe 0A23     		movs	r3, #10
 2312 0ac0 3046     		mov	r0, r6
 2313 0ac2 0122     		movs	r2, #1
 2314 0ac4 FFF7FEFF 		bl	HAL_SPI_Transmit
 2315              	.LVL267:
 2316 0ac8 07F856BD 		strb	fp, [r7, #-86]!
 2317              	.LVL268:
 2318 0acc 0124     		movs	r4, #1
 2319 0ace DA46     		mov	r10, fp
 2320              	.LBE812:
 2321              	.LBE811:
 2322              	.LBB815:
 2323              	.LBB816:
 2324              	.LBB817:
 2325              	.LBB818:
   9:MakiseGUI/MakiseGUI/ILI9340C/ili9340.c **** 
 2326              		.loc 1 9 0
 2327 0ad0 2846     		mov	r0, r5
 2328 0ad2 0DF1700B 		add	fp, sp, #112
 2329 0ad6 0122     		movs	r2, #1
 2330 0ad8 1021     		movs	r1, #16
 2331 0ada FFF7FEFF 		bl	HAL_GPIO_WritePin
ARM GAS  /tmp/ccugowHg.s 			page 51


 2332              	.LVL269:
 2333              	.LBE818:
 2334              	.LBE817:
 358:MakiseGUI/MakiseGUI/ILI9340C/ili9340.c **** }
 2335              		.loc 1 358 0
 2336 0ade 3946     		mov	r1, r7
 2337 0ae0 0A23     		movs	r3, #10
 2338 0ae2 2246     		mov	r2, r4
 2339 0ae4 3046     		mov	r0, r6
 2340 0ae6 FFF7FEFF 		bl	HAL_SPI_Transmit
 2341              	.LVL270:
 2342 0aea 0BF8574D 		strb	r4, [fp, #-87]!
 2343              	.LVL271:
 2344              	.LBE816:
 2345              	.LBE815:
 2346              	.LBB819:
 2347              	.LBB820:
 2348              	.LBB821:
 2349              	.LBB822:
   9:MakiseGUI/MakiseGUI/ILI9340C/ili9340.c **** 
 2350              		.loc 1 9 0
 2351 0aee 2846     		mov	r0, r5
 2352 0af0 2246     		mov	r2, r4
 2353 0af2 1021     		movs	r1, #16
 2354 0af4 FFF7FEFF 		bl	HAL_GPIO_WritePin
 2355              	.LVL272:
 2356 0af8 1CAF     		add	r7, sp, #112
 2357              	.LBE822:
 2358              	.LBE821:
 358:MakiseGUI/MakiseGUI/ILI9340C/ili9340.c **** }
 2359              		.loc 1 358 0
 2360 0afa 5946     		mov	r1, fp
 2361 0afc 2246     		mov	r2, r4
 2362 0afe 3046     		mov	r0, r6
 2363 0b00 0A23     		movs	r3, #10
 2364 0b02 FFF7FEFF 		bl	HAL_SPI_Transmit
 2365              	.LVL273:
 2366 0b06 3F23     		movs	r3, #63
 2367 0b08 07F8583D 		strb	r3, [r7, #-88]!
 2368              	.LVL274:
 2369              	.LBE820:
 2370              	.LBE819:
 2371              	.LBB823:
 2372              	.LBB824:
 2373              	.LBB825:
 2374              	.LBB826:
   9:MakiseGUI/MakiseGUI/ILI9340C/ili9340.c **** 
 2375              		.loc 1 9 0
 2376 0b0c 2846     		mov	r0, r5
 2377 0b0e 2246     		mov	r2, r4
 2378 0b10 1021     		movs	r1, #16
 2379 0b12 FFF7FEFF 		bl	HAL_GPIO_WritePin
 2380              	.LVL275:
 2381 0b16 0DF1700B 		add	fp, sp, #112
 2382              	.LBE826:
 2383              	.LBE825:
 358:MakiseGUI/MakiseGUI/ILI9340C/ili9340.c **** }
ARM GAS  /tmp/ccugowHg.s 			page 52


 2384              		.loc 1 358 0
 2385 0b1a 3946     		mov	r1, r7
 2386 0b1c 2246     		mov	r2, r4
 2387 0b1e 3046     		mov	r0, r6
 2388 0b20 0A23     		movs	r3, #10
 2389 0b22 FFF7FEFF 		bl	HAL_SPI_Transmit
 2390              	.LVL276:
 2391 0b26 3423     		movs	r3, #52
 2392 0b28 0BF8593D 		strb	r3, [fp, #-89]!
 2393              	.LVL277:
 2394              	.LBE824:
 2395              	.LBE823:
 2396              	.LBB827:
 2397              	.LBB828:
 2398              	.LBB829:
 2399              	.LBB830:
   9:MakiseGUI/MakiseGUI/ILI9340C/ili9340.c **** 
 2400              		.loc 1 9 0
 2401 0b2c 5246     		mov	r2, r10
 2402 0b2e 2846     		mov	r0, r5
 2403 0b30 1021     		movs	r1, #16
 2404 0b32 FFF7FEFF 		bl	HAL_GPIO_WritePin
 2405              	.LVL278:
 2406 0b36 1CAF     		add	r7, sp, #112
 2407              	.LBE830:
 2408              	.LBE829:
 2409              		.loc 1 365 0
 2410 0b38 5946     		mov	r1, fp
 2411 0b3a 2246     		mov	r2, r4
 2412 0b3c 3046     		mov	r0, r6
 2413 0b3e 0A23     		movs	r3, #10
 2414 0b40 FFF7FEFF 		bl	HAL_SPI_Transmit
 2415              	.LVL279:
 2416 0b44 3523     		movs	r3, #53
 2417 0b46 07F85A3D 		strb	r3, [r7, #-90]!
 2418              	.LVL280:
 2419 0b4a 0DF1700B 		add	fp, sp, #112
 2420              	.LBE828:
 2421              	.LBE827:
 2422              	.LBB831:
 2423              	.LBB832:
 2424              	.LBB833:
 2425              	.LBB834:
   9:MakiseGUI/MakiseGUI/ILI9340C/ili9340.c **** 
 2426              		.loc 1 9 0
 2427 0b4e 5246     		mov	r2, r10
 2428 0b50 2846     		mov	r0, r5
 2429 0b52 1021     		movs	r1, #16
 2430 0b54 FFF7FEFF 		bl	HAL_GPIO_WritePin
 2431              	.LVL281:
 2432              	.LBE834:
 2433              	.LBE833:
 2434              		.loc 1 365 0
 2435 0b58 3946     		mov	r1, r7
 2436 0b5a 2246     		mov	r2, r4
 2437 0b5c 0A23     		movs	r3, #10
 2438 0b5e 3046     		mov	r0, r6
ARM GAS  /tmp/ccugowHg.s 			page 53


 2439 0b60 FFF7FEFF 		bl	HAL_SPI_Transmit
 2440              	.LVL282:
 2441 0b64 0BF85B4D 		strb	r4, [fp, #-91]!
 2442              	.LVL283:
 2443              	.LBE832:
 2444              	.LBE831:
 2445              	.LBB835:
 2446              	.LBB836:
 2447              	.LBB837:
 2448              	.LBB838:
   9:MakiseGUI/MakiseGUI/ILI9340C/ili9340.c **** 
 2449              		.loc 1 9 0
 2450 0b68 2846     		mov	r0, r5
 2451 0b6a 2246     		mov	r2, r4
 2452 0b6c 1021     		movs	r1, #16
 2453 0b6e FFF7FEFF 		bl	HAL_GPIO_WritePin
 2454              	.LVL284:
 2455 0b72 1CAF     		add	r7, sp, #112
 2456              	.LBE838:
 2457              	.LBE837:
 358:MakiseGUI/MakiseGUI/ILI9340C/ili9340.c **** }
 2458              		.loc 1 358 0
 2459 0b74 5946     		mov	r1, fp
 2460 0b76 2246     		mov	r2, r4
 2461 0b78 3046     		mov	r0, r6
 2462 0b7a 0A23     		movs	r3, #10
 2463 0b7c FFF7FEFF 		bl	HAL_SPI_Transmit
 2464              	.LVL285:
 2465 0b80 B723     		movs	r3, #183
 2466 0b82 07F85C3D 		strb	r3, [r7, #-92]!
 2467              	.LVL286:
 2468              	.LBE836:
 2469              	.LBE835:
 2470              	.LBB839:
 2471              	.LBB840:
 2472              	.LBB841:
 2473              	.LBB842:
   9:MakiseGUI/MakiseGUI/ILI9340C/ili9340.c **** 
 2474              		.loc 1 9 0
 2475 0b86 5246     		mov	r2, r10
 2476 0b88 2846     		mov	r0, r5
 2477 0b8a 1021     		movs	r1, #16
 2478 0b8c FFF7FEFF 		bl	HAL_GPIO_WritePin
 2479              	.LVL287:
 2480              	.LBE842:
 2481              	.LBE841:
 2482              		.loc 1 365 0
 2483 0b90 3946     		mov	r1, r7
 2484 0b92 1CAF     		add	r7, sp, #112
 2485 0b94 2246     		mov	r2, r4
 2486 0b96 0A23     		movs	r3, #10
 2487 0b98 4FF00709 		mov	r9, #7
 2488 0b9c 3046     		mov	r0, r6
 2489 0b9e FFF7FEFF 		bl	HAL_SPI_Transmit
 2490              	.LVL288:
 2491 0ba2 07F85D9D 		strb	r9, [r7, #-93]!
 2492              	.LVL289:
ARM GAS  /tmp/ccugowHg.s 			page 54


 2493              	.LBE840:
 2494              	.LBE839:
 2495              	.LBB843:
 2496              	.LBB844:
 2497              	.LBB845:
 2498              	.LBB846:
   9:MakiseGUI/MakiseGUI/ILI9340C/ili9340.c **** 
 2499              		.loc 1 9 0
 2500 0ba6 2846     		mov	r0, r5
 2501 0ba8 2246     		mov	r2, r4
 2502 0baa 1021     		movs	r1, #16
 2503 0bac FFF7FEFF 		bl	HAL_GPIO_WritePin
 2504              	.LVL290:
 2505 0bb0 0DF1700B 		add	fp, sp, #112
 2506              	.LBE846:
 2507              	.LBE845:
 358:MakiseGUI/MakiseGUI/ILI9340C/ili9340.c **** }
 2508              		.loc 1 358 0
 2509 0bb4 3946     		mov	r1, r7
 2510 0bb6 2246     		mov	r2, r4
 2511 0bb8 3046     		mov	r0, r6
 2512 0bba 0A23     		movs	r3, #10
 2513 0bbc FFF7FEFF 		bl	HAL_SPI_Transmit
 2514              	.LVL291:
 2515 0bc0 B623     		movs	r3, #182
 2516 0bc2 0BF85E3D 		strb	r3, [fp, #-94]!
 2517              	.LVL292:
 2518 0bc6 0A27     		movs	r7, #10
 2519 0bc8 0DF17009 		add	r9, sp, #112
 2520              	.LBE844:
 2521              	.LBE843:
 2522              	.LBB847:
 2523              	.LBB848:
 2524              	.LBB849:
 2525              	.LBB850:
   9:MakiseGUI/MakiseGUI/ILI9340C/ili9340.c **** 
 2526              		.loc 1 9 0
 2527 0bcc 5246     		mov	r2, r10
 2528 0bce 2846     		mov	r0, r5
 2529 0bd0 1021     		movs	r1, #16
 2530 0bd2 FFF7FEFF 		bl	HAL_GPIO_WritePin
 2531              	.LVL293:
 2532              	.LBE850:
 2533              	.LBE849:
 2534              		.loc 1 365 0
 2535 0bd6 3B46     		mov	r3, r7
 2536 0bd8 5946     		mov	r1, fp
 2537 0bda 2246     		mov	r2, r4
 2538 0bdc 3046     		mov	r0, r6
 2539 0bde FFF7FEFF 		bl	HAL_SPI_Transmit
 2540              	.LVL294:
 2541 0be2 09F85F7D 		strb	r7, [r9, #-95]!
 2542              	.LVL295:
 2543              	.LBE848:
 2544              	.LBE847:
 2545              	.LBB851:
 2546              	.LBB852:
ARM GAS  /tmp/ccugowHg.s 			page 55


 2547              	.LBB853:
 2548              	.LBB854:
   9:MakiseGUI/MakiseGUI/ILI9340C/ili9340.c **** 
 2549              		.loc 1 9 0
 2550 0be6 2846     		mov	r0, r5
 2551 0be8 2246     		mov	r2, r4
 2552 0bea 1021     		movs	r1, #16
 2553 0bec FFF7FEFF 		bl	HAL_GPIO_WritePin
 2554              	.LVL296:
 2555              	.LBE854:
 2556              	.LBE853:
 358:MakiseGUI/MakiseGUI/ILI9340C/ili9340.c **** }
 2557              		.loc 1 358 0
 2558 0bf0 3B46     		mov	r3, r7
 2559 0bf2 2246     		mov	r2, r4
 2560 0bf4 4946     		mov	r1, r9
 2561 0bf6 3046     		mov	r0, r6
 2562 0bf8 0DF17009 		add	r9, sp, #112
 2563 0bfc FFF7FEFF 		bl	HAL_SPI_Transmit
 2564              	.LVL297:
 2565 0c00 8223     		movs	r3, #130
 2566 0c02 09F8603D 		strb	r3, [r9, #-96]!
 2567              	.LVL298:
 2568              	.LBE852:
 2569              	.LBE851:
 2570              	.LBB855:
 2571              	.LBB856:
 2572              	.LBB857:
 2573              	.LBB858:
   9:MakiseGUI/MakiseGUI/ILI9340C/ili9340.c **** 
 2574              		.loc 1 9 0
 2575 0c06 2846     		mov	r0, r5
 2576 0c08 2246     		mov	r2, r4
 2577 0c0a 1021     		movs	r1, #16
 2578 0c0c FFF7FEFF 		bl	HAL_GPIO_WritePin
 2579              	.LVL299:
 2580              	.LBE858:
 2581              	.LBE857:
 358:MakiseGUI/MakiseGUI/ILI9340C/ili9340.c **** }
 2582              		.loc 1 358 0
 2583 0c10 3B46     		mov	r3, r7
 2584 0c12 2246     		mov	r2, r4
 2585 0c14 4946     		mov	r1, r9
 2586 0c16 3046     		mov	r0, r6
 2587 0c18 0DF17009 		add	r9, sp, #112
 2588 0c1c FFF7FEFF 		bl	HAL_SPI_Transmit
 2589              	.LVL300:
 2590 0c20 2723     		movs	r3, #39
 2591 0c22 09F8613D 		strb	r3, [r9, #-97]!
 2592              	.LVL301:
 2593              	.LBE856:
 2594              	.LBE855:
 2595              	.LBB859:
 2596              	.LBB860:
 2597              	.LBB861:
 2598              	.LBB862:
   9:MakiseGUI/MakiseGUI/ILI9340C/ili9340.c **** 
ARM GAS  /tmp/ccugowHg.s 			page 56


 2599              		.loc 1 9 0
 2600 0c26 2846     		mov	r0, r5
 2601 0c28 2246     		mov	r2, r4
 2602 0c2a 1021     		movs	r1, #16
 2603 0c2c FFF7FEFF 		bl	HAL_GPIO_WritePin
 2604              	.LVL302:
 2605              	.LBE862:
 2606              	.LBE861:
 358:MakiseGUI/MakiseGUI/ILI9340C/ili9340.c **** }
 2607              		.loc 1 358 0
 2608 0c30 4946     		mov	r1, r9
 2609 0c32 0DF17009 		add	r9, sp, #112
 2610 0c36 3B46     		mov	r3, r7
 2611 0c38 2246     		mov	r2, r4
 2612 0c3a 3046     		mov	r0, r6
 2613 0c3c FFF7FEFF 		bl	HAL_SPI_Transmit
 2614              	.LVL303:
 2615 0c40 09F862AD 		strb	r10, [r9, #-98]!
 2616              	.LVL304:
 2617              	.LBE860:
 2618              	.LBE859:
 2619              	.LBB863:
 2620              	.LBB864:
 2621              	.LBB865:
 2622              	.LBB866:
   9:MakiseGUI/MakiseGUI/ILI9340C/ili9340.c **** 
 2623              		.loc 1 9 0
 2624 0c44 2846     		mov	r0, r5
 2625 0c46 2246     		mov	r2, r4
 2626 0c48 1021     		movs	r1, #16
 2627 0c4a FFF7FEFF 		bl	HAL_GPIO_WritePin
 2628              	.LVL305:
 2629              	.LBE866:
 2630              	.LBE865:
 358:MakiseGUI/MakiseGUI/ILI9340C/ili9340.c **** }
 2631              		.loc 1 358 0
 2632 0c4e 3B46     		mov	r3, r7
 2633 0c50 2246     		mov	r2, r4
 2634 0c52 4946     		mov	r1, r9
 2635 0c54 3046     		mov	r0, r6
 2636 0c56 0DF17009 		add	r9, sp, #112
 2637 0c5a FFF7FEFF 		bl	HAL_SPI_Transmit
 2638              	.LVL306:
 2639 0c5e 9DF80430 		ldrb	r3, [sp, #4]	@ zero_extendqisi2
 2640 0c62 09F8633D 		strb	r3, [r9, #-99]!
 2641              	.LVL307:
 2642              	.LBE864:
 2643              	.LBE863:
 2644              	.LBB867:
 2645              	.LBB868:
 2646              	.LBB869:
 2647              	.LBB870:
   9:MakiseGUI/MakiseGUI/ILI9340C/ili9340.c **** 
 2648              		.loc 1 9 0
 2649 0c66 5246     		mov	r2, r10
 2650 0c68 2846     		mov	r0, r5
 2651 0c6a 1021     		movs	r1, #16
ARM GAS  /tmp/ccugowHg.s 			page 57


 2652 0c6c FFF7FEFF 		bl	HAL_GPIO_WritePin
 2653              	.LVL308:
 2654              	.LBE870:
 2655              	.LBE869:
 2656              		.loc 1 365 0
 2657 0c70 3B46     		mov	r3, r7
 2658 0c72 2246     		mov	r2, r4
 2659 0c74 4946     		mov	r1, r9
 2660 0c76 3046     		mov	r0, r6
 2661 0c78 FFF7FEFF 		bl	HAL_SPI_Transmit
 2662              	.LVL309:
 2663 0c7c 0DF17008 		add	r8, sp, #112
 2664              	.LBE868:
 2665              	.LBE867:
 2666              	.LBB871:
 2667              	.LBB872:
   6:MakiseGUI/MakiseGUI/ILI9340C/ili9340.c **** extern inline void _ili9340_rst(uint8_t st){HAL_GPIO_WritePin(ILI9340_RST, st ? GPIO_PIN_SET : GPIO
 2668              		.loc 1 6 0
 2669 0c80 6420     		movs	r0, #100
 2670 0c82 FFF7FEFF 		bl	HAL_Delay
 2671              	.LVL310:
 2672 0c86 2923     		movs	r3, #41
 2673 0c88 08F8643D 		strb	r3, [r8, #-100]!
 2674              	.LVL311:
 2675              	.LBE872:
 2676              	.LBE871:
 2677              	.LBB873:
 2678              	.LBB874:
 2679              	.LBB875:
 2680              	.LBB876:
   9:MakiseGUI/MakiseGUI/ILI9340C/ili9340.c **** 
 2681              		.loc 1 9 0
 2682 0c8c 2846     		mov	r0, r5
 2683 0c8e 5246     		mov	r2, r10
 2684 0c90 1021     		movs	r1, #16
 2685 0c92 FFF7FEFF 		bl	HAL_GPIO_WritePin
 2686              	.LVL312:
 2687              	.LBE876:
 2688              	.LBE875:
 2689              		.loc 1 365 0
 2690 0c96 3B46     		mov	r3, r7
 2691 0c98 2246     		mov	r2, r4
 2692 0c9a 4146     		mov	r1, r8
 2693 0c9c 3046     		mov	r0, r6
 2694 0c9e FFF7FEFF 		bl	HAL_SPI_Transmit
 2695              	.LVL313:
 2696              	.LBE874:
 2697              	.LBE873:
 2698              	.LBB877:
 2699              	.LBB878:
   6:MakiseGUI/MakiseGUI/ILI9340C/ili9340.c **** extern inline void _ili9340_rst(uint8_t st){HAL_GPIO_WritePin(ILI9340_RST, st ? GPIO_PIN_SET : GPIO
 2700              		.loc 1 6 0
 2701 0ca2 6420     		movs	r0, #100
 2702 0ca4 FFF7FEFF 		bl	HAL_Delay
 2703              	.LVL314:
 2704              	.LBE878:
 2705              	.LBE877:
ARM GAS  /tmp/ccugowHg.s 			page 58


 168:MakiseGUI/MakiseGUI/ILI9340C/ili9340.c **** uint8_t _ili9340_addr_kek[2];
 2706              		.loc 1 168 0
 2707 0ca8 5046     		mov	r0, r10
 2708 0caa 1DB0     		add	sp, sp, #116
 2709              	.LCFI2:
 2710              		.cfi_def_cfa_offset 36
 2711              		@ sp needed
 2712 0cac BDE8F08F 		pop	{r4, r5, r6, r7, r8, r9, r10, fp, pc}
 2713              		.cfi_endproc
 2714              	.LFE131:
 2716              		.section	.text._ili9340_delay,"ax",%progbits
 2717              		.align	1
 2718              		.p2align 2,,3
 2719              		.global	_ili9340_delay
 2720              		.syntax unified
 2721              		.thumb
 2722              		.thumb_func
 2723              		.fpu fpv4-sp-d16
 2725              	_ili9340_delay:
 2726              	.LFB126:
   6:MakiseGUI/MakiseGUI/ILI9340C/ili9340.c **** extern inline void _ili9340_rst(uint8_t st){HAL_GPIO_WritePin(ILI9340_RST, st ? GPIO_PIN_SET : GPIO
 2727              		.loc 1 6 0
 2728              		.cfi_startproc
 2729              		@ args = 0, pretend = 0, frame = 0
 2730              		@ frame_needed = 0, uses_anonymous_args = 0
 2731              		@ link register save eliminated.
 2732              	.LVL315:
   6:MakiseGUI/MakiseGUI/ILI9340C/ili9340.c **** extern inline void _ili9340_rst(uint8_t st){HAL_GPIO_WritePin(ILI9340_RST, st ? GPIO_PIN_SET : GPIO
 2733              		.loc 1 6 0
 2734 0000 FFF7FEBF 		b	HAL_Delay
 2735              	.LVL316:
 2736              		.cfi_endproc
 2737              	.LFE126:
 2739              		.section	.text._ili9340_rst,"ax",%progbits
 2740              		.align	1
 2741              		.p2align 2,,3
 2742              		.global	_ili9340_rst
 2743              		.syntax unified
 2744              		.thumb
 2745              		.thumb_func
 2746              		.fpu fpv4-sp-d16
 2748              	_ili9340_rst:
 2749              	.LFB127:
   7:MakiseGUI/MakiseGUI/ILI9340C/ili9340.c **** extern inline void _ili9340_cs(uint8_t st){HAL_GPIO_WritePin(ILI9340_CS, st ? GPIO_PIN_SET : GPIO_P
 2750              		.loc 1 7 0
 2751              		.cfi_startproc
 2752              		@ args = 0, pretend = 0, frame = 0
 2753              		@ frame_needed = 0, uses_anonymous_args = 0
 2754              		@ link register save eliminated.
 2755              	.LVL317:
   7:MakiseGUI/MakiseGUI/ILI9340C/ili9340.c **** extern inline void _ili9340_cs(uint8_t st){HAL_GPIO_WritePin(ILI9340_CS, st ? GPIO_PIN_SET : GPIO_P
 2756              		.loc 1 7 0
 2757 0000 021C     		adds	r2, r0, #0
 2758 0002 18BF     		it	ne
 2759 0004 0122     		movne	r2, #1
 2760 0006 2021     		movs	r1, #32
 2761 0008 0148     		ldr	r0, .L13
ARM GAS  /tmp/ccugowHg.s 			page 59


 2762              	.LVL318:
 2763 000a FFF7FEBF 		b	HAL_GPIO_WritePin
 2764              	.LVL319:
 2765              	.L14:
 2766 000e 00BF     		.align	2
 2767              	.L13:
 2768 0010 00080240 		.word	1073874944
 2769              		.cfi_endproc
 2770              	.LFE127:
 2772              		.section	.text._ili9340_cs,"ax",%progbits
 2773              		.align	1
 2774              		.p2align 2,,3
 2775              		.global	_ili9340_cs
 2776              		.syntax unified
 2777              		.thumb
 2778              		.thumb_func
 2779              		.fpu fpv4-sp-d16
 2781              	_ili9340_cs:
 2782              	.LFB128:
   8:MakiseGUI/MakiseGUI/ILI9340C/ili9340.c **** extern inline void _ili9340_dc(uint8_t st){HAL_GPIO_WritePin(ILI9340_DC, st ? GPIO_PIN_SET : GPIO_P
 2783              		.loc 1 8 0
 2784              		.cfi_startproc
 2785              		@ args = 0, pretend = 0, frame = 0
 2786              		@ frame_needed = 0, uses_anonymous_args = 0
 2787              		@ link register save eliminated.
 2788              	.LVL320:
   8:MakiseGUI/MakiseGUI/ILI9340C/ili9340.c **** extern inline void _ili9340_dc(uint8_t st){HAL_GPIO_WritePin(ILI9340_DC, st ? GPIO_PIN_SET : GPIO_P
 2789              		.loc 1 8 0
 2790 0000 021C     		adds	r2, r0, #0
 2791 0002 18BF     		it	ne
 2792 0004 0122     		movne	r2, #1
 2793 0006 0121     		movs	r1, #1
 2794 0008 0148     		ldr	r0, .L16
 2795              	.LVL321:
 2796 000a FFF7FEBF 		b	HAL_GPIO_WritePin
 2797              	.LVL322:
 2798              	.L17:
 2799 000e 00BF     		.align	2
 2800              	.L16:
 2801 0010 00040240 		.word	1073873920
 2802              		.cfi_endproc
 2803              	.LFE128:
 2805              		.section	.text._ili9340_dc,"ax",%progbits
 2806              		.align	1
 2807              		.p2align 2,,3
 2808              		.global	_ili9340_dc
 2809              		.syntax unified
 2810              		.thumb
 2811              		.thumb_func
 2812              		.fpu fpv4-sp-d16
 2814              	_ili9340_dc:
 2815              	.LFB129:
   9:MakiseGUI/MakiseGUI/ILI9340C/ili9340.c **** 
 2816              		.loc 1 9 0
 2817              		.cfi_startproc
 2818              		@ args = 0, pretend = 0, frame = 0
 2819              		@ frame_needed = 0, uses_anonymous_args = 0
ARM GAS  /tmp/ccugowHg.s 			page 60


 2820              		@ link register save eliminated.
 2821              	.LVL323:
   9:MakiseGUI/MakiseGUI/ILI9340C/ili9340.c **** 
 2822              		.loc 1 9 0
 2823 0000 021C     		adds	r2, r0, #0
 2824 0002 18BF     		it	ne
 2825 0004 0122     		movne	r2, #1
 2826 0006 1021     		movs	r1, #16
 2827 0008 0148     		ldr	r0, .L19
 2828              	.LVL324:
 2829 000a FFF7FEBF 		b	HAL_GPIO_WritePin
 2830              	.LVL325:
 2831              	.L20:
 2832 000e 00BF     		.align	2
 2833              	.L19:
 2834 0010 00080240 		.word	1073874944
 2835              		.cfi_endproc
 2836              	.LFE129:
 2838              		.section	.text.ili9340_driver,"ax",%progbits
 2839              		.align	1
 2840              		.p2align 2,,3
 2841              		.global	ili9340_driver
 2842              		.syntax unified
 2843              		.thumb
 2844              		.thumb_func
 2845              		.fpu fpv4-sp-d16
 2847              	ili9340_driver:
 2848              	.LFB130:
  14:MakiseGUI/MakiseGUI/ILI9340C/ili9340.c ****     d->lcd_height    = 320;
 2849              		.loc 1 14 0
 2850              		.cfi_startproc
 2851              		@ args = 0, pretend = 0, frame = 0
 2852              		@ frame_needed = 0, uses_anonymous_args = 0
 2853              		@ link register save eliminated.
 2854              	.LVL326:
 2855 0000 F0B4     		push	{r4, r5, r6, r7}
 2856              	.LCFI3:
 2857              		.cfi_def_cfa_offset 16
 2858              		.cfi_offset 4, -16
 2859              		.cfi_offset 5, -12
 2860              		.cfi_offset 6, -8
 2861              		.cfi_offset 7, -4
  20:MakiseGUI/MakiseGUI/ILI9340C/ili9340.c ****     d->size          = MAKISE_BUF_H * MAKISE_BUF_W * 2;
 2862              		.loc 1 20 0
 2863 0002 0021     		movs	r1, #0
  15:MakiseGUI/MakiseGUI/ILI9340C/ili9340.c ****     d->lcd_width     = 240;
 2864              		.loc 1 15 0
 2865 0004 4FF4A074 		mov	r4, #320
  21:MakiseGUI/MakiseGUI/ILI9340C/ili9340.c ****     d->posx          = 0;
 2866              		.loc 1 21 0
 2867 0008 4FF4F052 		mov	r2, #7680
  22:MakiseGUI/MakiseGUI/ILI9340C/ili9340.c ****     d->posy          = 321;
 2868              		.loc 1 22 0
 2869 000c 0B4B     		ldr	r3, .L23
  24:MakiseGUI/MakiseGUI/ILI9340C/ili9340.c ****     d->start         = &ili9340_start;
 2870              		.loc 1 24 0
 2871 000e 0C4F     		ldr	r7, .L23+4
ARM GAS  /tmp/ccugowHg.s 			page 61


  25:MakiseGUI/MakiseGUI/ILI9340C/ili9340.c ****     d->sleep         = &ili9340_sleep;
 2872              		.loc 1 25 0
 2873 0010 0C4E     		ldr	r6, .L23+8
  26:MakiseGUI/MakiseGUI/ILI9340C/ili9340.c ****     d->awake         = &ili9340_awake;
 2874              		.loc 1 26 0
 2875 0012 0D4D     		ldr	r5, .L23+12
  15:MakiseGUI/MakiseGUI/ILI9340C/ili9340.c ****     d->lcd_width     = 240;
 2876              		.loc 1 15 0
 2877 0014 8480     		strh	r4, [r0, #4]	@ movhi
  20:MakiseGUI/MakiseGUI/ILI9340C/ili9340.c ****     d->size          = MAKISE_BUF_H * MAKISE_BUF_W * 2;
 2878              		.loc 1 20 0
 2879 0016 0161     		str	r1, [r0, #16]
  27:MakiseGUI/MakiseGUI/ILI9340C/ili9340.c ****     d->set_backlight = &ili9340_set_backlight;
 2880              		.loc 1 27 0
 2881 0018 0C4C     		ldr	r4, .L23+16
  28:MakiseGUI/MakiseGUI/ILI9340C/ili9340.c **** }
 2882              		.loc 1 28 0
 2883 001a 0D49     		ldr	r1, .L23+20
  21:MakiseGUI/MakiseGUI/ILI9340C/ili9340.c ****     d->posx          = 0;
 2884              		.loc 1 21 0
 2885 001c 4261     		str	r2, [r0, #20]
  22:MakiseGUI/MakiseGUI/ILI9340C/ili9340.c ****     d->posy          = 321;
 2886              		.loc 1 22 0
 2887 001e 8361     		str	r3, [r0, #24]
  16:MakiseGUI/MakiseGUI/ILI9340C/ili9340.c ****     d->buffer_height = MAKISE_BUF_H;
 2888              		.loc 1 16 0
 2889 0020 F022     		movs	r2, #240
  17:MakiseGUI/MakiseGUI/ILI9340C/ili9340.c ****     d->buffer_width  = MAKISE_BUF_W;
 2890              		.loc 1 17 0
 2891 0022 1023     		movs	r3, #16
  24:MakiseGUI/MakiseGUI/ILI9340C/ili9340.c ****     d->start         = &ili9340_start;
 2892              		.loc 1 24 0
 2893 0024 C761     		str	r7, [r0, #28]
  25:MakiseGUI/MakiseGUI/ILI9340C/ili9340.c ****     d->sleep         = &ili9340_sleep;
 2894              		.loc 1 25 0
 2895 0026 0662     		str	r6, [r0, #32]
  26:MakiseGUI/MakiseGUI/ILI9340C/ili9340.c ****     d->awake         = &ili9340_awake;
 2896              		.loc 1 26 0
 2897 0028 4562     		str	r5, [r0, #36]
  27:MakiseGUI/MakiseGUI/ILI9340C/ili9340.c ****     d->set_backlight = &ili9340_set_backlight;
 2898              		.loc 1 27 0
 2899 002a 8462     		str	r4, [r0, #40]
  28:MakiseGUI/MakiseGUI/ILI9340C/ili9340.c **** }
 2900              		.loc 1 28 0
 2901 002c C162     		str	r1, [r0, #44]
  16:MakiseGUI/MakiseGUI/ILI9340C/ili9340.c ****     d->buffer_height = MAKISE_BUF_H;
 2902              		.loc 1 16 0
 2903 002e C280     		strh	r2, [r0, #6]	@ movhi
  18:MakiseGUI/MakiseGUI/ILI9340C/ili9340.c ****     d->pixeldepth    = 16;
 2904              		.loc 1 18 0
 2905 0030 4281     		strh	r2, [r0, #10]	@ movhi
  17:MakiseGUI/MakiseGUI/ILI9340C/ili9340.c ****     d->buffer_width  = MAKISE_BUF_W;
 2906              		.loc 1 17 0
 2907 0032 0381     		strh	r3, [r0, #8]	@ movhi
  19:MakiseGUI/MakiseGUI/ILI9340C/ili9340.c ****     d->buffer        = 0;
 2908              		.loc 1 19 0
 2909 0034 8381     		strh	r3, [r0, #12]	@ movhi
ARM GAS  /tmp/ccugowHg.s 			page 62


  29:MakiseGUI/MakiseGUI/ILI9340C/ili9340.c **** 
 2910              		.loc 1 29 0
 2911 0036 F0BC     		pop	{r4, r5, r6, r7}
 2912              	.LCFI4:
 2913              		.cfi_restore 7
 2914              		.cfi_restore 6
 2915              		.cfi_restore 5
 2916              		.cfi_restore 4
 2917              		.cfi_def_cfa_offset 0
 2918 0038 7047     		bx	lr
 2919              	.L24:
 2920 003a 00BF     		.align	2
 2921              	.L23:
 2922 003c 00004101 		.word	21037056
 2923 0040 00000000 		.word	ili9340_init
 2924 0044 00000000 		.word	ili9340_start
 2925 0048 00000000 		.word	ili9340_sleep
 2926 004c 00000000 		.word	ili9340_awake
 2927 0050 00000000 		.word	ili9340_set_backlight
 2928              		.cfi_endproc
 2929              	.LFE130:
 2931              		.section	.text.setAddrWindow,"ax",%progbits
 2932              		.align	1
 2933              		.p2align 2,,3
 2934              		.global	setAddrWindow
 2935              		.syntax unified
 2936              		.thumb
 2937              		.thumb_func
 2938              		.fpu fpv4-sp-d16
 2940              	setAddrWindow:
 2941              	.LFB132:
 171:MakiseGUI/MakiseGUI/ILI9340C/ili9340.c **** 
 2942              		.loc 1 171 0
 2943              		.cfi_startproc
 2944              		@ args = 0, pretend = 0, frame = 8
 2945              		@ frame_needed = 0, uses_anonymous_args = 0
 2946              	.LVL327:
 2947 0000 2DE9F04F 		push	{r4, r5, r6, r7, r8, r9, r10, fp, lr}
 2948              	.LCFI5:
 2949              		.cfi_def_cfa_offset 36
 2950              		.cfi_offset 4, -36
 2951              		.cfi_offset 5, -32
 2952              		.cfi_offset 6, -28
 2953              		.cfi_offset 7, -24
 2954              		.cfi_offset 8, -20
 2955              		.cfi_offset 9, -16
 2956              		.cfi_offset 10, -12
 2957              		.cfi_offset 11, -8
 2958              		.cfi_offset 14, -4
 2959 0004 83B0     		sub	sp, sp, #12
 2960              	.LCFI6:
 2961              		.cfi_def_cfa_offset 48
 171:MakiseGUI/MakiseGUI/ILI9340C/ili9340.c **** 
 2962              		.loc 1 171 0
 2963 0006 8346     		mov	fp, r0
 2964 0008 8946     		mov	r9, r1
 2965 000a 9246     		mov	r10, r2
ARM GAS  /tmp/ccugowHg.s 			page 63


 2966 000c 02AF     		add	r7, sp, #8
 2967              	.LBB903:
 2968              	.LBB904:
   8:MakiseGUI/MakiseGUI/ILI9340C/ili9340.c **** extern inline void _ili9340_dc(uint8_t st){HAL_GPIO_WritePin(ILI9340_DC, st ? GPIO_PIN_SET : GPIO_P
 2969              		.loc 1 8 0
 2970 000e 0121     		movs	r1, #1
 2971              	.LVL328:
 2972 0010 0022     		movs	r2, #0
 2973              	.LVL329:
 2974 0012 3148     		ldr	r0, .L27
 2975              	.LVL330:
 2976              	.LBE904:
 2977              	.LBE903:
 2978              	.LBB906:
 2979              	.LBB907:
 2980              	.LBB908:
 2981              	.LBB909:
   9:MakiseGUI/MakiseGUI/ILI9340C/ili9340.c **** 
 2982              		.loc 1 9 0
 2983 0014 314E     		ldr	r6, .L27+4
 2984              	.LBE909:
 2985              	.LBE908:
 2986              		.loc 1 365 0
 2987 0016 324D     		ldr	r5, .L27+8
 2988              	.LBE907:
 2989              	.LBE906:
 177:MakiseGUI/MakiseGUI/ILI9340C/ili9340.c ****     _ili9340_addr_kek[1] = x0;
 2990              		.loc 1 177 0
 2991 0018 324C     		ldr	r4, .L27+12
 171:MakiseGUI/MakiseGUI/ILI9340C/ili9340.c **** 
 2992              		.loc 1 171 0
 2993 001a 9846     		mov	r8, r3
 2994              	.LBB913:
 2995              	.LBB905:
   8:MakiseGUI/MakiseGUI/ILI9340C/ili9340.c **** extern inline void _ili9340_dc(uint8_t st){HAL_GPIO_WritePin(ILI9340_DC, st ? GPIO_PIN_SET : GPIO_P
 2996              		.loc 1 8 0
 2997 001c FFF7FEFF 		bl	HAL_GPIO_WritePin
 2998              	.LVL331:
 2999 0020 2A23     		movs	r3, #42
 3000 0022 07F8013D 		strb	r3, [r7, #-1]!
 3001              	.LVL332:
 3002              	.LBE905:
 3003              	.LBE913:
 3004              	.LBB914:
 3005              	.LBB912:
 3006              	.LBB911:
 3007              	.LBB910:
   9:MakiseGUI/MakiseGUI/ILI9340C/ili9340.c **** 
 3008              		.loc 1 9 0
 3009 0026 3046     		mov	r0, r6
 3010 0028 0022     		movs	r2, #0
 3011 002a 1021     		movs	r1, #16
 3012 002c FFF7FEFF 		bl	HAL_GPIO_WritePin
 3013              	.LVL333:
 3014              	.LBE910:
 3015              	.LBE911:
 3016              		.loc 1 365 0
ARM GAS  /tmp/ccugowHg.s 			page 64


 3017 0030 3946     		mov	r1, r7
 3018 0032 0A23     		movs	r3, #10
 3019 0034 2846     		mov	r0, r5
 3020 0036 0122     		movs	r2, #1
 3021 0038 FFF7FEFF 		bl	HAL_SPI_Transmit
 3022              	.LVL334:
 3023              	.LBE912:
 3024              	.LBE914:
 3025              	.LBB915:
 3026              	.LBB916:
   9:MakiseGUI/MakiseGUI/ILI9340C/ili9340.c **** 
 3027              		.loc 1 9 0
 3028 003c 3046     		mov	r0, r6
 3029 003e 0122     		movs	r2, #1
 3030 0040 1021     		movs	r1, #16
 3031 0042 FFF7FEFF 		bl	HAL_GPIO_WritePin
 3032              	.LVL335:
 3033              	.LBE916:
 3034              	.LBE915:
 177:MakiseGUI/MakiseGUI/ILI9340C/ili9340.c ****     _ili9340_addr_kek[1] = x0;
 3035              		.loc 1 177 0
 3036 0046 4FEA1B23 		lsr	r3, fp, #8
 179:MakiseGUI/MakiseGUI/ILI9340C/ili9340.c ****     _ili9340_addr_kek[3] = x1;
 3037              		.loc 1 179 0
 3038 004a 4FEA1A2E 		lsr	lr, r10, #8
 3039 004e 02AF     		add	r7, sp, #8
 181:MakiseGUI/MakiseGUI/ILI9340C/ili9340.c **** 
 3040              		.loc 1 181 0
 3041 0050 2146     		mov	r1, r4
 177:MakiseGUI/MakiseGUI/ILI9340C/ili9340.c ****     _ili9340_addr_kek[1] = x0;
 3042              		.loc 1 177 0
 3043 0052 2370     		strb	r3, [r4]
 181:MakiseGUI/MakiseGUI/ILI9340C/ili9340.c **** 
 3044              		.loc 1 181 0
 3045 0054 2846     		mov	r0, r5
 3046 0056 0A23     		movs	r3, #10
 3047 0058 0422     		movs	r2, #4
 179:MakiseGUI/MakiseGUI/ILI9340C/ili9340.c ****     _ili9340_addr_kek[3] = x1;
 3048              		.loc 1 179 0
 3049 005a 84F802E0 		strb	lr, [r4, #2]
 178:MakiseGUI/MakiseGUI/ILI9340C/ili9340.c ****     _ili9340_addr_kek[2] = x1 >> 8;
 3050              		.loc 1 178 0
 3051 005e 84F801B0 		strb	fp, [r4, #1]
 180:MakiseGUI/MakiseGUI/ILI9340C/ili9340.c ****     HAL_SPI_Transmit(&ILI9340_SPI, (uint8_t*)_ili9340_addr_kek, 4, 10);
 3052              		.loc 1 180 0
 3053 0062 84F803A0 		strb	r10, [r4, #3]
 181:MakiseGUI/MakiseGUI/ILI9340C/ili9340.c **** 
 3054              		.loc 1 181 0
 3055 0066 FFF7FEFF 		bl	HAL_SPI_Transmit
 3056              	.LVL336:
 3057 006a 2B23     		movs	r3, #43
 3058 006c 07F8023D 		strb	r3, [r7, #-2]!
 3059              	.LVL337:
 3060              	.LBB917:
 3061              	.LBB918:
 3062              	.LBB919:
 3063              	.LBB920:
ARM GAS  /tmp/ccugowHg.s 			page 65


   9:MakiseGUI/MakiseGUI/ILI9340C/ili9340.c **** 
 3064              		.loc 1 9 0
 3065 0070 3046     		mov	r0, r6
 3066 0072 0022     		movs	r2, #0
 3067 0074 1021     		movs	r1, #16
 3068 0076 FFF7FEFF 		bl	HAL_GPIO_WritePin
 3069              	.LVL338:
 3070              	.LBE920:
 3071              	.LBE919:
 3072              		.loc 1 365 0
 3073 007a 3946     		mov	r1, r7
 3074 007c 0A23     		movs	r3, #10
 3075 007e 2846     		mov	r0, r5
 3076 0080 0122     		movs	r2, #1
 3077 0082 FFF7FEFF 		bl	HAL_SPI_Transmit
 3078              	.LVL339:
 3079              	.LBE918:
 3080              	.LBE917:
 3081              	.LBB921:
 3082              	.LBB922:
   9:MakiseGUI/MakiseGUI/ILI9340C/ili9340.c **** 
 3083              		.loc 1 9 0
 3084 0086 3046     		mov	r0, r6
 3085 0088 0122     		movs	r2, #1
 3086 008a 1021     		movs	r1, #16
 3087 008c FFF7FEFF 		bl	HAL_GPIO_WritePin
 3088              	.LVL340:
 3089 0090 02AF     		add	r7, sp, #8
 3090              	.LBE922:
 3091              	.LBE921:
 186:MakiseGUI/MakiseGUI/ILI9340C/ili9340.c ****     _ili9340_addr_kek[1] = y0;
 3092              		.loc 1 186 0
 3093 0092 4FEA192C 		lsr	ip, r9, #8
 188:MakiseGUI/MakiseGUI/ILI9340C/ili9340.c ****     _ili9340_addr_kek[3] = y1;
 3094              		.loc 1 188 0
 3095 0096 4FEA182E 		lsr	lr, r8, #8
 190:MakiseGUI/MakiseGUI/ILI9340C/ili9340.c **** 
 3096              		.loc 1 190 0
 3097 009a 2146     		mov	r1, r4
 3098 009c 2846     		mov	r0, r5
 3099 009e 0A23     		movs	r3, #10
 3100 00a0 0422     		movs	r2, #4
 186:MakiseGUI/MakiseGUI/ILI9340C/ili9340.c ****     _ili9340_addr_kek[1] = y0;
 3101              		.loc 1 186 0
 3102 00a2 84F800C0 		strb	ip, [r4]
 188:MakiseGUI/MakiseGUI/ILI9340C/ili9340.c ****     _ili9340_addr_kek[3] = y1;
 3103              		.loc 1 188 0
 3104 00a6 84F802E0 		strb	lr, [r4, #2]
 187:MakiseGUI/MakiseGUI/ILI9340C/ili9340.c ****     _ili9340_addr_kek[2] = y1 >>8;
 3105              		.loc 1 187 0
 3106 00aa 84F80190 		strb	r9, [r4, #1]
 189:MakiseGUI/MakiseGUI/ILI9340C/ili9340.c ****     HAL_SPI_Transmit(&ILI9340_SPI, (uint8_t*)_ili9340_addr_kek, 4, 10);
 3107              		.loc 1 189 0
 3108 00ae 84F80380 		strb	r8, [r4, #3]
 190:MakiseGUI/MakiseGUI/ILI9340C/ili9340.c **** 
 3109              		.loc 1 190 0
 3110 00b2 FFF7FEFF 		bl	HAL_SPI_Transmit
ARM GAS  /tmp/ccugowHg.s 			page 66


 3111              	.LVL341:
 3112 00b6 2C23     		movs	r3, #44
 3113 00b8 07F8033D 		strb	r3, [r7, #-3]!
 3114              	.LVL342:
 3115              	.LBB923:
 3116              	.LBB924:
 3117              	.LBB925:
 3118              	.LBB926:
   9:MakiseGUI/MakiseGUI/ILI9340C/ili9340.c **** 
 3119              		.loc 1 9 0
 3120 00bc 3046     		mov	r0, r6
 3121 00be 0022     		movs	r2, #0
 3122 00c0 1021     		movs	r1, #16
 3123 00c2 FFF7FEFF 		bl	HAL_GPIO_WritePin
 3124              	.LVL343:
 3125              	.LBE926:
 3126              	.LBE925:
 3127              		.loc 1 365 0
 3128 00c6 3946     		mov	r1, r7
 3129 00c8 2846     		mov	r0, r5
 3130 00ca 0A23     		movs	r3, #10
 3131 00cc 0122     		movs	r2, #1
 3132 00ce FFF7FEFF 		bl	HAL_SPI_Transmit
 3133              	.LVL344:
 3134              	.LBE924:
 3135              	.LBE923:
 193:MakiseGUI/MakiseGUI/ILI9340C/ili9340.c **** 
 3136              		.loc 1 193 0
 3137 00d2 03B0     		add	sp, sp, #12
 3138              	.LCFI7:
 3139              		.cfi_def_cfa_offset 36
 3140              		@ sp needed
 3141 00d4 BDE8F08F 		pop	{r4, r5, r6, r7, r8, r9, r10, fp, pc}
 3142              	.L28:
 3143              		.align	2
 3144              	.L27:
 3145 00d8 00040240 		.word	1073873920
 3146 00dc 00080240 		.word	1073874944
 3147 00e0 00000000 		.word	hspi1
 3148 00e4 00000000 		.word	_ili9340_addr_kek
 3149              		.cfi_endproc
 3150              	.LFE132:
 3152              		.section	.text.ili9340_render,"ax",%progbits
 3153              		.align	1
 3154              		.p2align 2,,3
 3155              		.global	ili9340_render
 3156              		.syntax unified
 3157              		.thumb
 3158              		.thumb_func
 3159              		.fpu fpv4-sp-d16
 3161              	ili9340_render:
 3162              	.LFB140:
 309:MakiseGUI/MakiseGUI/ILI9340C/ili9340.c ****     MakiseDriver * d = gui->driver;
 3163              		.loc 1 309 0
 3164              		.cfi_startproc
 3165              		@ args = 0, pretend = 0, frame = 0
 3166              		@ frame_needed = 0, uses_anonymous_args = 0
ARM GAS  /tmp/ccugowHg.s 			page 67


 3167              	.LVL345:
 3168 0000 2DE9F04F 		push	{r4, r5, r6, r7, r8, r9, r10, fp, lr}
 3169              	.LCFI8:
 3170              		.cfi_def_cfa_offset 36
 3171              		.cfi_offset 4, -36
 3172              		.cfi_offset 5, -32
 3173              		.cfi_offset 6, -28
 3174              		.cfi_offset 7, -24
 3175              		.cfi_offset 8, -20
 3176              		.cfi_offset 9, -16
 3177              		.cfi_offset 10, -12
 3178              		.cfi_offset 11, -8
 3179              		.cfi_offset 14, -4
 316:MakiseGUI/MakiseGUI/ILI9340C/ili9340.c ****     {
 3180              		.loc 1 316 0
 3181 0004 2D4B     		ldr	r3, .L46
 310:MakiseGUI/MakiseGUI/ILI9340C/ili9340.c ****     uint16_t c;
 3182              		.loc 1 310 0
 3183 0006 4768     		ldr	r7, [r0, #4]
 3184              	.LVL346:
 316:MakiseGUI/MakiseGUI/ILI9340C/ili9340.c ****     {
 3185              		.loc 1 316 0
 3186 0008 1E78     		ldrb	r6, [r3]	@ zero_extendqisi2
 313:MakiseGUI/MakiseGUI/ILI9340C/ili9340.c **** 	cu, bu = 0, m;
 3187              		.loc 1 313 0
 3188 000a B7F81A90 		ldrh	r9, [r7, #26]
 3189              	.LVL347:
 316:MakiseGUI/MakiseGUI/ILI9340C/ili9340.c ****     {
 3190              		.loc 1 316 0
 3191 000e 002E     		cmp	r6, #0
 3192 0010 3CD1     		bne	.L30
 318:MakiseGUI/MakiseGUI/ILI9340C/ili9340.c **** 	d->posy += d->buffer_height;
 3193              		.loc 1 318 0
 3194 0012 B7F80880 		ldrh	r8, [r7, #8]
 320:MakiseGUI/MakiseGUI/ILI9340C/ili9340.c ****     }
 3195              		.loc 1 320 0
 3196 0016 0122     		movs	r2, #1
 318:MakiseGUI/MakiseGUI/ILI9340C/ili9340.c **** 	d->posy += d->buffer_height;
 3197              		.loc 1 318 0
 3198 0018 C844     		add	r8, r8, r9
 3199              	.LVL348:
 319:MakiseGUI/MakiseGUI/ILI9340C/ili9340.c **** 	ili_f = 1;
 3200              		.loc 1 319 0
 3201 001a A7F81A80 		strh	r8, [r7, #26]	@ movhi
 320:MakiseGUI/MakiseGUI/ILI9340C/ili9340.c ****     }
 3202              		.loc 1 320 0
 3203 001e 1A70     		strb	r2, [r3]
 3204              	.LVL349:
 3205              	.L31:
 335:MakiseGUI/MakiseGUI/ILI9340C/ili9340.c ****     for (; y < m; y++) {	
 3206              		.loc 1 335 0
 3207 0020 0568     		ldr	r5, [r0]
 3208 0022 EB88     		ldrh	r3, [r5, #6]
 3209 0024 2989     		ldrh	r1, [r5, #8]
 3210 0026 01FB03F1 		mul	r1, r1, r3
 3211 002a 09FB01F1 		mul	r1, r9, r1
 336:MakiseGUI/MakiseGUI/ILI9340C/ili9340.c **** 	for (x = 0; x < d->buffer_width; x+=1)
ARM GAS  /tmp/ccugowHg.s 			page 68


 3212              		.loc 1 336 0
 3213 002e C145     		cmp	r9, r8
 335:MakiseGUI/MakiseGUI/ILI9340C/ili9340.c ****     for (; y < m; y++) {	
 3214              		.loc 1 335 0
 3215 0030 4FEA5111 		lsr	r1, r1, #5
 3216              	.LVL350:
 336:MakiseGUI/MakiseGUI/ILI9340C/ili9340.c **** 	for (x = 0; x < d->buffer_width; x+=1)
 3217              		.loc 1 336 0
 3218 0034 28D2     		bcs	.L29
 3219 0036 7B89     		ldrh	r3, [r7, #10]
 3220 0038 DFF884C0 		ldr	ip, .L46+4
 3221 003c 0024     		movs	r4, #0
 3222              	.LVL351:
 3223              	.L34:
 337:MakiseGUI/MakiseGUI/ILI9340C/ili9340.c **** 	{
 3224              		.loc 1 337 0 discriminator 1
 3225 003e FBB1     		cbz	r3, .L36
 3226 0040 3B69     		ldr	r3, [r7, #16]
 3227 0042 D5F80CE0 		ldr	lr, [r5, #12]
 3228 0046 03EB460A 		add	r10, r3, r6, lsl #1
 337:MakiseGUI/MakiseGUI/ILI9340C/ili9340.c **** 	{
 3229              		.loc 1 337 0 is_stmt 0
 3230 004a 3046     		mov	r0, r6
 3231              	.LVL352:
 3232              	.L35:
 339:MakiseGUI/MakiseGUI/ILI9340C/ili9340.c **** 	    bu += gui->buffer->pixeldepth;
 3233              		.loc 1 339 0 is_stmt 1
 3234 004c 5EF82130 		ldr	r3, [lr, r1, lsl #2]
 3235 0050 95F80AB0 		ldrb	fp, [r5, #10]	@ zero_extendqisi2
 340:MakiseGUI/MakiseGUI/ILI9340C/ili9340.c **** 	    if(bu>=32)
 3236              		.loc 1 340 0
 3237 0054 2A89     		ldrh	r2, [r5, #8]
 339:MakiseGUI/MakiseGUI/ILI9340C/ili9340.c **** 	    bu += gui->buffer->pixeldepth;
 3238              		.loc 1 339 0
 3239 0056 E340     		lsrs	r3, r3, r4
 3240 0058 03EA0B03 		and	r3, r3, fp
 340:MakiseGUI/MakiseGUI/ILI9340C/ili9340.c **** 	    if(bu>=32)
 3241              		.loc 1 340 0
 3242 005c 1444     		add	r4, r4, r2
 339:MakiseGUI/MakiseGUI/ILI9340C/ili9340.c **** 	    bu += gui->buffer->pixeldepth;
 3243              		.loc 1 339 0
 3244 005e 3CF81330 		ldrh	r3, [ip, r3, lsl #1]
 347:MakiseGUI/MakiseGUI/ILI9340C/ili9340.c **** 	    i+=1;
 3245              		.loc 1 347 0
 3246 0062 2AF8023B 		strh	r3, [r10], #2	@ movhi
 348:MakiseGUI/MakiseGUI/ILI9340C/ili9340.c **** 	}
 3247              		.loc 1 348 0
 3248 0066 0130     		adds	r0, r0, #1
 337:MakiseGUI/MakiseGUI/ILI9340C/ili9340.c **** 	{
 3249              		.loc 1 337 0
 3250 0068 7B89     		ldrh	r3, [r7, #10]
 3251 006a 1F2C     		cmp	r4, #31
 344:MakiseGUI/MakiseGUI/ILI9340C/ili9340.c **** 	    }
 3252              		.loc 1 344 0
 3253 006c 01F10102 		add	r2, r1, #1
 337:MakiseGUI/MakiseGUI/ILI9340C/ili9340.c **** 	{
 3254              		.loc 1 337 0
ARM GAS  /tmp/ccugowHg.s 			page 69


 3255 0070 A0EB060B 		sub	fp, r0, r6
 3256 0074 84BF     		itt	hi
 3257 0076 0024     		movhi	r4, #0
 3258              	.LVL353:
 3259 0078 1146     		movhi	r1, r2
 3260              	.LVL354:
 3261 007a 5B45     		cmp	r3, fp
 3262 007c E6D8     		bhi	.L35
 348:MakiseGUI/MakiseGUI/ILI9340C/ili9340.c **** 	}
 3263              		.loc 1 348 0
 3264 007e 0646     		mov	r6, r0
 3265              	.LVL355:
 3266              	.L36:
 336:MakiseGUI/MakiseGUI/ILI9340C/ili9340.c **** 	for (x = 0; x < d->buffer_width; x+=1)
 3267              		.loc 1 336 0
 3268 0080 09F10109 		add	r9, r9, #1
 3269              	.LVL356:
 3270 0084 C845     		cmp	r8, r9
 3271 0086 DAD1     		bne	.L34
 3272              	.LVL357:
 3273              	.L29:
 3274 0088 BDE8F08F 		pop	{r4, r5, r6, r7, r8, r9, r10, fp, pc}
 3275              	.LVL358:
 3276              	.L30:
 322:MakiseGUI/MakiseGUI/ILI9340C/ili9340.c ****     {
 3277              		.loc 1 322 0
 3278 008c 012E     		cmp	r6, #1
 3279 008e 03D0     		beq	.L44
 327:MakiseGUI/MakiseGUI/ILI9340C/ili9340.c ****     {
 3280              		.loc 1 327 0
 3281 0090 022E     		cmp	r6, #2
 3282 0092 07D0     		beq	.L45
 313:MakiseGUI/MakiseGUI/ILI9340C/ili9340.c **** 	cu, bu = 0, m;
 3283              		.loc 1 313 0
 3284 0094 0026     		movs	r6, #0
 3285 0096 C3E7     		b	.L31
 3286              	.L44:
 324:MakiseGUI/MakiseGUI/ILI9340C/ili9340.c **** 	y = d->posy;
 3287              		.loc 1 324 0
 3288 0098 B7F80880 		ldrh	r8, [r7, #8]
 313:MakiseGUI/MakiseGUI/ILI9340C/ili9340.c **** 	cu, bu = 0, m;
 3289              		.loc 1 313 0
 3290 009c 0026     		movs	r6, #0
 324:MakiseGUI/MakiseGUI/ILI9340C/ili9340.c **** 	y = d->posy;
 3291              		.loc 1 324 0
 3292 009e 09EB5808 		add	r8, r9, r8, lsr #1
 3293              	.LVL359:
 3294 00a2 BDE7     		b	.L31
 3295              	.LVL360:
 3296              	.L45:
 329:MakiseGUI/MakiseGUI/ILI9340C/ili9340.c **** 	y = d->posy + (d->buffer_height / 2);
 3297              		.loc 1 329 0
 3298 00a4 3B89     		ldrh	r3, [r7, #8]
 331:MakiseGUI/MakiseGUI/ILI9340C/ili9340.c **** 	d->posy += d->buffer_height;
 3299              		.loc 1 331 0
 3300 00a6 7E69     		ldr	r6, [r7, #20]
 3301 00a8 4A46     		mov	r2, r9
ARM GAS  /tmp/ccugowHg.s 			page 70


 332:MakiseGUI/MakiseGUI/ILI9340C/ili9340.c ****     }
 3302              		.loc 1 332 0
 3303 00aa 1A44     		add	r2, r2, r3
 329:MakiseGUI/MakiseGUI/ILI9340C/ili9340.c **** 	y = d->posy + (d->buffer_height / 2);
 3304              		.loc 1 329 0
 3305 00ac 03EB0908 		add	r8, r3, r9
 3306              	.LVL361:
 332:MakiseGUI/MakiseGUI/ILI9340C/ili9340.c ****     }
 3307              		.loc 1 332 0
 3308 00b0 7A83     		strh	r2, [r7, #26]	@ movhi
 331:MakiseGUI/MakiseGUI/ILI9340C/ili9340.c **** 	d->posy += d->buffer_height;
 3309              		.loc 1 331 0
 3310 00b2 B608     		lsrs	r6, r6, #2
 330:MakiseGUI/MakiseGUI/ILI9340C/ili9340.c **** 	i = d->size / 4;
 3311              		.loc 1 330 0
 3312 00b4 09EB5309 		add	r9, r9, r3, lsr #1
 3313              	.LVL362:
 3314 00b8 B2E7     		b	.L31
 3315              	.L47:
 3316 00ba 00BF     		.align	2
 3317              	.L46:
 3318 00bc 00000000 		.word	.LANCHOR0
 3319 00c0 00000000 		.word	.LANCHOR1
 3320              		.cfi_endproc
 3321              	.LFE140:
 3323              		.section	.text.ili9340_spi_txhalfcplt,"ax",%progbits
 3324              		.align	1
 3325              		.p2align 2,,3
 3326              		.global	ili9340_spi_txhalfcplt
 3327              		.syntax unified
 3328              		.thumb
 3329              		.thumb_func
 3330              		.fpu fpv4-sp-d16
 3332              	ili9340_spi_txhalfcplt:
 3333              	.LFB138:
 291:MakiseGUI/MakiseGUI/ILI9340C/ili9340.c ****     HAL_GPIO_TogglePin(GPIOB, GPIO_PIN_4);
 3334              		.loc 1 291 0
 3335              		.cfi_startproc
 3336              		@ args = 0, pretend = 0, frame = 0
 3337              		@ frame_needed = 0, uses_anonymous_args = 0
 3338              	.LVL363:
 3339 0000 10B5     		push	{r4, lr}
 3340              	.LCFI9:
 3341              		.cfi_def_cfa_offset 8
 3342              		.cfi_offset 4, -8
 3343              		.cfi_offset 14, -4
 291:MakiseGUI/MakiseGUI/ILI9340C/ili9340.c ****     HAL_GPIO_TogglePin(GPIOB, GPIO_PIN_4);
 3344              		.loc 1 291 0
 3345 0002 0446     		mov	r4, r0
 292:MakiseGUI/MakiseGUI/ILI9340C/ili9340.c ****     ili_f = 1;
 3346              		.loc 1 292 0
 3347 0004 1021     		movs	r1, #16
 3348 0006 0948     		ldr	r0, .L51
 3349              	.LVL364:
 3350 0008 FFF7FEFF 		bl	HAL_GPIO_TogglePin
 3351              	.LVL365:
 294:MakiseGUI/MakiseGUI/ILI9340C/ili9340.c **** 	ili9340_render(d->gui);
ARM GAS  /tmp/ccugowHg.s 			page 71


 3352              		.loc 1 294 0
 3353 000c 628B     		ldrh	r2, [r4, #26]
 3354 000e A388     		ldrh	r3, [r4, #4]
 293:MakiseGUI/MakiseGUI/ILI9340C/ili9340.c ****     if(d->posy < d->lcd_height)
 3355              		.loc 1 293 0
 3356 0010 0749     		ldr	r1, .L51+4
 3357 0012 0120     		movs	r0, #1
 294:MakiseGUI/MakiseGUI/ILI9340C/ili9340.c **** 	ili9340_render(d->gui);
 3358              		.loc 1 294 0
 3359 0014 9A42     		cmp	r2, r3
 293:MakiseGUI/MakiseGUI/ILI9340C/ili9340.c ****     if(d->posy < d->lcd_height)
 3360              		.loc 1 293 0
 3361 0016 0870     		strb	r0, [r1]
 294:MakiseGUI/MakiseGUI/ILI9340C/ili9340.c **** 	ili9340_render(d->gui);
 3362              		.loc 1 294 0
 3363 0018 02D2     		bcs	.L49
 295:MakiseGUI/MakiseGUI/ILI9340C/ili9340.c ****     HAL_GPIO_TogglePin(GPIOB, GPIO_PIN_4);
 3364              		.loc 1 295 0
 3365 001a 2068     		ldr	r0, [r4]
 3366 001c FFF7FEFF 		bl	ili9340_render
 3367              	.LVL366:
 3368              	.L49:
 296:MakiseGUI/MakiseGUI/ILI9340C/ili9340.c **** }
 3369              		.loc 1 296 0
 3370 0020 0248     		ldr	r0, .L51
 3371 0022 1021     		movs	r1, #16
 3372 0024 FFF7FEFF 		bl	HAL_GPIO_TogglePin
 3373              	.LVL367:
 297:MakiseGUI/MakiseGUI/ILI9340C/ili9340.c **** uint8_t ili9340_spi_txcplt(MakiseDriver* driver)
 3374              		.loc 1 297 0
 3375 0028 10BD     		pop	{r4, pc}
 3376              	.LVL368:
 3377              	.L52:
 3378 002a 00BF     		.align	2
 3379              	.L51:
 3380 002c 00040240 		.word	1073873920
 3381 0030 00000000 		.word	.LANCHOR0
 3382              		.cfi_endproc
 3383              	.LFE138:
 3385              		.section	.text.strt_tx,"ax",%progbits
 3386              		.align	1
 3387              		.p2align 2,,3
 3388              		.global	strt_tx
 3389              		.syntax unified
 3390              		.thumb
 3391              		.thumb_func
 3392              		.fpu fpv4-sp-d16
 3394              	strt_tx:
 3395              	.LFB133:
 199:MakiseGUI/MakiseGUI/ILI9340C/ili9340.c ****     uint8_t dr = 0;
 3396              		.loc 1 199 0
 3397              		.cfi_startproc
 3398              		@ args = 0, pretend = 0, frame = 16
 3399              		@ frame_needed = 0, uses_anonymous_args = 0
 3400              	.LVL369:
 3401 0000 2DE9F04F 		push	{r4, r5, r6, r7, r8, r9, r10, fp, lr}
 3402              	.LCFI10:
ARM GAS  /tmp/ccugowHg.s 			page 72


 3403              		.cfi_def_cfa_offset 36
 3404              		.cfi_offset 4, -36
 3405              		.cfi_offset 5, -32
 3406              		.cfi_offset 6, -28
 3407              		.cfi_offset 7, -24
 3408              		.cfi_offset 8, -20
 3409              		.cfi_offset 9, -16
 3410              		.cfi_offset 10, -12
 3411              		.cfi_offset 11, -8
 3412              		.cfi_offset 14, -4
 203:MakiseGUI/MakiseGUI/ILI9340C/ili9340.c ****     {
 3413              		.loc 1 203 0
 3414 0004 8388     		ldrh	r3, [r0, #4]
 3415 0006 478B     		ldrh	r7, [r0, #26]
 201:MakiseGUI/MakiseGUI/ILI9340C/ili9340.c ****     
 3416              		.loc 1 201 0
 3417 0008 0268     		ldr	r2, [r0]
 203:MakiseGUI/MakiseGUI/ILI9340C/ili9340.c ****     {
 3418              		.loc 1 203 0
 3419 000a 9F42     		cmp	r7, r3
 199:MakiseGUI/MakiseGUI/ILI9340C/ili9340.c ****     uint8_t dr = 0;
 3420              		.loc 1 199 0
 3421 000c 85B0     		sub	sp, sp, #20
 3422              	.LCFI11:
 3423              		.cfi_def_cfa_offset 56
 199:MakiseGUI/MakiseGUI/ILI9340C/ili9340.c ****     uint8_t dr = 0;
 3424              		.loc 1 199 0
 3425 000e 0446     		mov	r4, r0
 201:MakiseGUI/MakiseGUI/ILI9340C/ili9340.c ****     
 3426              		.loc 1 201 0
 3427 0010 1568     		ldr	r5, [r2]
 3428              	.LVL370:
 203:MakiseGUI/MakiseGUI/ILI9340C/ili9340.c ****     {
 3429              		.loc 1 203 0
 3430 0012 80F0A680 		bcs	.L74
 218:MakiseGUI/MakiseGUI/ILI9340C/ili9340.c ****     {
 3431              		.loc 1 218 0
 3432 0016 002F     		cmp	r7, #0
 3433 0018 40F0C880 		bne	.L75
 200:MakiseGUI/MakiseGUI/ILI9340C/ili9340.c ****     MakiseBuffer *bu = d->gui->buffer;
 3434              		.loc 1 200 0
 3435 001c 0197     		str	r7, [sp, #4]
 3436              	.LVL371:
 3437              	.L58:
 3438 001e 0DF11009 		add	r9, sp, #16
 3439              	.LBB952:
 3440              	.LBB953:
 3441              	.LBB954:
 3442              	.LBB955:
   8:MakiseGUI/MakiseGUI/ILI9340C/ili9340.c **** extern inline void _ili9340_dc(uint8_t st){HAL_GPIO_WritePin(ILI9340_DC, st ? GPIO_PIN_SET : GPIO_P
 3443              		.loc 1 8 0
 3444 0022 7248     		ldr	r0, .L77
 3445              	.LBE955:
 3446              	.LBE954:
 3447              	.LBE953:
 3448              	.LBE952:
 229:MakiseGUI/MakiseGUI/ILI9340C/ili9340.c ****     ili9340_render(d->gui);
ARM GAS  /tmp/ccugowHg.s 			page 73


 3449              		.loc 1 229 0
 3450 0024 B4F806A0 		ldrh	r10, [r4, #6]
 3451 0028 2689     		ldrh	r6, [r4, #8]
 3452              	.LBB987:
 3453              	.LBB982:
 3454              	.LBB957:
 3455              	.LBB958:
 3456              		.loc 1 365 0
 3457 002a DFF8D481 		ldr	r8, .L77+20
 3458              	.LBE958:
 3459              	.LBE957:
 177:MakiseGUI/MakiseGUI/ILI9340C/ili9340.c ****     _ili9340_addr_kek[1] = x0;
 3460              		.loc 1 177 0
 3461 002e 704D     		ldr	r5, .L77+4
 3462              	.LVL372:
 3463              	.LBE982:
 3464              	.LBE987:
 235:MakiseGUI/MakiseGUI/ILI9340C/ili9340.c ****     {
 3465              		.loc 1 235 0
 3466 0030 DFF8D0B1 		ldr	fp, .L77+24
 3467              	.LBB988:
 3468              	.LBB983:
 3469              	.LBB962:
 3470              	.LBB956:
   8:MakiseGUI/MakiseGUI/ILI9340C/ili9340.c **** extern inline void _ili9340_dc(uint8_t st){HAL_GPIO_WritePin(ILI9340_DC, st ? GPIO_PIN_SET : GPIO_P
 3471              		.loc 1 8 0
 3472 0034 0022     		movs	r2, #0
 3473 0036 0121     		movs	r1, #1
 3474 0038 FFF7FEFF 		bl	HAL_GPIO_WritePin
 3475              	.LVL373:
 3476 003c 2A23     		movs	r3, #42
 3477 003e 09F8013D 		strb	r3, [r9, #-1]!
 3478              	.LBE956:
 3479              	.LBE962:
 3480              	.LBB963:
 3481              	.LBB961:
 3482              	.LBB959:
 3483              	.LBB960:
   9:MakiseGUI/MakiseGUI/ILI9340C/ili9340.c **** 
 3484              		.loc 1 9 0
 3485 0042 0022     		movs	r2, #0
 3486 0044 1021     		movs	r1, #16
 3487 0046 6B48     		ldr	r0, .L77+8
 3488 0048 FFF7FEFF 		bl	HAL_GPIO_WritePin
 3489              	.LVL374:
 3490              	.LBE960:
 3491              	.LBE959:
 3492              		.loc 1 365 0
 3493 004c 4946     		mov	r1, r9
 3494 004e 0A23     		movs	r3, #10
 3495 0050 0122     		movs	r2, #1
 3496 0052 4046     		mov	r0, r8
 3497 0054 FFF7FEFF 		bl	HAL_SPI_Transmit
 3498              	.LVL375:
 3499              	.LBE961:
 3500              	.LBE963:
 3501              	.LBB964:
ARM GAS  /tmp/ccugowHg.s 			page 74


 3502              	.LBB965:
   9:MakiseGUI/MakiseGUI/ILI9340C/ili9340.c **** 
 3503              		.loc 1 9 0
 3504 0058 0122     		movs	r2, #1
 3505 005a 1021     		movs	r1, #16
 3506 005c 6548     		ldr	r0, .L77+8
 3507 005e FFF7FEFF 		bl	HAL_GPIO_WritePin
 3508              	.LVL376:
 3509              	.LBE965:
 3510              	.LBE964:
 179:MakiseGUI/MakiseGUI/ILI9340C/ili9340.c ****     _ili9340_addr_kek[3] = x1;
 3511              		.loc 1 179 0
 3512 0062 4FEA1A23 		lsr	r3, r10, #8
 177:MakiseGUI/MakiseGUI/ILI9340C/ili9340.c ****     _ili9340_addr_kek[1] = x0;
 3513              		.loc 1 177 0
 3514 0066 4FF00009 		mov	r9, #0
 181:MakiseGUI/MakiseGUI/ILI9340C/ili9340.c **** 
 3515              		.loc 1 181 0
 3516 006a 2946     		mov	r1, r5
 179:MakiseGUI/MakiseGUI/ILI9340C/ili9340.c ****     _ili9340_addr_kek[3] = x1;
 3517              		.loc 1 179 0
 3518 006c AB70     		strb	r3, [r5, #2]
 180:MakiseGUI/MakiseGUI/ILI9340C/ili9340.c ****     HAL_SPI_Transmit(&ILI9340_SPI, (uint8_t*)_ili9340_addr_kek, 4, 10);
 3519              		.loc 1 180 0
 3520 006e 85F803A0 		strb	r10, [r5, #3]
 181:MakiseGUI/MakiseGUI/ILI9340C/ili9340.c **** 
 3521              		.loc 1 181 0
 3522 0072 0A23     		movs	r3, #10
 3523 0074 0DF1100A 		add	r10, sp, #16
 3524 0078 0422     		movs	r2, #4
 3525 007a 4046     		mov	r0, r8
 177:MakiseGUI/MakiseGUI/ILI9340C/ili9340.c ****     _ili9340_addr_kek[1] = x0;
 3526              		.loc 1 177 0
 3527 007c 85F80090 		strb	r9, [r5]
 178:MakiseGUI/MakiseGUI/ILI9340C/ili9340.c ****     _ili9340_addr_kek[2] = x1 >> 8;
 3528              		.loc 1 178 0
 3529 0080 85F80190 		strb	r9, [r5, #1]
 181:MakiseGUI/MakiseGUI/ILI9340C/ili9340.c **** 
 3530              		.loc 1 181 0
 3531 0084 FFF7FEFF 		bl	HAL_SPI_Transmit
 3532              	.LVL377:
 3533 0088 2B23     		movs	r3, #43
 3534 008a 0AF8023D 		strb	r3, [r10, #-2]!
 3535              	.LBB966:
 3536              	.LBB967:
 3537              	.LBB968:
 3538              	.LBB969:
   9:MakiseGUI/MakiseGUI/ILI9340C/ili9340.c **** 
 3539              		.loc 1 9 0
 3540 008e 4A46     		mov	r2, r9
 3541 0090 1021     		movs	r1, #16
 3542 0092 5848     		ldr	r0, .L77+8
 3543              	.LBE969:
 3544              	.LBE968:
 3545              	.LBE967:
 3546              	.LBE966:
 3547              	.LBE983:
ARM GAS  /tmp/ccugowHg.s 			page 75


 3548              	.LBE988:
 229:MakiseGUI/MakiseGUI/ILI9340C/ili9340.c ****     ili9340_render(d->gui);
 3549              		.loc 1 229 0
 3550 0094 013E     		subs	r6, r6, #1
 3551              	.LBB989:
 3552              	.LBB984:
 3553              	.LBB974:
 3554              	.LBB972:
 3555              	.LBB971:
 3556              	.LBB970:
   9:MakiseGUI/MakiseGUI/ILI9340C/ili9340.c **** 
 3557              		.loc 1 9 0
 3558 0096 FFF7FEFF 		bl	HAL_GPIO_WritePin
 3559              	.LVL378:
 3560              	.LBE970:
 3561              	.LBE971:
 3562              	.LBE972:
 3563              	.LBE974:
 3564              	.LBE984:
 3565              	.LBE989:
 229:MakiseGUI/MakiseGUI/ILI9340C/ili9340.c ****     ili9340_render(d->gui);
 3566              		.loc 1 229 0
 3567 009a 3E44     		add	r6, r6, r7
 3568              	.LBB990:
 3569              	.LBB985:
 3570              	.LBB975:
 3571              	.LBB973:
 3572              		.loc 1 365 0
 3573 009c 5146     		mov	r1, r10
 3574 009e 0A23     		movs	r3, #10
 3575 00a0 0122     		movs	r2, #1
 3576 00a2 4046     		mov	r0, r8
 3577 00a4 FFF7FEFF 		bl	HAL_SPI_Transmit
 3578              	.LVL379:
 3579              	.LBE973:
 3580              	.LBE975:
 3581              	.LBE985:
 3582              	.LBE990:
 229:MakiseGUI/MakiseGUI/ILI9340C/ili9340.c ****     ili9340_render(d->gui);
 3583              		.loc 1 229 0
 3584 00a8 B6B2     		uxth	r6, r6
 3585              	.LVL380:
 3586              	.LBB991:
 3587              	.LBB986:
 3588              	.LBB976:
 3589              	.LBB977:
   9:MakiseGUI/MakiseGUI/ILI9340C/ili9340.c **** 
 3590              		.loc 1 9 0
 3591 00aa 0122     		movs	r2, #1
 3592 00ac 1021     		movs	r1, #16
 3593 00ae 5148     		ldr	r0, .L77+8
 3594 00b0 FFF7FEFF 		bl	HAL_GPIO_WritePin
 3595              	.LVL381:
 3596              	.LBE977:
 3597              	.LBE976:
 188:MakiseGUI/MakiseGUI/ILI9340C/ili9340.c ****     _ili9340_addr_kek[3] = y1;
 3598              		.loc 1 188 0
ARM GAS  /tmp/ccugowHg.s 			page 76


 3599 00b4 330A     		lsrs	r3, r6, #8
 186:MakiseGUI/MakiseGUI/ILI9340C/ili9340.c ****     _ili9340_addr_kek[1] = y0;
 3600              		.loc 1 186 0
 3601 00b6 4FEA172E 		lsr	lr, r7, #8
 3602 00ba 0DF1100A 		add	r10, sp, #16
 190:MakiseGUI/MakiseGUI/ILI9340C/ili9340.c **** 
 3603              		.loc 1 190 0
 3604 00be 2946     		mov	r1, r5
 188:MakiseGUI/MakiseGUI/ILI9340C/ili9340.c ****     _ili9340_addr_kek[3] = y1;
 3605              		.loc 1 188 0
 3606 00c0 AB70     		strb	r3, [r5, #2]
 190:MakiseGUI/MakiseGUI/ILI9340C/ili9340.c **** 
 3607              		.loc 1 190 0
 3608 00c2 0422     		movs	r2, #4
 3609 00c4 0A23     		movs	r3, #10
 3610 00c6 4046     		mov	r0, r8
 186:MakiseGUI/MakiseGUI/ILI9340C/ili9340.c ****     _ili9340_addr_kek[1] = y0;
 3611              		.loc 1 186 0
 3612 00c8 85F800E0 		strb	lr, [r5]
 189:MakiseGUI/MakiseGUI/ILI9340C/ili9340.c ****     HAL_SPI_Transmit(&ILI9340_SPI, (uint8_t*)_ili9340_addr_kek, 4, 10);
 3613              		.loc 1 189 0
 3614 00cc EE70     		strb	r6, [r5, #3]
 187:MakiseGUI/MakiseGUI/ILI9340C/ili9340.c ****     _ili9340_addr_kek[2] = y1 >>8;
 3615              		.loc 1 187 0
 3616 00ce 6F70     		strb	r7, [r5, #1]
 190:MakiseGUI/MakiseGUI/ILI9340C/ili9340.c **** 
 3617              		.loc 1 190 0
 3618 00d0 FFF7FEFF 		bl	HAL_SPI_Transmit
 3619              	.LVL382:
 3620 00d4 2C23     		movs	r3, #44
 3621 00d6 0AF8033D 		strb	r3, [r10, #-3]!
 3622              	.LVL383:
 3623              	.LBB978:
 3624              	.LBB979:
 3625              	.LBB980:
 3626              	.LBB981:
   9:MakiseGUI/MakiseGUI/ILI9340C/ili9340.c **** 
 3627              		.loc 1 9 0
 3628 00da 4A46     		mov	r2, r9
 3629 00dc 1021     		movs	r1, #16
 3630 00de 4548     		ldr	r0, .L77+8
 3631 00e0 FFF7FEFF 		bl	HAL_GPIO_WritePin
 3632              	.LVL384:
 3633              	.LBE981:
 3634              	.LBE980:
 3635              		.loc 1 365 0
 3636 00e4 0A23     		movs	r3, #10
 3637 00e6 5146     		mov	r1, r10
 3638 00e8 0122     		movs	r2, #1
 3639 00ea 4046     		mov	r0, r8
 3640 00ec FFF7FEFF 		bl	HAL_SPI_Transmit
 3641              	.LVL385:
 3642              	.LBE979:
 3643              	.LBE978:
 3644              	.LBE986:
 3645              	.LBE991:
 230:MakiseGUI/MakiseGUI/ILI9340C/ili9340.c **** 
ARM GAS  /tmp/ccugowHg.s 			page 77


 3646              		.loc 1 230 0
 3647 00f0 2068     		ldr	r0, [r4]
 3648 00f2 FFF7FEFF 		bl	ili9340_render
 3649              	.LVL386:
 3650              	.LBB992:
 3651              	.LBB993:
   9:MakiseGUI/MakiseGUI/ILI9340C/ili9340.c **** 
 3652              		.loc 1 9 0
 3653 00f6 0122     		movs	r2, #1
 3654 00f8 1021     		movs	r1, #16
 3655 00fa 3E48     		ldr	r0, .L77+8
 3656 00fc FFF7FEFF 		bl	HAL_GPIO_WritePin
 3657              	.LVL387:
 3658              	.LBE993:
 3659              	.LBE992:
 3660              	.LBB994:
 3661              	.LBB995:
   8:MakiseGUI/MakiseGUI/ILI9340C/ili9340.c **** extern inline void _ili9340_dc(uint8_t st){HAL_GPIO_WritePin(ILI9340_DC, st ? GPIO_PIN_SET : GPIO_P
 3662              		.loc 1 8 0
 3663 0100 4A46     		mov	r2, r9
 3664 0102 0121     		movs	r1, #1
 3665 0104 3948     		ldr	r0, .L77
 3666 0106 FFF7FEFF 		bl	HAL_GPIO_WritePin
 3667              	.LVL388:
 3668              	.LBE995:
 3669              	.LBE994:
 235:MakiseGUI/MakiseGUI/ILI9340C/ili9340.c ****     {
 3670              		.loc 1 235 0
 3671 010a DBF80030 		ldr	r3, [fp]
 3672 010e A3B9     		cbnz	r3, .L60
 237:MakiseGUI/MakiseGUI/ILI9340C/ili9340.c **** 	w = 1;
 3673              		.loc 1 237 0
 3674 0110 4046     		mov	r0, r8
 3675 0112 A28A     		ldrh	r2, [r4, #20]
 3676 0114 2169     		ldr	r1, [r4, #16]
 3677 0116 FFF7FEFF 		bl	HAL_SPI_Transmit_DMA
 3678              	.LVL389:
 238:MakiseGUI/MakiseGUI/ILI9340C/ili9340.c ****     }
 3679              		.loc 1 238 0
 3680 011a 0123     		movs	r3, #1
 3681 011c CBF80030 		str	r3, [fp]
 3682              	.L61:
 251:MakiseGUI/MakiseGUI/ILI9340C/ili9340.c ****     {
 3683              		.loc 1 251 0
 3684 0120 019B     		ldr	r3, [sp, #4]
 3685 0122 3BB1     		cbz	r3, .L53
 253:MakiseGUI/MakiseGUI/ILI9340C/ili9340.c **** 	{
 3686              		.loc 1 253 0
 3687 0124 2068     		ldr	r0, [r4]
 3688 0126 C368     		ldr	r3, [r0, #12]
 3689 0128 0BB1     		cbz	r3, .L64
 255:MakiseGUI/MakiseGUI/ILI9340C/ili9340.c **** 	}
 3690              		.loc 1 255 0
 3691 012a 9847     		blx	r3
 3692              	.LVL390:
 3693 012c 2068     		ldr	r0, [r4]
 3694              	.L64:
ARM GAS  /tmp/ccugowHg.s 			page 78


 257:MakiseGUI/MakiseGUI/ILI9340C/ili9340.c **** 	{
 3695              		.loc 1 257 0
 3696 012e 0369     		ldr	r3, [r0, #16]
 3697 0130 03B1     		cbz	r3, .L53
 259:MakiseGUI/MakiseGUI/ILI9340C/ili9340.c **** 	}
 3698              		.loc 1 259 0
 3699 0132 9847     		blx	r3
 3700              	.LVL391:
 3701              	.L53:
 262:MakiseGUI/MakiseGUI/ILI9340C/ili9340.c **** 
 3702              		.loc 1 262 0
 3703 0134 05B0     		add	sp, sp, #20
 3704              	.LCFI12:
 3705              		.cfi_remember_state
 3706              		.cfi_def_cfa_offset 36
 3707              		@ sp needed
 3708 0136 BDE8F08F 		pop	{r4, r5, r6, r7, r8, r9, r10, fp, pc}
 3709              	.LVL392:
 3710              	.L60:
 3711              	.LCFI13:
 3712              		.cfi_restore_state
 242:MakiseGUI/MakiseGUI/ILI9340C/ili9340.c **** 	  /* Enable the SPI Error Interrupt Bit */
 3713              		.loc 1 242 0
 3714 013a D8F80020 		ldr	r2, [r8]
 3715 013e 6369     		ldr	r3, [r4, #20]
 3716 0140 2169     		ldr	r1, [r4, #16]
 3717 0142 D8F84800 		ldr	r0, [r8, #72]
 3718 0146 0C32     		adds	r2, r2, #12
 3719 0148 FFF7FEFF 		bl	HAL_DMA_Start_IT
 3720              	.LVL393:
 244:MakiseGUI/MakiseGUI/ILI9340C/ili9340.c **** 
 3721              		.loc 1 244 0
 3722 014c D8F80030 		ldr	r3, [r8]
 3723 0150 5A68     		ldr	r2, [r3, #4]
 3724 0152 42F02002 		orr	r2, r2, #32
 3725 0156 5A60     		str	r2, [r3, #4]
 247:MakiseGUI/MakiseGUI/ILI9340C/ili9340.c **** 
 3726              		.loc 1 247 0
 3727 0158 5A68     		ldr	r2, [r3, #4]
 3728 015a 42F00202 		orr	r2, r2, #2
 3729 015e 5A60     		str	r2, [r3, #4]
 3730 0160 DEE7     		b	.L61
 3731              	.LVL394:
 3732              	.L74:
 210:MakiseGUI/MakiseGUI/ILI9340C/ili9340.c **** 	       col, d->lcd_width * d->buffer_height * bu->pixeldepth / 8);
 3733              		.loc 1 210 0
 3734 0162 0189     		ldrh	r1, [r0, #8]
 3735 0164 C788     		ldrh	r7, [r0, #6]
 3736 0166 2A89     		ldrh	r2, [r5, #8]
 209:MakiseGUI/MakiseGUI/ILI9340C/ili9340.c **** 	       d->lcd_width * (d->lcd_height - d->buffer_height) * bu->pixeldepth / 8,
 3737              		.loc 1 209 0
 3738 0168 2348     		ldr	r0, .L77+12
 3739              	.LVL395:
 205:MakiseGUI/MakiseGUI/ILI9340C/ili9340.c **** 	dr = 1;
 3740              		.loc 1 205 0
 3741 016a 244E     		ldr	r6, .L77+16
 210:MakiseGUI/MakiseGUI/ILI9340C/ili9340.c **** 	       col, d->lcd_width * d->buffer_height * bu->pixeldepth / 8);
ARM GAS  /tmp/ccugowHg.s 			page 79


 3742              		.loc 1 210 0
 3743 016c 5B1A     		subs	r3, r3, r1
 3744 016e 07FB03F3 		mul	r3, r7, r3
 3745 0172 02FB03F3 		mul	r3, r2, r3
 211:MakiseGUI/MakiseGUI/ILI9340C/ili9340.c **** 	
 3746              		.loc 1 211 0
 3747 0176 01FB07F1 		mul	r1, r1, r7
 210:MakiseGUI/MakiseGUI/ILI9340C/ili9340.c **** 	       col, d->lcd_width * d->buffer_height * bu->pixeldepth / 8);
 3748              		.loc 1 210 0
 3749 017a 002B     		cmp	r3, #0
 211:MakiseGUI/MakiseGUI/ILI9340C/ili9340.c **** 	
 3750              		.loc 1 211 0
 3751 017c 02FB01F2 		mul	r2, r2, r1
 205:MakiseGUI/MakiseGUI/ILI9340C/ili9340.c **** 	dr = 1;
 3752              		.loc 1 205 0
 3753 0180 4FF00001 		mov	r1, #0
 3754 0184 3170     		strb	r1, [r6]
 3755              	.LVL396:
 207:MakiseGUI/MakiseGUI/ILI9340C/ili9340.c **** 
 3756              		.loc 1 207 0
 3757 0186 6183     		strh	r1, [r4, #26]	@ movhi
 210:MakiseGUI/MakiseGUI/ILI9340C/ili9340.c **** 	       col, d->lcd_width * d->buffer_height * bu->pixeldepth / 8);
 3758              		.loc 1 210 0
 3759 0188 B8BF     		it	lt
 3760 018a 0733     		addlt	r3, r3, #7
 209:MakiseGUI/MakiseGUI/ILI9340C/ili9340.c **** 	       d->lcd_width * (d->lcd_height - d->buffer_height) * bu->pixeldepth / 8,
 3761              		.loc 1 209 0
 3762 018c 0178     		ldrb	r1, [r0]	@ zero_extendqisi2
 3763 018e E868     		ldr	r0, [r5, #12]
 210:MakiseGUI/MakiseGUI/ILI9340C/ili9340.c **** 	       col, d->lcd_width * d->buffer_height * bu->pixeldepth / 8);
 3764              		.loc 1 210 0
 3765 0190 DB10     		asrs	r3, r3, #3
 209:MakiseGUI/MakiseGUI/ILI9340C/ili9340.c **** 	       d->lcd_width * (d->lcd_height - d->buffer_height) * bu->pixeldepth / 8,
 3766              		.loc 1 209 0
 3767 0192 00EB8300 		add	r0, r0, r3, lsl #2
 211:MakiseGUI/MakiseGUI/ILI9340C/ili9340.c **** 	
 3768              		.loc 1 211 0
 3769 0196 D210     		asrs	r2, r2, #3
 209:MakiseGUI/MakiseGUI/ILI9340C/ili9340.c **** 	       d->lcd_width * (d->lcd_height - d->buffer_height) * bu->pixeldepth / 8,
 3770              		.loc 1 209 0
 3771 0198 FFF7FEFF 		bl	memset
 3772              	.LVL397:
 213:MakiseGUI/MakiseGUI/ILI9340C/ili9340.c **** 	{
 3773              		.loc 1 213 0
 3774 019c 2068     		ldr	r0, [r4]
 3775 019e 8368     		ldr	r3, [r0, #8]
 3776 01a0 FBB1     		cbz	r3, .L76
 215:MakiseGUI/MakiseGUI/ILI9340C/ili9340.c **** 	}
 3777              		.loc 1 215 0
 3778 01a2 9847     		blx	r3
 3779              	.LVL398:
 206:MakiseGUI/MakiseGUI/ILI9340C/ili9340.c **** 	d->posy = 0;
 3780              		.loc 1 206 0
 3781 01a4 0123     		movs	r3, #1
 3782 01a6 0193     		str	r3, [sp, #4]
 3783 01a8 678B     		ldrh	r7, [r4, #26]
 3784 01aa 38E7     		b	.L58
ARM GAS  /tmp/ccugowHg.s 			page 80


 3785              	.LVL399:
 3786              	.L75:
 3787              	.LBB996:
 223:MakiseGUI/MakiseGUI/ILI9340C/ili9340.c **** 	       d->lcd_width * bu->pixeldepth / 32,
 3788              		.loc 1 223 0
 3789 01ac 0189     		ldrh	r1, [r0, #8]
 224:MakiseGUI/MakiseGUI/ILI9340C/ili9340.c **** 	       g,
 3790              		.loc 1 224 0
 3791 01ae C388     		ldrh	r3, [r0, #6]
 3792 01b0 2A89     		ldrh	r2, [r5, #8]
 223:MakiseGUI/MakiseGUI/ILI9340C/ili9340.c **** 	       d->lcd_width * bu->pixeldepth / 32,
 3793              		.loc 1 223 0
 3794 01b2 E868     		ldr	r0, [r5, #12]
 3795              	.LVL400:
 3796 01b4 7F1A     		subs	r7, r7, r1
 3797 01b6 03FB07F7 		mul	r7, r3, r7
 224:MakiseGUI/MakiseGUI/ILI9340C/ili9340.c **** 	       g,
 3798              		.loc 1 224 0
 3799 01ba 02FB07F7 		mul	r7, r2, r7
 3800 01be 002F     		cmp	r7, #0
 226:MakiseGUI/MakiseGUI/ILI9340C/ili9340.c ****     }
 3801              		.loc 1 226 0
 3802 01c0 03FB01F3 		mul	r3, r3, r1
 224:MakiseGUI/MakiseGUI/ILI9340C/ili9340.c **** 	       g,
 3803              		.loc 1 224 0
 3804 01c4 B8BF     		it	lt
 3805 01c6 1F37     		addlt	r7, r7, #31
 226:MakiseGUI/MakiseGUI/ILI9340C/ili9340.c ****     }
 3806              		.loc 1 226 0
 3807 01c8 02FB03F2 		mul	r2, r2, r3
 224:MakiseGUI/MakiseGUI/ILI9340C/ili9340.c **** 	       g,
 3808              		.loc 1 224 0
 3809 01cc 7F11     		asrs	r7, r7, #5
 223:MakiseGUI/MakiseGUI/ILI9340C/ili9340.c **** 	       d->lcd_width * bu->pixeldepth / 32,
 3810              		.loc 1 223 0
 3811 01ce 00EB8700 		add	r0, r0, r7, lsl #2
 226:MakiseGUI/MakiseGUI/ILI9340C/ili9340.c ****     }
 3812              		.loc 1 226 0
 3813 01d2 D210     		asrs	r2, r2, #3
 223:MakiseGUI/MakiseGUI/ILI9340C/ili9340.c **** 	       d->lcd_width * bu->pixeldepth / 32,
 3814              		.loc 1 223 0
 3815 01d4 0021     		movs	r1, #0
 3816 01d6 FFF7FEFF 		bl	memset
 3817              	.LVL401:
 3818              	.LBE996:
 200:MakiseGUI/MakiseGUI/ILI9340C/ili9340.c ****     MakiseBuffer *bu = d->gui->buffer;
 3819              		.loc 1 200 0
 3820 01da 0023     		movs	r3, #0
 3821 01dc 0193     		str	r3, [sp, #4]
 3822 01de 678B     		ldrh	r7, [r4, #26]
 3823 01e0 1DE7     		b	.L58
 3824              	.LVL402:
 3825              	.L76:
 206:MakiseGUI/MakiseGUI/ILI9340C/ili9340.c **** 	d->posy = 0;
 3826              		.loc 1 206 0
 3827 01e2 0123     		movs	r3, #1
 3828 01e4 678B     		ldrh	r7, [r4, #26]
ARM GAS  /tmp/ccugowHg.s 			page 81


 3829 01e6 0193     		str	r3, [sp, #4]
 3830 01e8 19E7     		b	.L58
 3831              	.L78:
 3832 01ea 00BF     		.align	2
 3833              	.L77:
 3834 01ec 00040240 		.word	1073873920
 3835 01f0 00000000 		.word	_ili9340_addr_kek
 3836 01f4 00080240 		.word	1073874944
 3837 01f8 00000000 		.word	.LANCHOR2
 3838 01fc 00000000 		.word	.LANCHOR0
 3839 0200 00000000 		.word	hspi1
 3840 0204 00000000 		.word	.LANCHOR3
 3841              		.cfi_endproc
 3842              	.LFE133:
 3844              		.section	.text.ili9340_start,"ax",%progbits
 3845              		.align	1
 3846              		.p2align 2,,3
 3847              		.global	ili9340_start
 3848              		.syntax unified
 3849              		.thumb
 3850              		.thumb_func
 3851              		.fpu fpv4-sp-d16
 3853              	ili9340_start:
 3854              	.LFB134:
 265:MakiseGUI/MakiseGUI/ILI9340C/ili9340.c ****     if(ILI9340_LED_USE_PWM)
 3855              		.loc 1 265 0
 3856              		.cfi_startproc
 3857              		@ args = 0, pretend = 0, frame = 0
 3858              		@ frame_needed = 0, uses_anonymous_args = 0
 3859              	.LVL403:
 3860 0000 38B5     		push	{r3, r4, r5, lr}
 3861              	.LCFI14:
 3862              		.cfi_def_cfa_offset 16
 3863              		.cfi_offset 3, -16
 3864              		.cfi_offset 4, -12
 3865              		.cfi_offset 5, -8
 3866              		.cfi_offset 14, -4
 268:MakiseGUI/MakiseGUI/ILI9340C/ili9340.c **** 	HAL_TIM_PWM_Start(ILI9340_LED_PWM, ILI9340_LED_PWM_CHANNEL);
 3867              		.loc 1 268 0
 3868 0002 084C     		ldr	r4, .L81
 265:MakiseGUI/MakiseGUI/ILI9340C/ili9340.c ****     if(ILI9340_LED_USE_PWM)
 3869              		.loc 1 265 0
 3870 0004 0546     		mov	r5, r0
 268:MakiseGUI/MakiseGUI/ILI9340C/ili9340.c **** 	HAL_TIM_PWM_Start(ILI9340_LED_PWM, ILI9340_LED_PWM_CHANNEL);
 3871              		.loc 1 268 0
 3872 0006 2046     		mov	r0, r4
 3873              	.LVL404:
 3874 0008 FFF7FEFF 		bl	HAL_TIM_Base_Start
 3875              	.LVL405:
 269:MakiseGUI/MakiseGUI/ILI9340C/ili9340.c ****     }
 3876              		.loc 1 269 0
 3877 000c 2046     		mov	r0, r4
 3878 000e 0C21     		movs	r1, #12
 3879 0010 FFF7FEFF 		bl	HAL_TIM_PWM_Start
 3880              	.LVL406:
 3881              	.LBB997:
 3882              	.LBB998:
ARM GAS  /tmp/ccugowHg.s 			page 82


 286:MakiseGUI/MakiseGUI/ILI9340C/ili9340.c ****     else
 3883              		.loc 1 286 0
 3884 0014 2368     		ldr	r3, [r4]
 3885              	.LBE998:
 3886              	.LBE997:
 273:MakiseGUI/MakiseGUI/ILI9340C/ili9340.c **** }
 3887              		.loc 1 273 0
 3888 0016 6868     		ldr	r0, [r5, #4]
 3889              	.LBB1000:
 3890              	.LBB999:
 286:MakiseGUI/MakiseGUI/ILI9340C/ili9340.c ****     else
 3891              		.loc 1 286 0
 3892 0018 1F22     		movs	r2, #31
 3893 001a 1A64     		str	r2, [r3, #64]
 3894              	.LVL407:
 3895              	.LBE999:
 3896              	.LBE1000:
 273:MakiseGUI/MakiseGUI/ILI9340C/ili9340.c **** }
 3897              		.loc 1 273 0
 3898 001c FFF7FEFF 		bl	strt_tx
 3899              	.LVL408:
 274:MakiseGUI/MakiseGUI/ILI9340C/ili9340.c **** uint8_t ili9340_sleep(MakiseGUI* gui)
 3900              		.loc 1 274 0
 3901 0020 38BD     		pop	{r3, r4, r5, pc}
 3902              	.LVL409:
 3903              	.L82:
 3904 0022 00BF     		.align	2
 3905              	.L81:
 3906 0024 00000000 		.word	htim3
 3907              		.cfi_endproc
 3908              	.LFE134:
 3910              		.section	.text.ili9340_spi_txcplt,"ax",%progbits
 3911              		.align	1
 3912              		.p2align 2,,3
 3913              		.global	ili9340_spi_txcplt
 3914              		.syntax unified
 3915              		.thumb
 3916              		.thumb_func
 3917              		.fpu fpv4-sp-d16
 3919              	ili9340_spi_txcplt:
 3920              	.LFB139:
 299:MakiseGUI/MakiseGUI/ILI9340C/ili9340.c ****     ili_f = 2;
 3921              		.loc 1 299 0
 3922              		.cfi_startproc
 3923              		@ args = 0, pretend = 0, frame = 0
 3924              		@ frame_needed = 0, uses_anonymous_args = 0
 3925              	.LVL410:
 3926 0000 38B5     		push	{r3, r4, r5, lr}
 3927              	.LCFI15:
 3928              		.cfi_def_cfa_offset 16
 3929              		.cfi_offset 3, -16
 3930              		.cfi_offset 4, -12
 3931              		.cfi_offset 5, -8
 3932              		.cfi_offset 14, -4
 3933              	.LBB1001:
 3934              	.LBB1002:
   8:MakiseGUI/MakiseGUI/ILI9340C/ili9340.c **** extern inline void _ili9340_dc(uint8_t st){HAL_GPIO_WritePin(ILI9340_DC, st ? GPIO_PIN_SET : GPIO_P
ARM GAS  /tmp/ccugowHg.s 			page 83


 3935              		.loc 1 8 0
 3936 0002 0122     		movs	r2, #1
 3937              	.LBE1002:
 3938              	.LBE1001:
 300:MakiseGUI/MakiseGUI/ILI9340C/ili9340.c ****     _ili9340_cs(1);
 3939              		.loc 1 300 0
 3940 0004 054B     		ldr	r3, .L85
 299:MakiseGUI/MakiseGUI/ILI9340C/ili9340.c ****     ili_f = 2;
 3941              		.loc 1 299 0
 3942 0006 0446     		mov	r4, r0
 300:MakiseGUI/MakiseGUI/ILI9340C/ili9340.c ****     _ili9340_cs(1);
 3943              		.loc 1 300 0
 3944 0008 0225     		movs	r5, #2
 3945              	.LBB1005:
 3946              	.LBB1003:
   8:MakiseGUI/MakiseGUI/ILI9340C/ili9340.c **** extern inline void _ili9340_dc(uint8_t st){HAL_GPIO_WritePin(ILI9340_DC, st ? GPIO_PIN_SET : GPIO_P
 3947              		.loc 1 8 0
 3948 000a 1146     		mov	r1, r2
 3949 000c 0448     		ldr	r0, .L85+4
 3950              	.LVL411:
 3951              	.LBE1003:
 3952              	.LBE1005:
 300:MakiseGUI/MakiseGUI/ILI9340C/ili9340.c ****     _ili9340_cs(1);
 3953              		.loc 1 300 0
 3954 000e 1D70     		strb	r5, [r3]
 3955              	.LVL412:
 3956              	.LBB1006:
 3957              	.LBB1004:
   8:MakiseGUI/MakiseGUI/ILI9340C/ili9340.c **** extern inline void _ili9340_dc(uint8_t st){HAL_GPIO_WritePin(ILI9340_DC, st ? GPIO_PIN_SET : GPIO_P
 3958              		.loc 1 8 0
 3959 0010 FFF7FEFF 		bl	HAL_GPIO_WritePin
 3960              	.LVL413:
 3961              	.LBE1004:
 3962              	.LBE1006:
 302:MakiseGUI/MakiseGUI/ILI9340C/ili9340.c **** }
 3963              		.loc 1 302 0
 3964 0014 2046     		mov	r0, r4
 3965 0016 FFF7FEFF 		bl	strt_tx
 3966              	.LVL414:
 303:MakiseGUI/MakiseGUI/ILI9340C/ili9340.c **** 
 3967              		.loc 1 303 0
 3968 001a 38BD     		pop	{r3, r4, r5, pc}
 3969              	.LVL415:
 3970              	.L86:
 3971              		.align	2
 3972              	.L85:
 3973 001c 00000000 		.word	.LANCHOR0
 3974 0020 00040240 		.word	1073873920
 3975              		.cfi_endproc
 3976              	.LFE139:
 3978              		.section	.text.ili9340_write_data,"ax",%progbits
 3979              		.align	1
 3980              		.p2align 2,,3
 3981              		.global	ili9340_write_data
 3982              		.syntax unified
 3983              		.thumb
 3984              		.thumb_func
ARM GAS  /tmp/ccugowHg.s 			page 84


 3985              		.fpu fpv4-sp-d16
 3987              	ili9340_write_data:
 3988              	.LFB141:
 355:MakiseGUI/MakiseGUI/ILI9340C/ili9340.c ****     _ili9340_dc(1);
 3989              		.loc 1 355 0
 3990              		.cfi_startproc
 3991              		@ args = 0, pretend = 0, frame = 8
 3992              		@ frame_needed = 0, uses_anonymous_args = 0
 3993              	.LVL416:
 3994 0000 10B5     		push	{r4, lr}
 3995              	.LCFI16:
 3996              		.cfi_def_cfa_offset 8
 3997              		.cfi_offset 4, -8
 3998              		.cfi_offset 14, -4
 3999 0002 82B0     		sub	sp, sp, #8
 4000              	.LCFI17:
 4001              		.cfi_def_cfa_offset 16
 355:MakiseGUI/MakiseGUI/ILI9340C/ili9340.c ****     _ili9340_dc(1);
 4002              		.loc 1 355 0
 4003 0004 02AC     		add	r4, sp, #8
 4004              	.LBB1007:
 4005              	.LBB1008:
   9:MakiseGUI/MakiseGUI/ILI9340C/ili9340.c **** 
 4006              		.loc 1 9 0
 4007 0006 0122     		movs	r2, #1
 4008              	.LBE1008:
 4009              	.LBE1007:
 355:MakiseGUI/MakiseGUI/ILI9340C/ili9340.c ****     _ili9340_dc(1);
 4010              		.loc 1 355 0
 4011 0008 04F8010D 		strb	r0, [r4, #-1]!
 4012              	.LBB1010:
 4013              	.LBB1009:
   9:MakiseGUI/MakiseGUI/ILI9340C/ili9340.c **** 
 4014              		.loc 1 9 0
 4015 000c 1021     		movs	r1, #16
 4016 000e 0548     		ldr	r0, .L89
 4017              	.LVL417:
 4018 0010 FFF7FEFF 		bl	HAL_GPIO_WritePin
 4019              	.LVL418:
 4020              	.LBE1009:
 4021              	.LBE1010:
 358:MakiseGUI/MakiseGUI/ILI9340C/ili9340.c **** }
 4022              		.loc 1 358 0
 4023 0014 2146     		mov	r1, r4
 4024 0016 0A23     		movs	r3, #10
 4025 0018 0122     		movs	r2, #1
 4026 001a 0348     		ldr	r0, .L89+4
 4027 001c FFF7FEFF 		bl	HAL_SPI_Transmit
 4028              	.LVL419:
 359:MakiseGUI/MakiseGUI/ILI9340C/ili9340.c **** 
 4029              		.loc 1 359 0
 4030 0020 02B0     		add	sp, sp, #8
 4031              	.LCFI18:
 4032              		.cfi_def_cfa_offset 8
 4033              		@ sp needed
 4034 0022 10BD     		pop	{r4, pc}
 4035              	.L90:
ARM GAS  /tmp/ccugowHg.s 			page 85


 4036              		.align	2
 4037              	.L89:
 4038 0024 00080240 		.word	1073874944
 4039 0028 00000000 		.word	hspi1
 4040              		.cfi_endproc
 4041              	.LFE141:
 4043              		.section	.text.ili9340_write_command,"ax",%progbits
 4044              		.align	1
 4045              		.p2align 2,,3
 4046              		.global	ili9340_write_command
 4047              		.syntax unified
 4048              		.thumb
 4049              		.thumb_func
 4050              		.fpu fpv4-sp-d16
 4052              	ili9340_write_command:
 4053              	.LFB142:
 362:MakiseGUI/MakiseGUI/ILI9340C/ili9340.c ****     _ili9340_dc(0);
 4054              		.loc 1 362 0
 4055              		.cfi_startproc
 4056              		@ args = 0, pretend = 0, frame = 8
 4057              		@ frame_needed = 0, uses_anonymous_args = 0
 4058              	.LVL420:
 4059 0000 10B5     		push	{r4, lr}
 4060              	.LCFI19:
 4061              		.cfi_def_cfa_offset 8
 4062              		.cfi_offset 4, -8
 4063              		.cfi_offset 14, -4
 4064 0002 82B0     		sub	sp, sp, #8
 4065              	.LCFI20:
 4066              		.cfi_def_cfa_offset 16
 362:MakiseGUI/MakiseGUI/ILI9340C/ili9340.c ****     _ili9340_dc(0);
 4067              		.loc 1 362 0
 4068 0004 02AC     		add	r4, sp, #8
 4069              	.LBB1011:
 4070              	.LBB1012:
   9:MakiseGUI/MakiseGUI/ILI9340C/ili9340.c **** 
 4071              		.loc 1 9 0
 4072 0006 0022     		movs	r2, #0
 4073              	.LBE1012:
 4074              	.LBE1011:
 362:MakiseGUI/MakiseGUI/ILI9340C/ili9340.c ****     _ili9340_dc(0);
 4075              		.loc 1 362 0
 4076 0008 04F8010D 		strb	r0, [r4, #-1]!
 4077              	.LBB1014:
 4078              	.LBB1013:
   9:MakiseGUI/MakiseGUI/ILI9340C/ili9340.c **** 
 4079              		.loc 1 9 0
 4080 000c 1021     		movs	r1, #16
 4081 000e 0548     		ldr	r0, .L93
 4082              	.LVL421:
 4083 0010 FFF7FEFF 		bl	HAL_GPIO_WritePin
 4084              	.LVL422:
 4085              	.LBE1013:
 4086              	.LBE1014:
 4087              		.loc 1 365 0
 4088 0014 2146     		mov	r1, r4
 4089 0016 0A23     		movs	r3, #10
ARM GAS  /tmp/ccugowHg.s 			page 86


 4090 0018 0122     		movs	r2, #1
 4091 001a 0348     		ldr	r0, .L93+4
 4092 001c FFF7FEFF 		bl	HAL_SPI_Transmit
 4093              	.LVL423:
 366:MakiseGUI/MakiseGUI/ILI9340C/ili9340.c ****     
 367:MakiseGUI/MakiseGUI/ILI9340C/ili9340.c **** }
 4094              		.loc 1 367 0
 4095 0020 02B0     		add	sp, sp, #8
 4096              	.LCFI21:
 4097              		.cfi_def_cfa_offset 8
 4098              		@ sp needed
 4099 0022 10BD     		pop	{r4, pc}
 4100              	.L94:
 4101              		.align	2
 4102              	.L93:
 4103 0024 00080240 		.word	1073874944
 4104 0028 00000000 		.word	hspi1
 4105              		.cfi_endproc
 4106              	.LFE142:
 4108              		.global	clrs
 4109              		.global	col
 4110              		.global	ili_f
 4111              		.global	w
 4112              		.comm	se,4,4
 4113              		.comm	ss,4,4
 4114              		.comm	t,4,4
 4115              		.comm	_ili9340_addr_kek,2,4
 4116              		.global	ili9340_backlight
 4117              		.section	.bss.col,"aw",%nobits
 4118              		.set	.LANCHOR2,. + 0
 4121              	col:
 4122 0000 00       		.space	1
 4123              		.section	.bss.ili9340_backlight,"aw",%nobits
 4126              	ili9340_backlight:
 4127 0000 00       		.space	1
 4128              		.section	.bss.ili_f,"aw",%nobits
 4129              		.set	.LANCHOR0,. + 0
 4132              	ili_f:
 4133 0000 00       		.space	1
 4134              		.section	.bss.w,"aw",%nobits
 4135              		.align	2
 4136              		.set	.LANCHOR3,. + 0
 4139              	w:
 4140 0000 00000000 		.space	4
 4141              		.section	.data.clrs,"aw",%progbits
 4142              		.align	2
 4143              		.set	.LANCHOR1,. + 0
 4146              	clrs:
 4147 0000 0000     		.short	0
 4148 0002 FFFF     		.short	-1
 4149 0004 00F8     		.short	-2048
 4150 0006 E007     		.short	2016
 4151 0008 1F00     		.short	31
 4152 000a FF07     		.short	2047
 4153 000c E0FF     		.short	-32
 4154 000e 1FF8     		.short	-2017
 4155              		.text
ARM GAS  /tmp/ccugowHg.s 			page 87


 4156              	.Letext0:
 4157              		.file 2 "/usr/arm-none-eabi/include/machine/_default_types.h"
 4158              		.file 3 "/usr/arm-none-eabi/include/sys/_stdint.h"
 4159              		.file 4 "Drivers/CMSIS/Include/core_cm4.h"
 4160              		.file 5 "Drivers/CMSIS/Device/ST/STM32F4xx/Include/system_stm32f4xx.h"
 4161              		.file 6 "Drivers/CMSIS/Device/ST/STM32F4xx/Include/stm32f401xe.h"
 4162              		.file 7 "/usr/arm-none-eabi/include/sys/lock.h"
 4163              		.file 8 "/usr/arm-none-eabi/include/sys/_types.h"
 4164              		.file 9 "/usr/lib/gcc/arm-none-eabi/6.3.0/include/stddef.h"
 4165              		.file 10 "/usr/arm-none-eabi/include/sys/reent.h"
 4166              		.file 11 "Drivers/STM32F4xx_HAL_Driver/Inc/stm32f4xx_hal_def.h"
 4167              		.file 12 "Drivers/STM32F4xx_HAL_Driver/Inc/stm32f4xx_hal_gpio.h"
 4168              		.file 13 "Drivers/STM32F4xx_HAL_Driver/Inc/stm32f4xx_hal_dma.h"
 4169              		.file 14 "Drivers/STM32F4xx_HAL_Driver/Inc/stm32f4xx_hal_spi.h"
 4170              		.file 15 "Drivers/STM32F4xx_HAL_Driver/Inc/stm32f4xx_hal_tim.h"
 4171              		.file 16 "Inc/spi.h"
 4172              		.file 17 "Inc/tim.h"
 4173              		.file 18 "MakiseGUI/MakiseGUI/makise.h"
 4174              		.file 19 "MakiseGUI/MakiseGUI/makise_text.h"
 4175              		.file 20 "MakiseGUI/MakiseGUI/fonts/fonts.h"
 4176              		.file 21 "MakiseGUI/MakiseGUI/ILI9340C/ili9340.h"
 4177              		.file 22 "Inc/dma.h"
 4178              		.file 23 "/usr/arm-none-eabi/include/string.h"
 4179              		.file 24 "Drivers/STM32F4xx_HAL_Driver/Inc/stm32f4xx_hal.h"
ARM GAS  /tmp/ccugowHg.s 			page 88

