ARM GAS  /tmp/ccMF4931.s 			page 1


   1              		.cpu cortex-m4
   2              		.eabi_attribute 27, 1
   3              		.eabi_attribute 28, 1
   4              		.eabi_attribute 20, 1
   5              		.eabi_attribute 21, 1
   6              		.eabi_attribute 23, 3
   7              		.eabi_attribute 24, 1
   8              		.eabi_attribute 25, 1
   9              		.eabi_attribute 26, 1
  10              		.eabi_attribute 30, 2
  11              		.eabi_attribute 34, 1
  12              		.eabi_attribute 18, 4
  13              		.file	"ili9340.c"
  14              		.text
  15              	.Ltext0:
  16              		.cfi_sections	.debug_frame
  17              		.section	.text.ili9340_awake,"ax",%progbits
  18              		.align	1
  19              		.p2align 2,,3
  20              		.global	ili9340_awake
  21              		.syntax unified
  22              		.thumb
  23              		.thumb_func
  24              		.fpu fpv4-sp-d16
  26              	ili9340_awake:
  27              	.LFB136:
  28              		.file 1 "MakiseGUI/MakiseGUI/ILI9340C/ili9340.c"
   1:MakiseGUI/MakiseGUI/ILI9340C/ili9340.c **** //#ifdef MAKISE_ILI9340_USE
   2:MakiseGUI/MakiseGUI/ILI9340C/ili9340.c **** #include "ili9340.h"
   3:MakiseGUI/MakiseGUI/ILI9340C/ili9340.c **** #include "stm32f4xx_hal_tim.h"
   4:MakiseGUI/MakiseGUI/ILI9340C/ili9340.c **** 
   5:MakiseGUI/MakiseGUI/ILI9340C/ili9340.c **** extern inline void _ili9340_delay(uint32_t x) { HAL_Delay(x); }
   6:MakiseGUI/MakiseGUI/ILI9340C/ili9340.c **** extern inline void _ili9340_rst(uint8_t st){HAL_GPIO_WritePin(ILI9340_RST, st ? GPIO_PIN_SET : GPIO
   7:MakiseGUI/MakiseGUI/ILI9340C/ili9340.c **** extern inline void _ili9340_cs(uint8_t st){HAL_GPIO_WritePin(ILI9340_CS, st ? GPIO_PIN_SET : GPIO_P
   8:MakiseGUI/MakiseGUI/ILI9340C/ili9340.c **** extern inline void _ili9340_dc(uint8_t st){HAL_GPIO_WritePin(ILI9340_DC, st ? GPIO_PIN_SET : GPIO_P
   9:MakiseGUI/MakiseGUI/ILI9340C/ili9340.c **** 
  10:MakiseGUI/MakiseGUI/ILI9340C/ili9340.c **** uint8_t ili9340_backlight = 0;
  11:MakiseGUI/MakiseGUI/ILI9340C/ili9340.c **** 
  12:MakiseGUI/MakiseGUI/ILI9340C/ili9340.c **** void ili9340_driver(MakiseDriver * d)
  13:MakiseGUI/MakiseGUI/ILI9340C/ili9340.c **** {
  14:MakiseGUI/MakiseGUI/ILI9340C/ili9340.c ****     d->lcd_height    = 320;
  15:MakiseGUI/MakiseGUI/ILI9340C/ili9340.c ****     d->lcd_width     = 240;
  16:MakiseGUI/MakiseGUI/ILI9340C/ili9340.c ****     d->buffer_height = MAKISE_BUF_H;
  17:MakiseGUI/MakiseGUI/ILI9340C/ili9340.c ****     d->buffer_width  = MAKISE_BUF_W;
  18:MakiseGUI/MakiseGUI/ILI9340C/ili9340.c ****     d->pixeldepth    = 16;
  19:MakiseGUI/MakiseGUI/ILI9340C/ili9340.c ****     d->buffer        = 0;
  20:MakiseGUI/MakiseGUI/ILI9340C/ili9340.c ****     d->size          = MAKISE_BUF_H * MAKISE_BUF_W * 2;
  21:MakiseGUI/MakiseGUI/ILI9340C/ili9340.c ****     d->posx          = 0;
  22:MakiseGUI/MakiseGUI/ILI9340C/ili9340.c ****     d->posy          = 0;
  23:MakiseGUI/MakiseGUI/ILI9340C/ili9340.c ****     d->init          = &ili9340_init;
  24:MakiseGUI/MakiseGUI/ILI9340C/ili9340.c ****     d->start         = &ili9340_start;
  25:MakiseGUI/MakiseGUI/ILI9340C/ili9340.c ****     d->sleep         = &ili9340_sleep;
  26:MakiseGUI/MakiseGUI/ILI9340C/ili9340.c ****     d->awake         = &ili9340_awake;
  27:MakiseGUI/MakiseGUI/ILI9340C/ili9340.c ****     d->set_backlight = &ili9340_set_backlight;
  28:MakiseGUI/MakiseGUI/ILI9340C/ili9340.c **** }
  29:MakiseGUI/MakiseGUI/ILI9340C/ili9340.c **** 
  30:MakiseGUI/MakiseGUI/ILI9340C/ili9340.c **** uint8_t ili9340_init(MakiseGUI* gui)
ARM GAS  /tmp/ccMF4931.s 			page 2


  31:MakiseGUI/MakiseGUI/ILI9340C/ili9340.c **** {
  32:MakiseGUI/MakiseGUI/ILI9340C/ili9340.c ****     _ili9340_rst(1);
  33:MakiseGUI/MakiseGUI/ILI9340C/ili9340.c ****     _ili9340_delay(5);
  34:MakiseGUI/MakiseGUI/ILI9340C/ili9340.c ****     _ili9340_rst(0);
  35:MakiseGUI/MakiseGUI/ILI9340C/ili9340.c ****     _ili9340_delay(20);
  36:MakiseGUI/MakiseGUI/ILI9340C/ili9340.c ****     _ili9340_rst(1);
  37:MakiseGUI/MakiseGUI/ILI9340C/ili9340.c ****     _ili9340_delay(150);
  38:MakiseGUI/MakiseGUI/ILI9340C/ili9340.c **** 
  39:MakiseGUI/MakiseGUI/ILI9340C/ili9340.c ****     ili9340_write_command(0x01); //software reset
  40:MakiseGUI/MakiseGUI/ILI9340C/ili9340.c ****     _ili9340_delay(5);
  41:MakiseGUI/MakiseGUI/ILI9340C/ili9340.c ****     ili9340_write_command(0x28);
  42:MakiseGUI/MakiseGUI/ILI9340C/ili9340.c ****     // display off
  43:MakiseGUI/MakiseGUI/ILI9340C/ili9340.c ****     //---------------------------------------------------------
  44:MakiseGUI/MakiseGUI/ILI9340C/ili9340.c ****     // magic?
  45:MakiseGUI/MakiseGUI/ILI9340C/ili9340.c ****     ili9340_write_command(0xcf);
  46:MakiseGUI/MakiseGUI/ILI9340C/ili9340.c ****     ili9340_write_data(0x00);
  47:MakiseGUI/MakiseGUI/ILI9340C/ili9340.c ****     ili9340_write_data(0x83);
  48:MakiseGUI/MakiseGUI/ILI9340C/ili9340.c ****     ili9340_write_data(0x30);
  49:MakiseGUI/MakiseGUI/ILI9340C/ili9340.c **** 
  50:MakiseGUI/MakiseGUI/ILI9340C/ili9340.c ****     ili9340_write_command(0xed);
  51:MakiseGUI/MakiseGUI/ILI9340C/ili9340.c ****     ili9340_write_data(0x64);
  52:MakiseGUI/MakiseGUI/ILI9340C/ili9340.c ****     ili9340_write_data(0x03);
  53:MakiseGUI/MakiseGUI/ILI9340C/ili9340.c ****     ili9340_write_data(0x12);
  54:MakiseGUI/MakiseGUI/ILI9340C/ili9340.c ****     ili9340_write_data(0x81);
  55:MakiseGUI/MakiseGUI/ILI9340C/ili9340.c ****     ili9340_write_command(0xe8);
  56:MakiseGUI/MakiseGUI/ILI9340C/ili9340.c ****     ili9340_write_data(0x85);
  57:MakiseGUI/MakiseGUI/ILI9340C/ili9340.c ****     ili9340_write_data(0x01);
  58:MakiseGUI/MakiseGUI/ILI9340C/ili9340.c ****     ili9340_write_data(0x79);
  59:MakiseGUI/MakiseGUI/ILI9340C/ili9340.c ****     ili9340_write_command(0xcb);
  60:MakiseGUI/MakiseGUI/ILI9340C/ili9340.c ****     ili9340_write_data(0x39);
  61:MakiseGUI/MakiseGUI/ILI9340C/ili9340.c ****     ili9340_write_data(0x2c);
  62:MakiseGUI/MakiseGUI/ILI9340C/ili9340.c ****     ili9340_write_data(0x00);
  63:MakiseGUI/MakiseGUI/ILI9340C/ili9340.c ****     ili9340_write_data(0x34);
  64:MakiseGUI/MakiseGUI/ILI9340C/ili9340.c ****     ili9340_write_data(0x02);
  65:MakiseGUI/MakiseGUI/ILI9340C/ili9340.c ****     ili9340_write_command(0xf7);
  66:MakiseGUI/MakiseGUI/ILI9340C/ili9340.c ****     ili9340_write_data(0x20);
  67:MakiseGUI/MakiseGUI/ILI9340C/ili9340.c ****     ili9340_write_command(0xea);
  68:MakiseGUI/MakiseGUI/ILI9340C/ili9340.c ****     ili9340_write_data(0x00);
  69:MakiseGUI/MakiseGUI/ILI9340C/ili9340.c ****     ili9340_write_data(0x00);
  70:MakiseGUI/MakiseGUI/ILI9340C/ili9340.c ****     //------------power control------------------------------
  71:MakiseGUI/MakiseGUI/ILI9340C/ili9340.c ****     ili9340_write_command(0xc0); //power control
  72:MakiseGUI/MakiseGUI/ILI9340C/ili9340.c ****     ili9340_write_data(0x26);
  73:MakiseGUI/MakiseGUI/ILI9340C/ili9340.c ****     ili9340_write_command(0xc1); //power control
  74:MakiseGUI/MakiseGUI/ILI9340C/ili9340.c ****     ili9340_write_data(0x11);
  75:MakiseGUI/MakiseGUI/ILI9340C/ili9340.c ****     //--------------VCOM
  76:MakiseGUI/MakiseGUI/ILI9340C/ili9340.c ****     ili9340_write_command(0xc5); //vcom control
  77:MakiseGUI/MakiseGUI/ILI9340C/ili9340.c ****     ili9340_write_data(0x35);//35
  78:MakiseGUI/MakiseGUI/ILI9340C/ili9340.c ****     ili9340_write_data(0x3e);//3E
  79:MakiseGUI/MakiseGUI/ILI9340C/ili9340.c ****     ili9340_write_command(0xc7); //vcom control
  80:MakiseGUI/MakiseGUI/ILI9340C/ili9340.c ****     ili9340_write_data(0xbe); // 0x94
  81:MakiseGUI/MakiseGUI/ILI9340C/ili9340.c ****     //------------memory access control------------------------
  82:MakiseGUI/MakiseGUI/ILI9340C/ili9340.c ****     ili9340_write_command(0x36);
  83:MakiseGUI/MakiseGUI/ILI9340C/ili9340.c ****     // memory access control
  84:MakiseGUI/MakiseGUI/ILI9340C/ili9340.c ****     ili9340_write_data(0x48); //0048 my,mx,mv,ml,BGR,mh,0.0
  85:MakiseGUI/MakiseGUI/ILI9340C/ili9340.c ****     ili9340_write_command(0x3a); // pixel format set
  86:MakiseGUI/MakiseGUI/ILI9340C/ili9340.c ****     ili9340_write_data(0x55);//16bit /pixel
  87:MakiseGUI/MakiseGUI/ILI9340C/ili9340.c ****     //----------------- frame rate------------------------------
ARM GAS  /tmp/ccMF4931.s 			page 3


  88:MakiseGUI/MakiseGUI/ILI9340C/ili9340.c ****     ili9340_write_command(0xb1);
  89:MakiseGUI/MakiseGUI/ILI9340C/ili9340.c ****     // frame rate
  90:MakiseGUI/MakiseGUI/ILI9340C/ili9340.c ****     ili9340_write_data(0x00);
  91:MakiseGUI/MakiseGUI/ILI9340C/ili9340.c ****     ili9340_write_data(0x1B); //70
  92:MakiseGUI/MakiseGUI/ILI9340C/ili9340.c ****     //----------------Gamma---------------------------------
  93:MakiseGUI/MakiseGUI/ILI9340C/ili9340.c ****     ili9340_write_command(0xf2); // 3Gamma Function Disable
  94:MakiseGUI/MakiseGUI/ILI9340C/ili9340.c ****     ili9340_write_data(0x08);
  95:MakiseGUI/MakiseGUI/ILI9340C/ili9340.c ****     ili9340_write_command(0x26);
  96:MakiseGUI/MakiseGUI/ILI9340C/ili9340.c ****     ili9340_write_data(0x02); // gamma set 4 gamma curve 01/02/04/08
  97:MakiseGUI/MakiseGUI/ILI9340C/ili9340.c **** 
  98:MakiseGUI/MakiseGUI/ILI9340C/ili9340.c ****     ili9340_write_command(0xE0); //positive gamma correction
  99:MakiseGUI/MakiseGUI/ILI9340C/ili9340.c ****     ili9340_write_data(0x0F); 
 100:MakiseGUI/MakiseGUI/ILI9340C/ili9340.c ****     ili9340_write_data(0x31); 
 101:MakiseGUI/MakiseGUI/ILI9340C/ili9340.c ****     ili9340_write_data(0x2B); 
 102:MakiseGUI/MakiseGUI/ILI9340C/ili9340.c ****     ili9340_write_data(0x0C); 
 103:MakiseGUI/MakiseGUI/ILI9340C/ili9340.c ****     ili9340_write_data(0x0E); 
 104:MakiseGUI/MakiseGUI/ILI9340C/ili9340.c ****     ili9340_write_data(0x08); 
 105:MakiseGUI/MakiseGUI/ILI9340C/ili9340.c ****     ili9340_write_data(0x4E); 
 106:MakiseGUI/MakiseGUI/ILI9340C/ili9340.c ****     ili9340_write_data(0xF1); 
 107:MakiseGUI/MakiseGUI/ILI9340C/ili9340.c ****     ili9340_write_data(0x37); 
 108:MakiseGUI/MakiseGUI/ILI9340C/ili9340.c ****     ili9340_write_data(0x07); 
 109:MakiseGUI/MakiseGUI/ILI9340C/ili9340.c ****     ili9340_write_data(0x10); 
 110:MakiseGUI/MakiseGUI/ILI9340C/ili9340.c ****     ili9340_write_data(0x03); 
 111:MakiseGUI/MakiseGUI/ILI9340C/ili9340.c ****     ili9340_write_data(0x0E); 
 112:MakiseGUI/MakiseGUI/ILI9340C/ili9340.c ****     ili9340_write_data(0x09); 
 113:MakiseGUI/MakiseGUI/ILI9340C/ili9340.c ****     ili9340_write_data(0x00); 
 114:MakiseGUI/MakiseGUI/ILI9340C/ili9340.c ****     ili9340_write_command(0xE1); //negamma correction
 115:MakiseGUI/MakiseGUI/ILI9340C/ili9340.c ****     ili9340_write_data(0x00); 
 116:MakiseGUI/MakiseGUI/ILI9340C/ili9340.c ****     ili9340_write_data(0x0E); 
 117:MakiseGUI/MakiseGUI/ILI9340C/ili9340.c ****     ili9340_write_data(0x14); 
 118:MakiseGUI/MakiseGUI/ILI9340C/ili9340.c ****     ili9340_write_data(0x03); 
 119:MakiseGUI/MakiseGUI/ILI9340C/ili9340.c ****     ili9340_write_data(0x11); 
 120:MakiseGUI/MakiseGUI/ILI9340C/ili9340.c ****     ili9340_write_data(0x07); 
 121:MakiseGUI/MakiseGUI/ILI9340C/ili9340.c ****     ili9340_write_data(0x31); 
 122:MakiseGUI/MakiseGUI/ILI9340C/ili9340.c ****     ili9340_write_data(0xC1); 
 123:MakiseGUI/MakiseGUI/ILI9340C/ili9340.c ****     ili9340_write_data(0x48); 
 124:MakiseGUI/MakiseGUI/ILI9340C/ili9340.c ****     ili9340_write_data(0x08); 
 125:MakiseGUI/MakiseGUI/ILI9340C/ili9340.c ****     ili9340_write_data(0x0F); 
 126:MakiseGUI/MakiseGUI/ILI9340C/ili9340.c ****     ili9340_write_data(0x0C); 
 127:MakiseGUI/MakiseGUI/ILI9340C/ili9340.c ****     ili9340_write_data(0x31); 
 128:MakiseGUI/MakiseGUI/ILI9340C/ili9340.c ****     ili9340_write_data(0x36); 
 129:MakiseGUI/MakiseGUI/ILI9340C/ili9340.c ****     ili9340_write_data(0x0F); 
 130:MakiseGUI/MakiseGUI/ILI9340C/ili9340.c ****     //--------------ddram ---------------------
 131:MakiseGUI/MakiseGUI/ILI9340C/ili9340.c ****     ili9340_write_command(0x2a);
 132:MakiseGUI/MakiseGUI/ILI9340C/ili9340.c ****     // column set
 133:MakiseGUI/MakiseGUI/ILI9340C/ili9340.c ****     // size = 239
 134:MakiseGUI/MakiseGUI/ILI9340C/ili9340.c ****     ili9340_write_data(0x00);
 135:MakiseGUI/MakiseGUI/ILI9340C/ili9340.c ****     ili9340_write_data(0x00);
 136:MakiseGUI/MakiseGUI/ILI9340C/ili9340.c ****     ili9340_write_data(0x00);
 137:MakiseGUI/MakiseGUI/ILI9340C/ili9340.c ****     ili9340_write_data(0xEF);
 138:MakiseGUI/MakiseGUI/ILI9340C/ili9340.c ****     ili9340_write_command(0x2b);
 139:MakiseGUI/MakiseGUI/ILI9340C/ili9340.c ****     // page address set
 140:MakiseGUI/MakiseGUI/ILI9340C/ili9340.c ****     // size = 319
 141:MakiseGUI/MakiseGUI/ILI9340C/ili9340.c ****     ili9340_write_data(0x00);
 142:MakiseGUI/MakiseGUI/ILI9340C/ili9340.c ****     ili9340_write_data(0x00);
 143:MakiseGUI/MakiseGUI/ILI9340C/ili9340.c ****     ili9340_write_data(0x01);
 144:MakiseGUI/MakiseGUI/ILI9340C/ili9340.c ****     ili9340_write_data(0x3F);
ARM GAS  /tmp/ccMF4931.s 			page 4


 145:MakiseGUI/MakiseGUI/ILI9340C/ili9340.c ****     ili9340_write_command(0x34);
 146:MakiseGUI/MakiseGUI/ILI9340C/ili9340.c ****     ili9340_write_command(0x35);
 147:MakiseGUI/MakiseGUI/ILI9340C/ili9340.c ****     ili9340_write_data(0x01);
 148:MakiseGUI/MakiseGUI/ILI9340C/ili9340.c ****     // tearing effect off
 149:MakiseGUI/MakiseGUI/ILI9340C/ili9340.c ****     // tearing effect on
 150:MakiseGUI/MakiseGUI/ILI9340C/ili9340.c ****     // ili9340_write_command(0xb4); // display inversion
 151:MakiseGUI/MakiseGUI/ILI9340C/ili9340.c ****     ili9340_write_command(0xb7); //entry mode set
 152:MakiseGUI/MakiseGUI/ILI9340C/ili9340.c ****     ili9340_write_data(0x07);
 153:MakiseGUI/MakiseGUI/ILI9340C/ili9340.c ****     //-----------------display---------------------
 154:MakiseGUI/MakiseGUI/ILI9340C/ili9340.c ****     ili9340_write_command(0xb6);
 155:MakiseGUI/MakiseGUI/ILI9340C/ili9340.c ****     // display function control
 156:MakiseGUI/MakiseGUI/ILI9340C/ili9340.c ****     ili9340_write_data(0x0a);
 157:MakiseGUI/MakiseGUI/ILI9340C/ili9340.c ****     ili9340_write_data(0x82);
 158:MakiseGUI/MakiseGUI/ILI9340C/ili9340.c ****     ili9340_write_data(0x27);
 159:MakiseGUI/MakiseGUI/ILI9340C/ili9340.c ****     ili9340_write_data(0x00);
 160:MakiseGUI/MakiseGUI/ILI9340C/ili9340.c ****     ili9340_write_command(0x11); //sleep out
 161:MakiseGUI/MakiseGUI/ILI9340C/ili9340.c ****     _ili9340_delay(100);
 162:MakiseGUI/MakiseGUI/ILI9340C/ili9340.c ****     ili9340_write_command(0x29); // display on
 163:MakiseGUI/MakiseGUI/ILI9340C/ili9340.c ****     _ili9340_delay(100);
 164:MakiseGUI/MakiseGUI/ILI9340C/ili9340.c **** 
 165:MakiseGUI/MakiseGUI/ILI9340C/ili9340.c ****     
 166:MakiseGUI/MakiseGUI/ILI9340C/ili9340.c ****     return HAL_OK;
 167:MakiseGUI/MakiseGUI/ILI9340C/ili9340.c **** }
 168:MakiseGUI/MakiseGUI/ILI9340C/ili9340.c **** uint8_t _ili9340_addr_kek[2];
 169:MakiseGUI/MakiseGUI/ILI9340C/ili9340.c **** void setAddrWindow(uint16_t x0, uint16_t y0, uint16_t x1,
 170:MakiseGUI/MakiseGUI/ILI9340C/ili9340.c **** 		   uint16_t y1) {
 171:MakiseGUI/MakiseGUI/ILI9340C/ili9340.c **** 
 172:MakiseGUI/MakiseGUI/ILI9340C/ili9340.c ****     _ili9340_cs(0);
 173:MakiseGUI/MakiseGUI/ILI9340C/ili9340.c ****     ili9340_write_command(ILI9340_CASET); // Column addr set
 174:MakiseGUI/MakiseGUI/ILI9340C/ili9340.c ****     
 175:MakiseGUI/MakiseGUI/ILI9340C/ili9340.c ****     _ili9340_dc(1);
 176:MakiseGUI/MakiseGUI/ILI9340C/ili9340.c ****     _ili9340_addr_kek[0] = x0 >> 8;
 177:MakiseGUI/MakiseGUI/ILI9340C/ili9340.c ****     _ili9340_addr_kek[1] = x0;
 178:MakiseGUI/MakiseGUI/ILI9340C/ili9340.c ****     _ili9340_addr_kek[2] = x1 >> 8;
 179:MakiseGUI/MakiseGUI/ILI9340C/ili9340.c ****     _ili9340_addr_kek[3] = x1;
 180:MakiseGUI/MakiseGUI/ILI9340C/ili9340.c ****     HAL_SPI_Transmit(&ILI9340_SPI, (uint8_t*)_ili9340_addr_kek, 4, 10);
 181:MakiseGUI/MakiseGUI/ILI9340C/ili9340.c **** 
 182:MakiseGUI/MakiseGUI/ILI9340C/ili9340.c ****     ili9340_write_command(ILI9340_PASET); // Row addr set
 183:MakiseGUI/MakiseGUI/ILI9340C/ili9340.c **** 
 184:MakiseGUI/MakiseGUI/ILI9340C/ili9340.c ****     _ili9340_dc(1);
 185:MakiseGUI/MakiseGUI/ILI9340C/ili9340.c ****     _ili9340_addr_kek[0] = y0 >> 8;
 186:MakiseGUI/MakiseGUI/ILI9340C/ili9340.c ****     _ili9340_addr_kek[1] = y0;
 187:MakiseGUI/MakiseGUI/ILI9340C/ili9340.c ****     _ili9340_addr_kek[2] = y1 >>8;
 188:MakiseGUI/MakiseGUI/ILI9340C/ili9340.c ****     _ili9340_addr_kek[3] = y1;
 189:MakiseGUI/MakiseGUI/ILI9340C/ili9340.c ****     HAL_SPI_Transmit(&ILI9340_SPI, (uint8_t*)_ili9340_addr_kek, 4, 10);
 190:MakiseGUI/MakiseGUI/ILI9340C/ili9340.c **** 
 191:MakiseGUI/MakiseGUI/ILI9340C/ili9340.c ****     ili9340_write_command(ILI9340_RAMWR); // write to RAM
 192:MakiseGUI/MakiseGUI/ILI9340C/ili9340.c **** }
 193:MakiseGUI/MakiseGUI/ILI9340C/ili9340.c **** 
 194:MakiseGUI/MakiseGUI/ILI9340C/ili9340.c **** uint32_t t, ss, se, w=0;
 195:MakiseGUI/MakiseGUI/ILI9340C/ili9340.c **** uint8_t ili_f = 0;
 196:MakiseGUI/MakiseGUI/ILI9340C/ili9340.c **** extern uint16_t taaak = 0;
 197:MakiseGUI/MakiseGUI/ILI9340C/ili9340.c **** void strt_tx(MakiseDriver* d)
 198:MakiseGUI/MakiseGUI/ILI9340C/ili9340.c **** {
 199:MakiseGUI/MakiseGUI/ILI9340C/ili9340.c **** //    HAL_GPIO_TogglePin(GPIOB, GPIO_PIN_3);
 200:MakiseGUI/MakiseGUI/ILI9340C/ili9340.c ****     uint8_t dr = 0;
 201:MakiseGUI/MakiseGUI/ILI9340C/ili9340.c ****     if(d->posy >= d->lcd_height - taaak)
ARM GAS  /tmp/ccMF4931.s 			page 5


 202:MakiseGUI/MakiseGUI/ILI9340C/ili9340.c ****     {
 203:MakiseGUI/MakiseGUI/ILI9340C/ili9340.c **** 	ili_f = 0;
 204:MakiseGUI/MakiseGUI/ILI9340C/ili9340.c **** 	dr = 1;
 205:MakiseGUI/MakiseGUI/ILI9340C/ili9340.c **** 	d->posy = taaak;
 206:MakiseGUI/MakiseGUI/ILI9340C/ili9340.c **** 	
 207:MakiseGUI/MakiseGUI/ILI9340C/ili9340.c **** 	//se = HAL_GetTick();
 208:MakiseGUI/MakiseGUI/ILI9340C/ili9340.c **** 	//printf("delay %d\n", se - ss);
 209:MakiseGUI/MakiseGUI/ILI9340C/ili9340.c **** 	//ss = HAL_GetTick();
 210:MakiseGUI/MakiseGUI/ILI9340C/ili9340.c **** 	
 211:MakiseGUI/MakiseGUI/ILI9340C/ili9340.c **** //	HAL_GPIO_TogglePin(GPIOB, GPIO_PIN_5);
 212:MakiseGUI/MakiseGUI/ILI9340C/ili9340.c **** 	if(d->gui->draw != 0)
 213:MakiseGUI/MakiseGUI/ILI9340C/ili9340.c **** 	{
 214:MakiseGUI/MakiseGUI/ILI9340C/ili9340.c **** 	    d->gui->draw(d->gui);
 215:MakiseGUI/MakiseGUI/ILI9340C/ili9340.c **** 	}
 216:MakiseGUI/MakiseGUI/ILI9340C/ili9340.c **** //	HAL_GPIO_TogglePin(GPIOB, GPIO_PIN_5);
 217:MakiseGUI/MakiseGUI/ILI9340C/ili9340.c ****     }
 218:MakiseGUI/MakiseGUI/ILI9340C/ili9340.c **** 
 219:MakiseGUI/MakiseGUI/ILI9340C/ili9340.c **** 
 220:MakiseGUI/MakiseGUI/ILI9340C/ili9340.c ****     setAddrWindow(0, d->posy, d->lcd_width, d->buffer_height - 1 + d->posy);
 221:MakiseGUI/MakiseGUI/ILI9340C/ili9340.c ****     ili9340_render(d->gui);
 222:MakiseGUI/MakiseGUI/ILI9340C/ili9340.c **** 
 223:MakiseGUI/MakiseGUI/ILI9340C/ili9340.c **** 
 224:MakiseGUI/MakiseGUI/ILI9340C/ili9340.c ****     _ili9340_dc(1);
 225:MakiseGUI/MakiseGUI/ILI9340C/ili9340.c ****     _ili9340_cs(0);
 226:MakiseGUI/MakiseGUI/ILI9340C/ili9340.c **** 
 227:MakiseGUI/MakiseGUI/ILI9340C/ili9340.c ****     if(w==0)
 228:MakiseGUI/MakiseGUI/ILI9340C/ili9340.c ****     {
 229:MakiseGUI/MakiseGUI/ILI9340C/ili9340.c **** 	HAL_SPI_Transmit_DMA(&ILI9340_SPI, d->buffer, d->size);
 230:MakiseGUI/MakiseGUI/ILI9340C/ili9340.c **** 	w = 1;
 231:MakiseGUI/MakiseGUI/ILI9340C/ili9340.c ****     }
 232:MakiseGUI/MakiseGUI/ILI9340C/ili9340.c ****     else
 233:MakiseGUI/MakiseGUI/ILI9340C/ili9340.c ****     {
 234:MakiseGUI/MakiseGUI/ILI9340C/ili9340.c **** 	HAL_DMA_Start_IT(ILI9340_SPI.hdmatx, (uint32_t)d->buffer, (uint32_t)&ILI9340_SPI.Instance->DR, d->
 235:MakiseGUI/MakiseGUI/ILI9340C/ili9340.c **** 	  /* Enable the SPI Error Interrupt Bit */
 236:MakiseGUI/MakiseGUI/ILI9340C/ili9340.c **** 	SET_BIT(ILI9340_SPI.Instance->CR2, SPI_CR2_ERRIE);
 237:MakiseGUI/MakiseGUI/ILI9340C/ili9340.c **** 
 238:MakiseGUI/MakiseGUI/ILI9340C/ili9340.c **** 	/* Enable Tx DMA Request */
 239:MakiseGUI/MakiseGUI/ILI9340C/ili9340.c **** 	SET_BIT(ILI9340_SPI.Instance->CR2, SPI_CR2_TXDMAEN);
 240:MakiseGUI/MakiseGUI/ILI9340C/ili9340.c **** 
 241:MakiseGUI/MakiseGUI/ILI9340C/ili9340.c ****     }
 242:MakiseGUI/MakiseGUI/ILI9340C/ili9340.c **** //    HAL_GPIO_TogglePin(GPIOB, GPIO_PIN_3);
 243:MakiseGUI/MakiseGUI/ILI9340C/ili9340.c ****     if(dr)
 244:MakiseGUI/MakiseGUI/ILI9340C/ili9340.c ****     {
 245:MakiseGUI/MakiseGUI/ILI9340C/ili9340.c **** 	if(d->gui->predraw != 0)
 246:MakiseGUI/MakiseGUI/ILI9340C/ili9340.c **** 	{
 247:MakiseGUI/MakiseGUI/ILI9340C/ili9340.c **** 	    d->gui->predraw(d->gui);
 248:MakiseGUI/MakiseGUI/ILI9340C/ili9340.c **** 	}
 249:MakiseGUI/MakiseGUI/ILI9340C/ili9340.c **** 	if(d->gui->update != 0)
 250:MakiseGUI/MakiseGUI/ILI9340C/ili9340.c **** 	{
 251:MakiseGUI/MakiseGUI/ILI9340C/ili9340.c **** 	    d->gui->update(d->gui);
 252:MakiseGUI/MakiseGUI/ILI9340C/ili9340.c **** 	}
 253:MakiseGUI/MakiseGUI/ILI9340C/ili9340.c ****     }
 254:MakiseGUI/MakiseGUI/ILI9340C/ili9340.c **** }
 255:MakiseGUI/MakiseGUI/ILI9340C/ili9340.c **** 
 256:MakiseGUI/MakiseGUI/ILI9340C/ili9340.c **** uint8_t ili9340_start(MakiseGUI* gui)
 257:MakiseGUI/MakiseGUI/ILI9340C/ili9340.c **** {
 258:MakiseGUI/MakiseGUI/ILI9340C/ili9340.c ****     if(ILI9340_LED_USE_PWM)
ARM GAS  /tmp/ccMF4931.s 			page 6


 259:MakiseGUI/MakiseGUI/ILI9340C/ili9340.c ****     {
 260:MakiseGUI/MakiseGUI/ILI9340C/ili9340.c **** 	HAL_TIM_Base_Start(ILI9340_LED_PWM);
 261:MakiseGUI/MakiseGUI/ILI9340C/ili9340.c **** 	HAL_TIM_PWM_Start(ILI9340_LED_PWM, ILI9340_LED_PWM_CHANNEL);
 262:MakiseGUI/MakiseGUI/ILI9340C/ili9340.c ****     }
 263:MakiseGUI/MakiseGUI/ILI9340C/ili9340.c **** //    ili9340_set_backlight(1);
 264:MakiseGUI/MakiseGUI/ILI9340C/ili9340.c ****     ili9340_set_backlight(gui, 31);
 265:MakiseGUI/MakiseGUI/ILI9340C/ili9340.c ****     strt_tx(gui->driver);
 266:MakiseGUI/MakiseGUI/ILI9340C/ili9340.c **** }
 267:MakiseGUI/MakiseGUI/ILI9340C/ili9340.c **** uint8_t ili9340_sleep(MakiseGUI* gui)
 268:MakiseGUI/MakiseGUI/ILI9340C/ili9340.c **** {
 269:MakiseGUI/MakiseGUI/ILI9340C/ili9340.c ****     
 270:MakiseGUI/MakiseGUI/ILI9340C/ili9340.c **** }
 271:MakiseGUI/MakiseGUI/ILI9340C/ili9340.c **** uint8_t ili9340_awake(MakiseGUI* gui)
 272:MakiseGUI/MakiseGUI/ILI9340C/ili9340.c **** {
  29              		.loc 1 272 0
  30              		.cfi_startproc
  31              		@ args = 0, pretend = 0, frame = 0
  32              		@ frame_needed = 0, uses_anonymous_args = 0
  33              		@ link register save eliminated.
  34              	.LVL0:
  35              	.LVL1:
 273:MakiseGUI/MakiseGUI/ILI9340C/ili9340.c ****     
 274:MakiseGUI/MakiseGUI/ILI9340C/ili9340.c **** }
  36              		.loc 1 274 0
  37 0000 7047     		bx	lr
  38              		.cfi_endproc
  39              	.LFE136:
  41 0002 00BF     		.section	.text.ili9340_set_backlight,"ax",%progbits
  42              		.align	1
  43              		.p2align 2,,3
  44              		.global	ili9340_set_backlight
  45              		.syntax unified
  46              		.thumb
  47              		.thumb_func
  48              		.fpu fpv4-sp-d16
  50              	ili9340_set_backlight:
  51              	.LFB137:
 275:MakiseGUI/MakiseGUI/ILI9340C/ili9340.c **** uint8_t ili9340_set_backlight(MakiseGUI* gui, uint8_t val)
 276:MakiseGUI/MakiseGUI/ILI9340C/ili9340.c **** {
  52              		.loc 1 276 0
  53              		.cfi_startproc
  54              		@ args = 0, pretend = 0, frame = 0
  55              		@ frame_needed = 0, uses_anonymous_args = 0
  56              		@ link register save eliminated.
  57              	.LVL2:
 277:MakiseGUI/MakiseGUI/ILI9340C/ili9340.c ****     if(ILI9340_LED_USE_PWM)
 278:MakiseGUI/MakiseGUI/ILI9340C/ili9340.c **** 	__HAL_TIM_SET_COMPARE(ILI9340_LED_PWM, ILI9340_LED_PWM_CHANNEL, val);
  58              		.loc 1 278 0
  59 0000 014B     		ldr	r3, .L3
  60              	.LVL3:
  61 0002 1B68     		ldr	r3, [r3]
  62 0004 1964     		str	r1, [r3, #64]
 279:MakiseGUI/MakiseGUI/ILI9340C/ili9340.c ****     else
 280:MakiseGUI/MakiseGUI/ILI9340C/ili9340.c **** 	HAL_GPIO_WritePin(ILI9340_LED, val ? GPIO_PIN_SET : GPIO_PIN_RESET);
 281:MakiseGUI/MakiseGUI/ILI9340C/ili9340.c **** }
  63              		.loc 1 281 0
  64 0006 7047     		bx	lr
ARM GAS  /tmp/ccMF4931.s 			page 7


  65              	.L4:
  66              		.align	2
  67              	.L3:
  68 0008 00000000 		.word	htim3
  69              		.cfi_endproc
  70              	.LFE137:
  72              		.section	.text.ili9340_sleep,"ax",%progbits
  73              		.align	1
  74              		.p2align 2,,3
  75              		.global	ili9340_sleep
  76              		.syntax unified
  77              		.thumb
  78              		.thumb_func
  79              		.fpu fpv4-sp-d16
  81              	ili9340_sleep:
  82              	.LFB144:
  83              		.cfi_startproc
  84              		@ args = 0, pretend = 0, frame = 0
  85              		@ frame_needed = 0, uses_anonymous_args = 0
  86              		@ link register save eliminated.
  87 0000 0020     		movs	r0, #0
  88 0002 7047     		bx	lr
  89              		.cfi_endproc
  90              	.LFE144:
  92              		.section	.text._ili9340_delay,"ax",%progbits
  93              		.align	1
  94              		.p2align 2,,3
  95              		.global	_ili9340_delay
  96              		.syntax unified
  97              		.thumb
  98              		.thumb_func
  99              		.fpu fpv4-sp-d16
 101              	_ili9340_delay:
 102              	.LFB126:
   5:MakiseGUI/MakiseGUI/ILI9340C/ili9340.c **** extern inline void _ili9340_rst(uint8_t st){HAL_GPIO_WritePin(ILI9340_RST, st ? GPIO_PIN_SET : GPIO
 103              		.loc 1 5 0
 104              		.cfi_startproc
 105              		@ args = 0, pretend = 0, frame = 0
 106              		@ frame_needed = 0, uses_anonymous_args = 0
 107              		@ link register save eliminated.
 108              	.LVL4:
   5:MakiseGUI/MakiseGUI/ILI9340C/ili9340.c **** extern inline void _ili9340_rst(uint8_t st){HAL_GPIO_WritePin(ILI9340_RST, st ? GPIO_PIN_SET : GPIO
 109              		.loc 1 5 0
 110 0000 FFF7FEBF 		b	HAL_Delay
 111              	.LVL5:
 112              		.cfi_endproc
 113              	.LFE126:
 115              		.section	.text._ili9340_rst,"ax",%progbits
 116              		.align	1
 117              		.p2align 2,,3
 118              		.global	_ili9340_rst
 119              		.syntax unified
 120              		.thumb
 121              		.thumb_func
 122              		.fpu fpv4-sp-d16
 124              	_ili9340_rst:
 125              	.LFB127:
ARM GAS  /tmp/ccMF4931.s 			page 8


   6:MakiseGUI/MakiseGUI/ILI9340C/ili9340.c **** extern inline void _ili9340_cs(uint8_t st){HAL_GPIO_WritePin(ILI9340_CS, st ? GPIO_PIN_SET : GPIO_P
 126              		.loc 1 6 0
 127              		.cfi_startproc
 128              		@ args = 0, pretend = 0, frame = 0
 129              		@ frame_needed = 0, uses_anonymous_args = 0
 130              		@ link register save eliminated.
 131              	.LVL6:
   6:MakiseGUI/MakiseGUI/ILI9340C/ili9340.c **** extern inline void _ili9340_cs(uint8_t st){HAL_GPIO_WritePin(ILI9340_CS, st ? GPIO_PIN_SET : GPIO_P
 132              		.loc 1 6 0
 133 0000 021C     		adds	r2, r0, #0
 134 0002 18BF     		it	ne
 135 0004 0122     		movne	r2, #1
 136 0006 2021     		movs	r1, #32
 137 0008 0148     		ldr	r0, .L8
 138              	.LVL7:
 139 000a FFF7FEBF 		b	HAL_GPIO_WritePin
 140              	.LVL8:
 141              	.L9:
 142 000e 00BF     		.align	2
 143              	.L8:
 144 0010 00080240 		.word	1073874944
 145              		.cfi_endproc
 146              	.LFE127:
 148              		.section	.text._ili9340_cs,"ax",%progbits
 149              		.align	1
 150              		.p2align 2,,3
 151              		.global	_ili9340_cs
 152              		.syntax unified
 153              		.thumb
 154              		.thumb_func
 155              		.fpu fpv4-sp-d16
 157              	_ili9340_cs:
 158              	.LFB128:
   7:MakiseGUI/MakiseGUI/ILI9340C/ili9340.c **** extern inline void _ili9340_dc(uint8_t st){HAL_GPIO_WritePin(ILI9340_DC, st ? GPIO_PIN_SET : GPIO_P
 159              		.loc 1 7 0
 160              		.cfi_startproc
 161              		@ args = 0, pretend = 0, frame = 0
 162              		@ frame_needed = 0, uses_anonymous_args = 0
 163              		@ link register save eliminated.
 164              	.LVL9:
   7:MakiseGUI/MakiseGUI/ILI9340C/ili9340.c **** extern inline void _ili9340_dc(uint8_t st){HAL_GPIO_WritePin(ILI9340_DC, st ? GPIO_PIN_SET : GPIO_P
 165              		.loc 1 7 0
 166 0000 021C     		adds	r2, r0, #0
 167 0002 18BF     		it	ne
 168 0004 0122     		movne	r2, #1
 169 0006 0121     		movs	r1, #1
 170 0008 0148     		ldr	r0, .L11
 171              	.LVL10:
 172 000a FFF7FEBF 		b	HAL_GPIO_WritePin
 173              	.LVL11:
 174              	.L12:
 175 000e 00BF     		.align	2
 176              	.L11:
 177 0010 00040240 		.word	1073873920
 178              		.cfi_endproc
 179              	.LFE128:
 181              		.section	.text._ili9340_dc,"ax",%progbits
ARM GAS  /tmp/ccMF4931.s 			page 9


 182              		.align	1
 183              		.p2align 2,,3
 184              		.global	_ili9340_dc
 185              		.syntax unified
 186              		.thumb
 187              		.thumb_func
 188              		.fpu fpv4-sp-d16
 190              	_ili9340_dc:
 191              	.LFB129:
   8:MakiseGUI/MakiseGUI/ILI9340C/ili9340.c **** 
 192              		.loc 1 8 0
 193              		.cfi_startproc
 194              		@ args = 0, pretend = 0, frame = 0
 195              		@ frame_needed = 0, uses_anonymous_args = 0
 196              		@ link register save eliminated.
 197              	.LVL12:
   8:MakiseGUI/MakiseGUI/ILI9340C/ili9340.c **** 
 198              		.loc 1 8 0
 199 0000 021C     		adds	r2, r0, #0
 200 0002 18BF     		it	ne
 201 0004 0122     		movne	r2, #1
 202 0006 1021     		movs	r1, #16
 203 0008 0148     		ldr	r0, .L14
 204              	.LVL13:
 205 000a FFF7FEBF 		b	HAL_GPIO_WritePin
 206              	.LVL14:
 207              	.L15:
 208 000e 00BF     		.align	2
 209              	.L14:
 210 0010 00080240 		.word	1073874944
 211              		.cfi_endproc
 212              	.LFE129:
 214              		.section	.text.ili9340_driver,"ax",%progbits
 215              		.align	1
 216              		.p2align 2,,3
 217              		.global	ili9340_driver
 218              		.syntax unified
 219              		.thumb
 220              		.thumb_func
 221              		.fpu fpv4-sp-d16
 223              	ili9340_driver:
 224              	.LFB130:
  13:MakiseGUI/MakiseGUI/ILI9340C/ili9340.c ****     d->lcd_height    = 320;
 225              		.loc 1 13 0
 226              		.cfi_startproc
 227              		@ args = 0, pretend = 0, frame = 0
 228              		@ frame_needed = 0, uses_anonymous_args = 0
 229              		@ link register save eliminated.
 230              	.LVL15:
 231 0000 F0B4     		push	{r4, r5, r6, r7}
 232              	.LCFI0:
 233              		.cfi_def_cfa_offset 16
 234              		.cfi_offset 4, -16
 235              		.cfi_offset 5, -12
 236              		.cfi_offset 6, -8
 237              		.cfi_offset 7, -4
  14:MakiseGUI/MakiseGUI/ILI9340C/ili9340.c ****     d->lcd_width     = 240;
ARM GAS  /tmp/ccMF4931.s 			page 10


 238              		.loc 1 14 0
 239 0002 4FF4A071 		mov	r1, #320
  20:MakiseGUI/MakiseGUI/ILI9340C/ili9340.c ****     d->posx          = 0;
 240              		.loc 1 20 0
 241 0006 4FF4F052 		mov	r2, #7680
  23:MakiseGUI/MakiseGUI/ILI9340C/ili9340.c ****     d->start         = &ili9340_start;
 242              		.loc 1 23 0
 243 000a 0C4B     		ldr	r3, .L18
  24:MakiseGUI/MakiseGUI/ILI9340C/ili9340.c ****     d->sleep         = &ili9340_sleep;
 244              		.loc 1 24 0
 245 000c 0C4F     		ldr	r7, .L18+4
  25:MakiseGUI/MakiseGUI/ILI9340C/ili9340.c ****     d->awake         = &ili9340_awake;
 246              		.loc 1 25 0
 247 000e 0D4E     		ldr	r6, .L18+8
  26:MakiseGUI/MakiseGUI/ILI9340C/ili9340.c ****     d->set_backlight = &ili9340_set_backlight;
 248              		.loc 1 26 0
 249 0010 0D4D     		ldr	r5, .L18+12
  27:MakiseGUI/MakiseGUI/ILI9340C/ili9340.c **** }
 250              		.loc 1 27 0
 251 0012 0E4C     		ldr	r4, .L18+16
  14:MakiseGUI/MakiseGUI/ILI9340C/ili9340.c ****     d->lcd_width     = 240;
 252              		.loc 1 14 0
 253 0014 8180     		strh	r1, [r0, #4]	@ movhi
  20:MakiseGUI/MakiseGUI/ILI9340C/ili9340.c ****     d->posx          = 0;
 254              		.loc 1 20 0
 255 0016 4261     		str	r2, [r0, #20]
  15:MakiseGUI/MakiseGUI/ILI9340C/ili9340.c ****     d->buffer_height = MAKISE_BUF_H;
 256              		.loc 1 15 0
 257 0018 F021     		movs	r1, #240
  16:MakiseGUI/MakiseGUI/ILI9340C/ili9340.c ****     d->buffer_width  = MAKISE_BUF_W;
 258              		.loc 1 16 0
 259 001a 1022     		movs	r2, #16
  23:MakiseGUI/MakiseGUI/ILI9340C/ili9340.c ****     d->start         = &ili9340_start;
 260              		.loc 1 23 0
 261 001c C361     		str	r3, [r0, #28]
  19:MakiseGUI/MakiseGUI/ILI9340C/ili9340.c ****     d->size          = MAKISE_BUF_H * MAKISE_BUF_W * 2;
 262              		.loc 1 19 0
 263 001e 0023     		movs	r3, #0
  24:MakiseGUI/MakiseGUI/ILI9340C/ili9340.c ****     d->sleep         = &ili9340_sleep;
 264              		.loc 1 24 0
 265 0020 0762     		str	r7, [r0, #32]
  25:MakiseGUI/MakiseGUI/ILI9340C/ili9340.c ****     d->awake         = &ili9340_awake;
 266              		.loc 1 25 0
 267 0022 4662     		str	r6, [r0, #36]
  26:MakiseGUI/MakiseGUI/ILI9340C/ili9340.c ****     d->set_backlight = &ili9340_set_backlight;
 268              		.loc 1 26 0
 269 0024 8562     		str	r5, [r0, #40]
  27:MakiseGUI/MakiseGUI/ILI9340C/ili9340.c **** }
 270              		.loc 1 27 0
 271 0026 C462     		str	r4, [r0, #44]
  15:MakiseGUI/MakiseGUI/ILI9340C/ili9340.c ****     d->buffer_height = MAKISE_BUF_H;
 272              		.loc 1 15 0
 273 0028 C180     		strh	r1, [r0, #6]	@ movhi
  17:MakiseGUI/MakiseGUI/ILI9340C/ili9340.c ****     d->pixeldepth    = 16;
 274              		.loc 1 17 0
 275 002a 4181     		strh	r1, [r0, #10]	@ movhi
  16:MakiseGUI/MakiseGUI/ILI9340C/ili9340.c ****     d->buffer_width  = MAKISE_BUF_W;
ARM GAS  /tmp/ccMF4931.s 			page 11


 276              		.loc 1 16 0
 277 002c 0281     		strh	r2, [r0, #8]	@ movhi
  18:MakiseGUI/MakiseGUI/ILI9340C/ili9340.c ****     d->buffer        = 0;
 278              		.loc 1 18 0
 279 002e 8281     		strh	r2, [r0, #12]	@ movhi
  19:MakiseGUI/MakiseGUI/ILI9340C/ili9340.c ****     d->size          = MAKISE_BUF_H * MAKISE_BUF_W * 2;
 280              		.loc 1 19 0
 281 0030 0361     		str	r3, [r0, #16]
  21:MakiseGUI/MakiseGUI/ILI9340C/ili9340.c ****     d->posy          = 0;
 282              		.loc 1 21 0
 283 0032 0383     		strh	r3, [r0, #24]	@ movhi
  22:MakiseGUI/MakiseGUI/ILI9340C/ili9340.c ****     d->init          = &ili9340_init;
 284              		.loc 1 22 0
 285 0034 4383     		strh	r3, [r0, #26]	@ movhi
  28:MakiseGUI/MakiseGUI/ILI9340C/ili9340.c **** 
 286              		.loc 1 28 0
 287 0036 F0BC     		pop	{r4, r5, r6, r7}
 288              	.LCFI1:
 289              		.cfi_restore 7
 290              		.cfi_restore 6
 291              		.cfi_restore 5
 292              		.cfi_restore 4
 293              		.cfi_def_cfa_offset 0
 294 0038 7047     		bx	lr
 295              	.L19:
 296 003a 00BF     		.align	2
 297              	.L18:
 298 003c 00000000 		.word	ili9340_init
 299 0040 00000000 		.word	ili9340_start
 300 0044 00000000 		.word	ili9340_sleep
 301 0048 00000000 		.word	ili9340_awake
 302 004c 00000000 		.word	ili9340_set_backlight
 303              		.cfi_endproc
 304              	.LFE130:
 306              		.section	.text.ili9340_render,"ax",%progbits
 307              		.align	1
 308              		.p2align 2,,3
 309              		.global	ili9340_render
 310              		.syntax unified
 311              		.thumb
 312              		.thumb_func
 313              		.fpu fpv4-sp-d16
 315              	ili9340_render:
 316              	.LFB140:
 282:MakiseGUI/MakiseGUI/ILI9340C/ili9340.c **** uint8_t ili9340_spi_txhalfcplt(MakiseDriver* d)
 283:MakiseGUI/MakiseGUI/ILI9340C/ili9340.c **** {
 284:MakiseGUI/MakiseGUI/ILI9340C/ili9340.c ****     HAL_GPIO_TogglePin(GPIOB, GPIO_PIN_4);
 285:MakiseGUI/MakiseGUI/ILI9340C/ili9340.c ****     ili_f = 1;
 286:MakiseGUI/MakiseGUI/ILI9340C/ili9340.c ****     if(d->posy < d->lcd_height)
 287:MakiseGUI/MakiseGUI/ILI9340C/ili9340.c **** 	ili9340_render(d->gui);
 288:MakiseGUI/MakiseGUI/ILI9340C/ili9340.c ****     HAL_GPIO_TogglePin(GPIOB, GPIO_PIN_4);
 289:MakiseGUI/MakiseGUI/ILI9340C/ili9340.c **** }
 290:MakiseGUI/MakiseGUI/ILI9340C/ili9340.c **** uint8_t ili9340_spi_txcplt(MakiseDriver* driver)
 291:MakiseGUI/MakiseGUI/ILI9340C/ili9340.c **** {
 292:MakiseGUI/MakiseGUI/ILI9340C/ili9340.c ****     ili_f = 2;
 293:MakiseGUI/MakiseGUI/ILI9340C/ili9340.c ****     _ili9340_cs(1);
 294:MakiseGUI/MakiseGUI/ILI9340C/ili9340.c ****     strt_tx(driver);
ARM GAS  /tmp/ccMF4931.s 			page 12


 295:MakiseGUI/MakiseGUI/ILI9340C/ili9340.c **** }
 296:MakiseGUI/MakiseGUI/ILI9340C/ili9340.c **** 
 297:MakiseGUI/MakiseGUI/ILI9340C/ili9340.c **** uint16_t clrs[] = {ILI9340_BLACK, ILI9340_WHITE, ILI9340_RED,
 298:MakiseGUI/MakiseGUI/ILI9340C/ili9340.c **** 		   ILI9340_GREEN, ILI9340_BLUE, ILI9340_CYAN,
 299:MakiseGUI/MakiseGUI/ILI9340C/ili9340.c **** 		   ILI9340_YELLOW, ILI9340_MAGENTA};
 300:MakiseGUI/MakiseGUI/ILI9340C/ili9340.c **** void    ili9340_render(MakiseGUI* gui)
 301:MakiseGUI/MakiseGUI/ILI9340C/ili9340.c **** {
 317              		.loc 1 301 0
 318              		.cfi_startproc
 319              		@ args = 0, pretend = 0, frame = 0
 320              		@ frame_needed = 0, uses_anonymous_args = 0
 321              	.LVL16:
 322 0000 2DE9F04F 		push	{r4, r5, r6, r7, r8, r9, r10, fp, lr}
 323              	.LCFI2:
 324              		.cfi_def_cfa_offset 36
 325              		.cfi_offset 4, -36
 326              		.cfi_offset 5, -32
 327              		.cfi_offset 6, -28
 328              		.cfi_offset 7, -24
 329              		.cfi_offset 8, -20
 330              		.cfi_offset 9, -16
 331              		.cfi_offset 10, -12
 332              		.cfi_offset 11, -8
 333              		.cfi_offset 14, -4
 302:MakiseGUI/MakiseGUI/ILI9340C/ili9340.c ****     MakiseDriver * d = gui->driver;
 303:MakiseGUI/MakiseGUI/ILI9340C/ili9340.c ****     uint16_t c;
 304:MakiseGUI/MakiseGUI/ILI9340C/ili9340.c **** 
 305:MakiseGUI/MakiseGUI/ILI9340C/ili9340.c ****     uint32_t y = d->posy, x = 0, i = 0,
 306:MakiseGUI/MakiseGUI/ILI9340C/ili9340.c **** 	cu, bu = 0, m;
 307:MakiseGUI/MakiseGUI/ILI9340C/ili9340.c **** 
 308:MakiseGUI/MakiseGUI/ILI9340C/ili9340.c ****     if(ili_f == 0) //render full buffer
 334              		.loc 1 308 0
 335 0004 2D4B     		ldr	r3, .L41
 302:MakiseGUI/MakiseGUI/ILI9340C/ili9340.c ****     MakiseDriver * d = gui->driver;
 336              		.loc 1 302 0
 337 0006 4768     		ldr	r7, [r0, #4]
 338              	.LVL17:
 339              		.loc 1 308 0
 340 0008 1E78     		ldrb	r6, [r3]	@ zero_extendqisi2
 305:MakiseGUI/MakiseGUI/ILI9340C/ili9340.c **** 	cu, bu = 0, m;
 341              		.loc 1 305 0
 342 000a B7F81A90 		ldrh	r9, [r7, #26]
 343              	.LVL18:
 344              		.loc 1 308 0
 345 000e 002E     		cmp	r6, #0
 346 0010 3BD1     		bne	.L21
 309:MakiseGUI/MakiseGUI/ILI9340C/ili9340.c ****     {
 310:MakiseGUI/MakiseGUI/ILI9340C/ili9340.c **** 	m = d->posy + d->buffer_height;
 347              		.loc 1 310 0
 348 0012 B7F80880 		ldrh	r8, [r7, #8]
 311:MakiseGUI/MakiseGUI/ILI9340C/ili9340.c **** 	d->posy += d->buffer_height;
 312:MakiseGUI/MakiseGUI/ILI9340C/ili9340.c **** 	ili_f = 1;
 349              		.loc 1 312 0
 350 0016 0122     		movs	r2, #1
 310:MakiseGUI/MakiseGUI/ILI9340C/ili9340.c **** 	d->posy += d->buffer_height;
 351              		.loc 1 310 0
 352 0018 C844     		add	r8, r8, r9
ARM GAS  /tmp/ccMF4931.s 			page 13


 353              	.LVL19:
 311:MakiseGUI/MakiseGUI/ILI9340C/ili9340.c **** 	d->posy += d->buffer_height;
 354              		.loc 1 311 0
 355 001a A7F81A80 		strh	r8, [r7, #26]	@ movhi
 356              		.loc 1 312 0
 357 001e 1A70     		strb	r2, [r3]
 358              	.LVL20:
 359              	.L22:
 313:MakiseGUI/MakiseGUI/ILI9340C/ili9340.c ****     }
 314:MakiseGUI/MakiseGUI/ILI9340C/ili9340.c ****     else if(ili_f == 1) //render first half (called by halfcplt callback)
 315:MakiseGUI/MakiseGUI/ILI9340C/ili9340.c ****     {
 316:MakiseGUI/MakiseGUI/ILI9340C/ili9340.c **** 	m = d->posy + (d->buffer_height / 2);
 317:MakiseGUI/MakiseGUI/ILI9340C/ili9340.c **** 	y = d->posy;
 318:MakiseGUI/MakiseGUI/ILI9340C/ili9340.c ****     }
 319:MakiseGUI/MakiseGUI/ILI9340C/ili9340.c ****     else if(ili_f == 2) //render second half (called by cplt callback)
 320:MakiseGUI/MakiseGUI/ILI9340C/ili9340.c ****     {
 321:MakiseGUI/MakiseGUI/ILI9340C/ili9340.c **** 	m = d->posy + d->buffer_height;
 322:MakiseGUI/MakiseGUI/ILI9340C/ili9340.c **** 	y = d->posy + (d->buffer_height / 2);
 323:MakiseGUI/MakiseGUI/ILI9340C/ili9340.c **** 	i = d->size / 4;
 324:MakiseGUI/MakiseGUI/ILI9340C/ili9340.c **** 	d->posy += d->buffer_height;
 325:MakiseGUI/MakiseGUI/ILI9340C/ili9340.c ****     }
 326:MakiseGUI/MakiseGUI/ILI9340C/ili9340.c ****     
 327:MakiseGUI/MakiseGUI/ILI9340C/ili9340.c ****     cu = (y * gui->buffer->width)*gui->buffer->pixeldepth/32;
 360              		.loc 1 327 0
 361 0020 0068     		ldr	r0, [r0]
 362              	.LVL21:
 363 0022 C388     		ldrh	r3, [r0, #6]
 364 0024 0589     		ldrh	r5, [r0, #8]
 365 0026 05FB03F5 		mul	r5, r5, r3
 366 002a 09FB05F5 		mul	r5, r9, r5
 328:MakiseGUI/MakiseGUI/ILI9340C/ili9340.c ****     for (; y < m; y++) {	
 367              		.loc 1 328 0
 368 002e C145     		cmp	r9, r8
 327:MakiseGUI/MakiseGUI/ILI9340C/ili9340.c ****     for (; y < m; y++) {	
 369              		.loc 1 327 0
 370 0030 4FEA5515 		lsr	r5, r5, #5
 371              	.LVL22:
 372              		.loc 1 328 0
 373 0034 40D2     		bcs	.L38
 374 0036 7B89     		ldrh	r3, [r7, #10]
 375 0038 DFF884C0 		ldr	ip, .L41+4
 376              		.loc 1 328 0 is_stmt 0 discriminator 1
 377 003c 0022     		movs	r2, #0
 378              	.LVL23:
 379              	.L28:
 329:MakiseGUI/MakiseGUI/ILI9340C/ili9340.c **** 	for (x = 0; x < d->buffer_width; x+=1)
 380              		.loc 1 329 0 is_stmt 1 discriminator 1
 381 003e F3B1     		cbz	r3, .L29
 382 0040 3C69     		ldr	r4, [r7, #16]
 383 0042 D0F80CE0 		ldr	lr, [r0, #12]
 384 0046 04EB4604 		add	r4, r4, r6, lsl #1
 385              		.loc 1 329 0 is_stmt 0
 386 004a 3146     		mov	r1, r6
 387              	.LVL24:
 388              	.L27:
 330:MakiseGUI/MakiseGUI/ILI9340C/ili9340.c **** 	{
 331:MakiseGUI/MakiseGUI/ILI9340C/ili9340.c **** 	    c = clrs[((((uint32_t*)gui->buffer->buffer)[cu]) >> bu) & gui->buffer->depthmask];
ARM GAS  /tmp/ccMF4931.s 			page 14


 389              		.loc 1 331 0 is_stmt 1
 390 004c 5EF82530 		ldr	r3, [lr, r5, lsl #2]
 391 0050 90F80AB0 		ldrb	fp, [r0, #10]	@ zero_extendqisi2
 332:MakiseGUI/MakiseGUI/ILI9340C/ili9340.c **** 	    bu += gui->buffer->pixeldepth;
 392              		.loc 1 332 0
 393 0054 B0F808A0 		ldrh	r10, [r0, #8]
 331:MakiseGUI/MakiseGUI/ILI9340C/ili9340.c **** 	    bu += gui->buffer->pixeldepth;
 394              		.loc 1 331 0
 395 0058 D340     		lsrs	r3, r3, r2
 396 005a 03EA0B03 		and	r3, r3, fp
 397              		.loc 1 332 0
 398 005e 5244     		add	r2, r2, r10
 331:MakiseGUI/MakiseGUI/ILI9340C/ili9340.c **** 	    bu += gui->buffer->pixeldepth;
 399              		.loc 1 331 0
 400 0060 3CF81330 		ldrh	r3, [ip, r3, lsl #1]
 401              	.LVL25:
 333:MakiseGUI/MakiseGUI/ILI9340C/ili9340.c **** 	    if(bu>=32)
 334:MakiseGUI/MakiseGUI/ILI9340C/ili9340.c **** 	    {
 335:MakiseGUI/MakiseGUI/ILI9340C/ili9340.c **** 		bu = 0;
 336:MakiseGUI/MakiseGUI/ILI9340C/ili9340.c **** 		cu ++;
 337:MakiseGUI/MakiseGUI/ILI9340C/ili9340.c **** 	    }
 338:MakiseGUI/MakiseGUI/ILI9340C/ili9340.c **** 	    //c+=bc;
 339:MakiseGUI/MakiseGUI/ILI9340C/ili9340.c **** 	    ((uint16_t*)d->buffer)[i] = c;
 402              		.loc 1 339 0
 403 0064 24F8023B 		strh	r3, [r4], #2	@ movhi
 340:MakiseGUI/MakiseGUI/ILI9340C/ili9340.c **** 	    i+=1;
 404              		.loc 1 340 0
 405 0068 0131     		adds	r1, r1, #1
 406              	.LVL26:
 329:MakiseGUI/MakiseGUI/ILI9340C/ili9340.c **** 	{
 407              		.loc 1 329 0
 408 006a 7B89     		ldrh	r3, [r7, #10]
 409              	.LVL27:
 333:MakiseGUI/MakiseGUI/ILI9340C/ili9340.c **** 	    if(bu>=32)
 410              		.loc 1 333 0
 411 006c 1F2A     		cmp	r2, #31
 329:MakiseGUI/MakiseGUI/ILI9340C/ili9340.c **** 	{
 412              		.loc 1 329 0
 413 006e A1EB060A 		sub	r10, r1, r6
 336:MakiseGUI/MakiseGUI/ILI9340C/ili9340.c **** 	    }
 414              		.loc 1 336 0
 415 0072 84BF     		itt	hi
 416 0074 0135     		addhi	r5, r5, #1
 417              	.LVL28:
 335:MakiseGUI/MakiseGUI/ILI9340C/ili9340.c **** 		cu ++;
 418              		.loc 1 335 0
 419 0076 0022     		movhi	r2, #0
 420              	.LVL29:
 329:MakiseGUI/MakiseGUI/ILI9340C/ili9340.c **** 	{
 421              		.loc 1 329 0
 422 0078 5345     		cmp	r3, r10
 423 007a E7D8     		bhi	.L27
 424              		.loc 1 340 0
 425 007c 0E46     		mov	r6, r1
 426              	.LVL30:
 427              	.L29:
 328:MakiseGUI/MakiseGUI/ILI9340C/ili9340.c **** 	for (x = 0; x < d->buffer_width; x+=1)
ARM GAS  /tmp/ccMF4931.s 			page 15


 428              		.loc 1 328 0
 429 007e 09F10109 		add	r9, r9, #1
 430              	.LVL31:
 431 0082 C845     		cmp	r8, r9
 432 0084 DBD1     		bne	.L28
 433 0086 BDE8F08F 		pop	{r4, r5, r6, r7, r8, r9, r10, fp, pc}
 434              	.LVL32:
 435              	.L21:
 314:MakiseGUI/MakiseGUI/ILI9340C/ili9340.c ****     {
 436              		.loc 1 314 0
 437 008a 012E     		cmp	r6, #1
 438 008c 03D0     		beq	.L39
 319:MakiseGUI/MakiseGUI/ILI9340C/ili9340.c ****     {
 439              		.loc 1 319 0
 440 008e 022E     		cmp	r6, #2
 441 0090 07D0     		beq	.L40
 305:MakiseGUI/MakiseGUI/ILI9340C/ili9340.c **** 	cu, bu = 0, m;
 442              		.loc 1 305 0
 443 0092 0026     		movs	r6, #0
 444 0094 C4E7     		b	.L22
 445              	.L39:
 316:MakiseGUI/MakiseGUI/ILI9340C/ili9340.c **** 	y = d->posy;
 446              		.loc 1 316 0
 447 0096 B7F80880 		ldrh	r8, [r7, #8]
 305:MakiseGUI/MakiseGUI/ILI9340C/ili9340.c **** 	cu, bu = 0, m;
 448              		.loc 1 305 0
 449 009a 0026     		movs	r6, #0
 316:MakiseGUI/MakiseGUI/ILI9340C/ili9340.c **** 	y = d->posy;
 450              		.loc 1 316 0
 451 009c 09EB5808 		add	r8, r9, r8, lsr #1
 452              	.LVL33:
 453 00a0 BEE7     		b	.L22
 454              	.LVL34:
 455              	.L40:
 321:MakiseGUI/MakiseGUI/ILI9340C/ili9340.c **** 	y = d->posy + (d->buffer_height / 2);
 456              		.loc 1 321 0
 457 00a2 3B89     		ldrh	r3, [r7, #8]
 323:MakiseGUI/MakiseGUI/ILI9340C/ili9340.c **** 	d->posy += d->buffer_height;
 458              		.loc 1 323 0
 459 00a4 7E69     		ldr	r6, [r7, #20]
 460 00a6 4A46     		mov	r2, r9
 324:MakiseGUI/MakiseGUI/ILI9340C/ili9340.c ****     }
 461              		.loc 1 324 0
 462 00a8 1A44     		add	r2, r2, r3
 321:MakiseGUI/MakiseGUI/ILI9340C/ili9340.c **** 	y = d->posy + (d->buffer_height / 2);
 463              		.loc 1 321 0
 464 00aa 03EB0908 		add	r8, r3, r9
 465              	.LVL35:
 324:MakiseGUI/MakiseGUI/ILI9340C/ili9340.c ****     }
 466              		.loc 1 324 0
 467 00ae 7A83     		strh	r2, [r7, #26]	@ movhi
 323:MakiseGUI/MakiseGUI/ILI9340C/ili9340.c **** 	d->posy += d->buffer_height;
 468              		.loc 1 323 0
 469 00b0 B608     		lsrs	r6, r6, #2
 322:MakiseGUI/MakiseGUI/ILI9340C/ili9340.c **** 	i = d->size / 4;
 470              		.loc 1 322 0
 471 00b2 09EB5309 		add	r9, r9, r3, lsr #1
ARM GAS  /tmp/ccMF4931.s 			page 16


 472              	.LVL36:
 473 00b6 B3E7     		b	.L22
 474              	.LVL37:
 475              	.L38:
 476 00b8 BDE8F08F 		pop	{r4, r5, r6, r7, r8, r9, r10, fp, pc}
 477              	.LVL38:
 478              	.L42:
 479              		.align	2
 480              	.L41:
 481 00bc 00000000 		.word	.LANCHOR0
 482 00c0 00000000 		.word	.LANCHOR1
 483              		.cfi_endproc
 484              	.LFE140:
 486              		.section	.text.ili9340_spi_txhalfcplt,"ax",%progbits
 487              		.align	1
 488              		.p2align 2,,3
 489              		.global	ili9340_spi_txhalfcplt
 490              		.syntax unified
 491              		.thumb
 492              		.thumb_func
 493              		.fpu fpv4-sp-d16
 495              	ili9340_spi_txhalfcplt:
 496              	.LFB138:
 283:MakiseGUI/MakiseGUI/ILI9340C/ili9340.c ****     HAL_GPIO_TogglePin(GPIOB, GPIO_PIN_4);
 497              		.loc 1 283 0
 498              		.cfi_startproc
 499              		@ args = 0, pretend = 0, frame = 0
 500              		@ frame_needed = 0, uses_anonymous_args = 0
 501              	.LVL39:
 502 0000 10B5     		push	{r4, lr}
 503              	.LCFI3:
 504              		.cfi_def_cfa_offset 8
 505              		.cfi_offset 4, -8
 506              		.cfi_offset 14, -4
 283:MakiseGUI/MakiseGUI/ILI9340C/ili9340.c ****     HAL_GPIO_TogglePin(GPIOB, GPIO_PIN_4);
 507              		.loc 1 283 0
 508 0002 0446     		mov	r4, r0
 284:MakiseGUI/MakiseGUI/ILI9340C/ili9340.c ****     ili_f = 1;
 509              		.loc 1 284 0
 510 0004 1021     		movs	r1, #16
 511 0006 0948     		ldr	r0, .L46
 512              	.LVL40:
 513 0008 FFF7FEFF 		bl	HAL_GPIO_TogglePin
 514              	.LVL41:
 286:MakiseGUI/MakiseGUI/ILI9340C/ili9340.c **** 	ili9340_render(d->gui);
 515              		.loc 1 286 0
 516 000c 628B     		ldrh	r2, [r4, #26]
 517 000e A388     		ldrh	r3, [r4, #4]
 285:MakiseGUI/MakiseGUI/ILI9340C/ili9340.c ****     if(d->posy < d->lcd_height)
 518              		.loc 1 285 0
 519 0010 0749     		ldr	r1, .L46+4
 520 0012 0120     		movs	r0, #1
 286:MakiseGUI/MakiseGUI/ILI9340C/ili9340.c **** 	ili9340_render(d->gui);
 521              		.loc 1 286 0
 522 0014 9A42     		cmp	r2, r3
 285:MakiseGUI/MakiseGUI/ILI9340C/ili9340.c ****     if(d->posy < d->lcd_height)
 523              		.loc 1 285 0
ARM GAS  /tmp/ccMF4931.s 			page 17


 524 0016 0870     		strb	r0, [r1]
 286:MakiseGUI/MakiseGUI/ILI9340C/ili9340.c **** 	ili9340_render(d->gui);
 525              		.loc 1 286 0
 526 0018 02D2     		bcs	.L44
 287:MakiseGUI/MakiseGUI/ILI9340C/ili9340.c ****     HAL_GPIO_TogglePin(GPIOB, GPIO_PIN_4);
 527              		.loc 1 287 0
 528 001a 2068     		ldr	r0, [r4]
 529 001c FFF7FEFF 		bl	ili9340_render
 530              	.LVL42:
 531              	.L44:
 288:MakiseGUI/MakiseGUI/ILI9340C/ili9340.c **** }
 532              		.loc 1 288 0
 533 0020 0248     		ldr	r0, .L46
 534 0022 1021     		movs	r1, #16
 535 0024 FFF7FEFF 		bl	HAL_GPIO_TogglePin
 536              	.LVL43:
 289:MakiseGUI/MakiseGUI/ILI9340C/ili9340.c **** uint8_t ili9340_spi_txcplt(MakiseDriver* driver)
 537              		.loc 1 289 0
 538 0028 10BD     		pop	{r4, pc}
 539              	.LVL44:
 540              	.L47:
 541 002a 00BF     		.align	2
 542              	.L46:
 543 002c 00040240 		.word	1073873920
 544 0030 00000000 		.word	.LANCHOR0
 545              		.cfi_endproc
 546              	.LFE138:
 548              		.section	.text.ili9340_write_data,"ax",%progbits
 549              		.align	1
 550              		.p2align 2,,3
 551              		.global	ili9340_write_data
 552              		.syntax unified
 553              		.thumb
 554              		.thumb_func
 555              		.fpu fpv4-sp-d16
 557              	ili9340_write_data:
 558              	.LFB141:
 341:MakiseGUI/MakiseGUI/ILI9340C/ili9340.c **** 	}
 342:MakiseGUI/MakiseGUI/ILI9340C/ili9340.c ****     }
 343:MakiseGUI/MakiseGUI/ILI9340C/ili9340.c **** }
 344:MakiseGUI/MakiseGUI/ILI9340C/ili9340.c **** 
 345:MakiseGUI/MakiseGUI/ILI9340C/ili9340.c **** 
 346:MakiseGUI/MakiseGUI/ILI9340C/ili9340.c **** uint8_t ili9340_write_data(uint8_t d)
 347:MakiseGUI/MakiseGUI/ILI9340C/ili9340.c **** {
 559              		.loc 1 347 0
 560              		.cfi_startproc
 561              		@ args = 0, pretend = 0, frame = 8
 562              		@ frame_needed = 0, uses_anonymous_args = 0
 563              	.LVL45:
 564 0000 10B5     		push	{r4, lr}
 565              	.LCFI4:
 566              		.cfi_def_cfa_offset 8
 567              		.cfi_offset 4, -8
 568              		.cfi_offset 14, -4
 569 0002 82B0     		sub	sp, sp, #8
 570              	.LCFI5:
 571              		.cfi_def_cfa_offset 16
ARM GAS  /tmp/ccMF4931.s 			page 18


 572              		.loc 1 347 0
 573 0004 02AC     		add	r4, sp, #8
 574              	.LBB38:
 575              	.LBB39:
   8:MakiseGUI/MakiseGUI/ILI9340C/ili9340.c **** 
 576              		.loc 1 8 0
 577 0006 0122     		movs	r2, #1
 578              	.LBE39:
 579              	.LBE38:
 580              		.loc 1 347 0
 581 0008 04F8010D 		strb	r0, [r4, #-1]!
 582              	.LBB41:
 583              	.LBB40:
   8:MakiseGUI/MakiseGUI/ILI9340C/ili9340.c **** 
 584              		.loc 1 8 0
 585 000c 1021     		movs	r1, #16
 586 000e 0548     		ldr	r0, .L50
 587              	.LVL46:
 588 0010 FFF7FEFF 		bl	HAL_GPIO_WritePin
 589              	.LVL47:
 590              	.LBE40:
 591              	.LBE41:
 348:MakiseGUI/MakiseGUI/ILI9340C/ili9340.c ****     _ili9340_dc(1);
 349:MakiseGUI/MakiseGUI/ILI9340C/ili9340.c **** 
 350:MakiseGUI/MakiseGUI/ILI9340C/ili9340.c ****     HAL_SPI_Transmit(&ILI9340_SPI, &d, 1, 10);
 592              		.loc 1 350 0
 593 0014 2146     		mov	r1, r4
 594 0016 0A23     		movs	r3, #10
 595 0018 0122     		movs	r2, #1
 596 001a 0348     		ldr	r0, .L50+4
 597 001c FFF7FEFF 		bl	HAL_SPI_Transmit
 598              	.LVL48:
 351:MakiseGUI/MakiseGUI/ILI9340C/ili9340.c **** }
 599              		.loc 1 351 0
 600 0020 02B0     		add	sp, sp, #8
 601              	.LCFI6:
 602              		.cfi_def_cfa_offset 8
 603              		@ sp needed
 604 0022 10BD     		pop	{r4, pc}
 605              	.L51:
 606              		.align	2
 607              	.L50:
 608 0024 00080240 		.word	1073874944
 609 0028 00000000 		.word	hspi1
 610              		.cfi_endproc
 611              	.LFE141:
 613              		.section	.text.ili9340_write_command,"ax",%progbits
 614              		.align	1
 615              		.p2align 2,,3
 616              		.global	ili9340_write_command
 617              		.syntax unified
 618              		.thumb
 619              		.thumb_func
 620              		.fpu fpv4-sp-d16
 622              	ili9340_write_command:
 623              	.LFB142:
 352:MakiseGUI/MakiseGUI/ILI9340C/ili9340.c **** 
ARM GAS  /tmp/ccMF4931.s 			page 19


 353:MakiseGUI/MakiseGUI/ILI9340C/ili9340.c **** uint8_t ili9340_write_command(uint8_t c)
 354:MakiseGUI/MakiseGUI/ILI9340C/ili9340.c **** {
 624              		.loc 1 354 0
 625              		.cfi_startproc
 626              		@ args = 0, pretend = 0, frame = 8
 627              		@ frame_needed = 0, uses_anonymous_args = 0
 628              	.LVL49:
 629 0000 10B5     		push	{r4, lr}
 630              	.LCFI7:
 631              		.cfi_def_cfa_offset 8
 632              		.cfi_offset 4, -8
 633              		.cfi_offset 14, -4
 634 0002 82B0     		sub	sp, sp, #8
 635              	.LCFI8:
 636              		.cfi_def_cfa_offset 16
 637              		.loc 1 354 0
 638 0004 02AC     		add	r4, sp, #8
 639              	.LBB42:
 640              	.LBB43:
   8:MakiseGUI/MakiseGUI/ILI9340C/ili9340.c **** 
 641              		.loc 1 8 0
 642 0006 0022     		movs	r2, #0
 643              	.LBE43:
 644              	.LBE42:
 645              		.loc 1 354 0
 646 0008 04F8010D 		strb	r0, [r4, #-1]!
 647              	.LBB45:
 648              	.LBB44:
   8:MakiseGUI/MakiseGUI/ILI9340C/ili9340.c **** 
 649              		.loc 1 8 0
 650 000c 1021     		movs	r1, #16
 651 000e 0548     		ldr	r0, .L54
 652              	.LVL50:
 653 0010 FFF7FEFF 		bl	HAL_GPIO_WritePin
 654              	.LVL51:
 655              	.LBE44:
 656              	.LBE45:
 355:MakiseGUI/MakiseGUI/ILI9340C/ili9340.c ****     _ili9340_dc(0);
 356:MakiseGUI/MakiseGUI/ILI9340C/ili9340.c **** 
 357:MakiseGUI/MakiseGUI/ILI9340C/ili9340.c ****     HAL_SPI_Transmit(&ILI9340_SPI, &c, 1, 10);
 657              		.loc 1 357 0
 658 0014 2146     		mov	r1, r4
 659 0016 0A23     		movs	r3, #10
 660 0018 0122     		movs	r2, #1
 661 001a 0348     		ldr	r0, .L54+4
 662 001c FFF7FEFF 		bl	HAL_SPI_Transmit
 663              	.LVL52:
 358:MakiseGUI/MakiseGUI/ILI9340C/ili9340.c ****     
 359:MakiseGUI/MakiseGUI/ILI9340C/ili9340.c **** }
 664              		.loc 1 359 0
 665 0020 02B0     		add	sp, sp, #8
 666              	.LCFI9:
 667              		.cfi_def_cfa_offset 8
 668              		@ sp needed
 669 0022 10BD     		pop	{r4, pc}
 670              	.L55:
 671              		.align	2
ARM GAS  /tmp/ccMF4931.s 			page 20


 672              	.L54:
 673 0024 00080240 		.word	1073874944
 674 0028 00000000 		.word	hspi1
 675              		.cfi_endproc
 676              	.LFE142:
 678              		.section	.text.ili9340_init,"ax",%progbits
 679              		.align	1
 680              		.p2align 2,,3
 681              		.global	ili9340_init
 682              		.syntax unified
 683              		.thumb
 684              		.thumb_func
 685              		.fpu fpv4-sp-d16
 687              	ili9340_init:
 688              	.LFB131:
  31:MakiseGUI/MakiseGUI/ILI9340C/ili9340.c ****     _ili9340_rst(1);
 689              		.loc 1 31 0
 690              		.cfi_startproc
 691              		@ args = 0, pretend = 0, frame = 0
 692              		@ frame_needed = 0, uses_anonymous_args = 0
 693              	.LVL53:
 694 0000 10B5     		push	{r4, lr}
 695              	.LCFI10:
 696              		.cfi_def_cfa_offset 8
 697              		.cfi_offset 4, -8
 698              		.cfi_offset 14, -4
 699              	.LBB46:
 700              	.LBB47:
   6:MakiseGUI/MakiseGUI/ILI9340C/ili9340.c **** extern inline void _ili9340_cs(uint8_t st){HAL_GPIO_WritePin(ILI9340_CS, st ? GPIO_PIN_SET : GPIO_P
 701              		.loc 1 6 0
 702 0002 A84C     		ldr	r4, .L58
 703 0004 0122     		movs	r2, #1
 704 0006 2046     		mov	r0, r4
 705              	.LVL54:
 706 0008 2021     		movs	r1, #32
 707 000a FFF7FEFF 		bl	HAL_GPIO_WritePin
 708              	.LVL55:
 709              	.LBE47:
 710              	.LBE46:
 711              	.LBB48:
 712              	.LBB49:
   5:MakiseGUI/MakiseGUI/ILI9340C/ili9340.c **** extern inline void _ili9340_rst(uint8_t st){HAL_GPIO_WritePin(ILI9340_RST, st ? GPIO_PIN_SET : GPIO
 713              		.loc 1 5 0
 714 000e 0520     		movs	r0, #5
 715 0010 FFF7FEFF 		bl	HAL_Delay
 716              	.LVL56:
 717              	.LBE49:
 718              	.LBE48:
 719              	.LBB50:
 720              	.LBB51:
   6:MakiseGUI/MakiseGUI/ILI9340C/ili9340.c **** extern inline void _ili9340_cs(uint8_t st){HAL_GPIO_WritePin(ILI9340_CS, st ? GPIO_PIN_SET : GPIO_P
 721              		.loc 1 6 0
 722 0014 2046     		mov	r0, r4
 723 0016 0022     		movs	r2, #0
 724 0018 2021     		movs	r1, #32
 725 001a FFF7FEFF 		bl	HAL_GPIO_WritePin
 726              	.LVL57:
ARM GAS  /tmp/ccMF4931.s 			page 21


 727              	.LBE51:
 728              	.LBE50:
 729              	.LBB52:
 730              	.LBB53:
   5:MakiseGUI/MakiseGUI/ILI9340C/ili9340.c **** extern inline void _ili9340_rst(uint8_t st){HAL_GPIO_WritePin(ILI9340_RST, st ? GPIO_PIN_SET : GPIO
 731              		.loc 1 5 0
 732 001e 1420     		movs	r0, #20
 733 0020 FFF7FEFF 		bl	HAL_Delay
 734              	.LVL58:
 735              	.LBE53:
 736              	.LBE52:
 737              	.LBB54:
 738              	.LBB55:
   6:MakiseGUI/MakiseGUI/ILI9340C/ili9340.c **** extern inline void _ili9340_cs(uint8_t st){HAL_GPIO_WritePin(ILI9340_CS, st ? GPIO_PIN_SET : GPIO_P
 739              		.loc 1 6 0
 740 0024 0122     		movs	r2, #1
 741 0026 2021     		movs	r1, #32
 742 0028 2046     		mov	r0, r4
 743 002a FFF7FEFF 		bl	HAL_GPIO_WritePin
 744              	.LVL59:
 745              	.LBE55:
 746              	.LBE54:
 747              	.LBB56:
 748              	.LBB57:
   5:MakiseGUI/MakiseGUI/ILI9340C/ili9340.c **** extern inline void _ili9340_rst(uint8_t st){HAL_GPIO_WritePin(ILI9340_RST, st ? GPIO_PIN_SET : GPIO
 749              		.loc 1 5 0
 750 002e 9620     		movs	r0, #150
 751 0030 FFF7FEFF 		bl	HAL_Delay
 752              	.LVL60:
 753              	.LBE57:
 754              	.LBE56:
  39:MakiseGUI/MakiseGUI/ILI9340C/ili9340.c ****     _ili9340_delay(5);
 755              		.loc 1 39 0
 756 0034 0120     		movs	r0, #1
 757 0036 FFF7FEFF 		bl	ili9340_write_command
 758              	.LVL61:
 759              	.LBB58:
 760              	.LBB59:
   5:MakiseGUI/MakiseGUI/ILI9340C/ili9340.c **** extern inline void _ili9340_rst(uint8_t st){HAL_GPIO_WritePin(ILI9340_RST, st ? GPIO_PIN_SET : GPIO
 761              		.loc 1 5 0
 762 003a 0520     		movs	r0, #5
 763 003c FFF7FEFF 		bl	HAL_Delay
 764              	.LVL62:
 765              	.LBE59:
 766              	.LBE58:
  41:MakiseGUI/MakiseGUI/ILI9340C/ili9340.c ****     // display off
 767              		.loc 1 41 0
 768 0040 2820     		movs	r0, #40
 769 0042 FFF7FEFF 		bl	ili9340_write_command
 770              	.LVL63:
  45:MakiseGUI/MakiseGUI/ILI9340C/ili9340.c ****     ili9340_write_data(0x00);
 771              		.loc 1 45 0
 772 0046 CF20     		movs	r0, #207
 773 0048 FFF7FEFF 		bl	ili9340_write_command
 774              	.LVL64:
  46:MakiseGUI/MakiseGUI/ILI9340C/ili9340.c ****     ili9340_write_data(0x83);
 775              		.loc 1 46 0
ARM GAS  /tmp/ccMF4931.s 			page 22


 776 004c 0020     		movs	r0, #0
 777 004e FFF7FEFF 		bl	ili9340_write_data
 778              	.LVL65:
  47:MakiseGUI/MakiseGUI/ILI9340C/ili9340.c ****     ili9340_write_data(0x30);
 779              		.loc 1 47 0
 780 0052 8320     		movs	r0, #131
 781 0054 FFF7FEFF 		bl	ili9340_write_data
 782              	.LVL66:
  48:MakiseGUI/MakiseGUI/ILI9340C/ili9340.c **** 
 783              		.loc 1 48 0
 784 0058 3020     		movs	r0, #48
 785 005a FFF7FEFF 		bl	ili9340_write_data
 786              	.LVL67:
  50:MakiseGUI/MakiseGUI/ILI9340C/ili9340.c ****     ili9340_write_data(0x64);
 787              		.loc 1 50 0
 788 005e ED20     		movs	r0, #237
 789 0060 FFF7FEFF 		bl	ili9340_write_command
 790              	.LVL68:
  51:MakiseGUI/MakiseGUI/ILI9340C/ili9340.c ****     ili9340_write_data(0x03);
 791              		.loc 1 51 0
 792 0064 6420     		movs	r0, #100
 793 0066 FFF7FEFF 		bl	ili9340_write_data
 794              	.LVL69:
  52:MakiseGUI/MakiseGUI/ILI9340C/ili9340.c ****     ili9340_write_data(0x12);
 795              		.loc 1 52 0
 796 006a 0320     		movs	r0, #3
 797 006c FFF7FEFF 		bl	ili9340_write_data
 798              	.LVL70:
  53:MakiseGUI/MakiseGUI/ILI9340C/ili9340.c ****     ili9340_write_data(0x81);
 799              		.loc 1 53 0
 800 0070 1220     		movs	r0, #18
 801 0072 FFF7FEFF 		bl	ili9340_write_data
 802              	.LVL71:
  54:MakiseGUI/MakiseGUI/ILI9340C/ili9340.c ****     ili9340_write_command(0xe8);
 803              		.loc 1 54 0
 804 0076 8120     		movs	r0, #129
 805 0078 FFF7FEFF 		bl	ili9340_write_data
 806              	.LVL72:
  55:MakiseGUI/MakiseGUI/ILI9340C/ili9340.c ****     ili9340_write_data(0x85);
 807              		.loc 1 55 0
 808 007c E820     		movs	r0, #232
 809 007e FFF7FEFF 		bl	ili9340_write_command
 810              	.LVL73:
  56:MakiseGUI/MakiseGUI/ILI9340C/ili9340.c ****     ili9340_write_data(0x01);
 811              		.loc 1 56 0
 812 0082 8520     		movs	r0, #133
 813 0084 FFF7FEFF 		bl	ili9340_write_data
 814              	.LVL74:
  57:MakiseGUI/MakiseGUI/ILI9340C/ili9340.c ****     ili9340_write_data(0x79);
 815              		.loc 1 57 0
 816 0088 0120     		movs	r0, #1
 817 008a FFF7FEFF 		bl	ili9340_write_data
 818              	.LVL75:
  58:MakiseGUI/MakiseGUI/ILI9340C/ili9340.c ****     ili9340_write_command(0xcb);
 819              		.loc 1 58 0
 820 008e 7920     		movs	r0, #121
 821 0090 FFF7FEFF 		bl	ili9340_write_data
ARM GAS  /tmp/ccMF4931.s 			page 23


 822              	.LVL76:
  59:MakiseGUI/MakiseGUI/ILI9340C/ili9340.c ****     ili9340_write_data(0x39);
 823              		.loc 1 59 0
 824 0094 CB20     		movs	r0, #203
 825 0096 FFF7FEFF 		bl	ili9340_write_command
 826              	.LVL77:
  60:MakiseGUI/MakiseGUI/ILI9340C/ili9340.c ****     ili9340_write_data(0x2c);
 827              		.loc 1 60 0
 828 009a 3920     		movs	r0, #57
 829 009c FFF7FEFF 		bl	ili9340_write_data
 830              	.LVL78:
  61:MakiseGUI/MakiseGUI/ILI9340C/ili9340.c ****     ili9340_write_data(0x00);
 831              		.loc 1 61 0
 832 00a0 2C20     		movs	r0, #44
 833 00a2 FFF7FEFF 		bl	ili9340_write_data
 834              	.LVL79:
  62:MakiseGUI/MakiseGUI/ILI9340C/ili9340.c ****     ili9340_write_data(0x34);
 835              		.loc 1 62 0
 836 00a6 0020     		movs	r0, #0
 837 00a8 FFF7FEFF 		bl	ili9340_write_data
 838              	.LVL80:
  63:MakiseGUI/MakiseGUI/ILI9340C/ili9340.c ****     ili9340_write_data(0x02);
 839              		.loc 1 63 0
 840 00ac 3420     		movs	r0, #52
 841 00ae FFF7FEFF 		bl	ili9340_write_data
 842              	.LVL81:
  64:MakiseGUI/MakiseGUI/ILI9340C/ili9340.c ****     ili9340_write_command(0xf7);
 843              		.loc 1 64 0
 844 00b2 0220     		movs	r0, #2
 845 00b4 FFF7FEFF 		bl	ili9340_write_data
 846              	.LVL82:
  65:MakiseGUI/MakiseGUI/ILI9340C/ili9340.c ****     ili9340_write_data(0x20);
 847              		.loc 1 65 0
 848 00b8 F720     		movs	r0, #247
 849 00ba FFF7FEFF 		bl	ili9340_write_command
 850              	.LVL83:
  66:MakiseGUI/MakiseGUI/ILI9340C/ili9340.c ****     ili9340_write_command(0xea);
 851              		.loc 1 66 0
 852 00be 2020     		movs	r0, #32
 853 00c0 FFF7FEFF 		bl	ili9340_write_data
 854              	.LVL84:
  67:MakiseGUI/MakiseGUI/ILI9340C/ili9340.c ****     ili9340_write_data(0x00);
 855              		.loc 1 67 0
 856 00c4 EA20     		movs	r0, #234
 857 00c6 FFF7FEFF 		bl	ili9340_write_command
 858              	.LVL85:
  68:MakiseGUI/MakiseGUI/ILI9340C/ili9340.c ****     ili9340_write_data(0x00);
 859              		.loc 1 68 0
 860 00ca 0020     		movs	r0, #0
 861 00cc FFF7FEFF 		bl	ili9340_write_data
 862              	.LVL86:
  69:MakiseGUI/MakiseGUI/ILI9340C/ili9340.c ****     //------------power control------------------------------
 863              		.loc 1 69 0
 864 00d0 0020     		movs	r0, #0
 865 00d2 FFF7FEFF 		bl	ili9340_write_data
 866              	.LVL87:
  71:MakiseGUI/MakiseGUI/ILI9340C/ili9340.c ****     ili9340_write_data(0x26);
ARM GAS  /tmp/ccMF4931.s 			page 24


 867              		.loc 1 71 0
 868 00d6 C020     		movs	r0, #192
 869 00d8 FFF7FEFF 		bl	ili9340_write_command
 870              	.LVL88:
  72:MakiseGUI/MakiseGUI/ILI9340C/ili9340.c ****     ili9340_write_command(0xc1); //power control
 871              		.loc 1 72 0
 872 00dc 2620     		movs	r0, #38
 873 00de FFF7FEFF 		bl	ili9340_write_data
 874              	.LVL89:
  73:MakiseGUI/MakiseGUI/ILI9340C/ili9340.c ****     ili9340_write_data(0x11);
 875              		.loc 1 73 0
 876 00e2 C120     		movs	r0, #193
 877 00e4 FFF7FEFF 		bl	ili9340_write_command
 878              	.LVL90:
  74:MakiseGUI/MakiseGUI/ILI9340C/ili9340.c ****     //--------------VCOM
 879              		.loc 1 74 0
 880 00e8 1120     		movs	r0, #17
 881 00ea FFF7FEFF 		bl	ili9340_write_data
 882              	.LVL91:
  76:MakiseGUI/MakiseGUI/ILI9340C/ili9340.c ****     ili9340_write_data(0x35);//35
 883              		.loc 1 76 0
 884 00ee C520     		movs	r0, #197
 885 00f0 FFF7FEFF 		bl	ili9340_write_command
 886              	.LVL92:
  77:MakiseGUI/MakiseGUI/ILI9340C/ili9340.c ****     ili9340_write_data(0x3e);//3E
 887              		.loc 1 77 0
 888 00f4 3520     		movs	r0, #53
 889 00f6 FFF7FEFF 		bl	ili9340_write_data
 890              	.LVL93:
  78:MakiseGUI/MakiseGUI/ILI9340C/ili9340.c ****     ili9340_write_command(0xc7); //vcom control
 891              		.loc 1 78 0
 892 00fa 3E20     		movs	r0, #62
 893 00fc FFF7FEFF 		bl	ili9340_write_data
 894              	.LVL94:
  79:MakiseGUI/MakiseGUI/ILI9340C/ili9340.c ****     ili9340_write_data(0xbe); // 0x94
 895              		.loc 1 79 0
 896 0100 C720     		movs	r0, #199
 897 0102 FFF7FEFF 		bl	ili9340_write_command
 898              	.LVL95:
  80:MakiseGUI/MakiseGUI/ILI9340C/ili9340.c ****     //------------memory access control------------------------
 899              		.loc 1 80 0
 900 0106 BE20     		movs	r0, #190
 901 0108 FFF7FEFF 		bl	ili9340_write_data
 902              	.LVL96:
  82:MakiseGUI/MakiseGUI/ILI9340C/ili9340.c ****     // memory access control
 903              		.loc 1 82 0
 904 010c 3620     		movs	r0, #54
 905 010e FFF7FEFF 		bl	ili9340_write_command
 906              	.LVL97:
  84:MakiseGUI/MakiseGUI/ILI9340C/ili9340.c ****     ili9340_write_command(0x3a); // pixel format set
 907              		.loc 1 84 0
 908 0112 4820     		movs	r0, #72
 909 0114 FFF7FEFF 		bl	ili9340_write_data
 910              	.LVL98:
  85:MakiseGUI/MakiseGUI/ILI9340C/ili9340.c ****     ili9340_write_data(0x55);//16bit /pixel
 911              		.loc 1 85 0
 912 0118 3A20     		movs	r0, #58
ARM GAS  /tmp/ccMF4931.s 			page 25


 913 011a FFF7FEFF 		bl	ili9340_write_command
 914              	.LVL99:
  86:MakiseGUI/MakiseGUI/ILI9340C/ili9340.c ****     //----------------- frame rate------------------------------
 915              		.loc 1 86 0
 916 011e 5520     		movs	r0, #85
 917 0120 FFF7FEFF 		bl	ili9340_write_data
 918              	.LVL100:
  88:MakiseGUI/MakiseGUI/ILI9340C/ili9340.c ****     // frame rate
 919              		.loc 1 88 0
 920 0124 B120     		movs	r0, #177
 921 0126 FFF7FEFF 		bl	ili9340_write_command
 922              	.LVL101:
  90:MakiseGUI/MakiseGUI/ILI9340C/ili9340.c ****     ili9340_write_data(0x1B); //70
 923              		.loc 1 90 0
 924 012a 0020     		movs	r0, #0
 925 012c FFF7FEFF 		bl	ili9340_write_data
 926              	.LVL102:
  91:MakiseGUI/MakiseGUI/ILI9340C/ili9340.c ****     //----------------Gamma---------------------------------
 927              		.loc 1 91 0
 928 0130 1B20     		movs	r0, #27
 929 0132 FFF7FEFF 		bl	ili9340_write_data
 930              	.LVL103:
  93:MakiseGUI/MakiseGUI/ILI9340C/ili9340.c ****     ili9340_write_data(0x08);
 931              		.loc 1 93 0
 932 0136 F220     		movs	r0, #242
 933 0138 FFF7FEFF 		bl	ili9340_write_command
 934              	.LVL104:
  94:MakiseGUI/MakiseGUI/ILI9340C/ili9340.c ****     ili9340_write_command(0x26);
 935              		.loc 1 94 0
 936 013c 0820     		movs	r0, #8
 937 013e FFF7FEFF 		bl	ili9340_write_data
 938              	.LVL105:
  95:MakiseGUI/MakiseGUI/ILI9340C/ili9340.c ****     ili9340_write_data(0x02); // gamma set 4 gamma curve 01/02/04/08
 939              		.loc 1 95 0
 940 0142 2620     		movs	r0, #38
 941 0144 FFF7FEFF 		bl	ili9340_write_command
 942              	.LVL106:
  96:MakiseGUI/MakiseGUI/ILI9340C/ili9340.c **** 
 943              		.loc 1 96 0
 944 0148 0220     		movs	r0, #2
 945 014a FFF7FEFF 		bl	ili9340_write_data
 946              	.LVL107:
  98:MakiseGUI/MakiseGUI/ILI9340C/ili9340.c ****     ili9340_write_data(0x0F); 
 947              		.loc 1 98 0
 948 014e E020     		movs	r0, #224
 949 0150 FFF7FEFF 		bl	ili9340_write_command
 950              	.LVL108:
  99:MakiseGUI/MakiseGUI/ILI9340C/ili9340.c ****     ili9340_write_data(0x31); 
 951              		.loc 1 99 0
 952 0154 0F20     		movs	r0, #15
 953 0156 FFF7FEFF 		bl	ili9340_write_data
 954              	.LVL109:
 100:MakiseGUI/MakiseGUI/ILI9340C/ili9340.c ****     ili9340_write_data(0x2B); 
 955              		.loc 1 100 0
 956 015a 3120     		movs	r0, #49
 957 015c FFF7FEFF 		bl	ili9340_write_data
 958              	.LVL110:
ARM GAS  /tmp/ccMF4931.s 			page 26


 101:MakiseGUI/MakiseGUI/ILI9340C/ili9340.c ****     ili9340_write_data(0x0C); 
 959              		.loc 1 101 0
 960 0160 2B20     		movs	r0, #43
 961 0162 FFF7FEFF 		bl	ili9340_write_data
 962              	.LVL111:
 102:MakiseGUI/MakiseGUI/ILI9340C/ili9340.c ****     ili9340_write_data(0x0E); 
 963              		.loc 1 102 0
 964 0166 0C20     		movs	r0, #12
 965 0168 FFF7FEFF 		bl	ili9340_write_data
 966              	.LVL112:
 103:MakiseGUI/MakiseGUI/ILI9340C/ili9340.c ****     ili9340_write_data(0x08); 
 967              		.loc 1 103 0
 968 016c 0E20     		movs	r0, #14
 969 016e FFF7FEFF 		bl	ili9340_write_data
 970              	.LVL113:
 104:MakiseGUI/MakiseGUI/ILI9340C/ili9340.c ****     ili9340_write_data(0x4E); 
 971              		.loc 1 104 0
 972 0172 0820     		movs	r0, #8
 973 0174 FFF7FEFF 		bl	ili9340_write_data
 974              	.LVL114:
 105:MakiseGUI/MakiseGUI/ILI9340C/ili9340.c ****     ili9340_write_data(0xF1); 
 975              		.loc 1 105 0
 976 0178 4E20     		movs	r0, #78
 977 017a FFF7FEFF 		bl	ili9340_write_data
 978              	.LVL115:
 106:MakiseGUI/MakiseGUI/ILI9340C/ili9340.c ****     ili9340_write_data(0x37); 
 979              		.loc 1 106 0
 980 017e F120     		movs	r0, #241
 981 0180 FFF7FEFF 		bl	ili9340_write_data
 982              	.LVL116:
 107:MakiseGUI/MakiseGUI/ILI9340C/ili9340.c ****     ili9340_write_data(0x07); 
 983              		.loc 1 107 0
 984 0184 3720     		movs	r0, #55
 985 0186 FFF7FEFF 		bl	ili9340_write_data
 986              	.LVL117:
 108:MakiseGUI/MakiseGUI/ILI9340C/ili9340.c ****     ili9340_write_data(0x10); 
 987              		.loc 1 108 0
 988 018a 0720     		movs	r0, #7
 989 018c FFF7FEFF 		bl	ili9340_write_data
 990              	.LVL118:
 109:MakiseGUI/MakiseGUI/ILI9340C/ili9340.c ****     ili9340_write_data(0x03); 
 991              		.loc 1 109 0
 992 0190 1020     		movs	r0, #16
 993 0192 FFF7FEFF 		bl	ili9340_write_data
 994              	.LVL119:
 110:MakiseGUI/MakiseGUI/ILI9340C/ili9340.c ****     ili9340_write_data(0x0E); 
 995              		.loc 1 110 0
 996 0196 0320     		movs	r0, #3
 997 0198 FFF7FEFF 		bl	ili9340_write_data
 998              	.LVL120:
 111:MakiseGUI/MakiseGUI/ILI9340C/ili9340.c ****     ili9340_write_data(0x09); 
 999              		.loc 1 111 0
 1000 019c 0E20     		movs	r0, #14
 1001 019e FFF7FEFF 		bl	ili9340_write_data
 1002              	.LVL121:
 112:MakiseGUI/MakiseGUI/ILI9340C/ili9340.c ****     ili9340_write_data(0x00); 
 1003              		.loc 1 112 0
ARM GAS  /tmp/ccMF4931.s 			page 27


 1004 01a2 0920     		movs	r0, #9
 1005 01a4 FFF7FEFF 		bl	ili9340_write_data
 1006              	.LVL122:
 113:MakiseGUI/MakiseGUI/ILI9340C/ili9340.c ****     ili9340_write_command(0xE1); //negamma correction
 1007              		.loc 1 113 0
 1008 01a8 0020     		movs	r0, #0
 1009 01aa FFF7FEFF 		bl	ili9340_write_data
 1010              	.LVL123:
 114:MakiseGUI/MakiseGUI/ILI9340C/ili9340.c ****     ili9340_write_data(0x00); 
 1011              		.loc 1 114 0
 1012 01ae E120     		movs	r0, #225
 1013 01b0 FFF7FEFF 		bl	ili9340_write_command
 1014              	.LVL124:
 115:MakiseGUI/MakiseGUI/ILI9340C/ili9340.c ****     ili9340_write_data(0x0E); 
 1015              		.loc 1 115 0
 1016 01b4 0020     		movs	r0, #0
 1017 01b6 FFF7FEFF 		bl	ili9340_write_data
 1018              	.LVL125:
 116:MakiseGUI/MakiseGUI/ILI9340C/ili9340.c ****     ili9340_write_data(0x14); 
 1019              		.loc 1 116 0
 1020 01ba 0E20     		movs	r0, #14
 1021 01bc FFF7FEFF 		bl	ili9340_write_data
 1022              	.LVL126:
 117:MakiseGUI/MakiseGUI/ILI9340C/ili9340.c ****     ili9340_write_data(0x03); 
 1023              		.loc 1 117 0
 1024 01c0 1420     		movs	r0, #20
 1025 01c2 FFF7FEFF 		bl	ili9340_write_data
 1026              	.LVL127:
 118:MakiseGUI/MakiseGUI/ILI9340C/ili9340.c ****     ili9340_write_data(0x11); 
 1027              		.loc 1 118 0
 1028 01c6 0320     		movs	r0, #3
 1029 01c8 FFF7FEFF 		bl	ili9340_write_data
 1030              	.LVL128:
 119:MakiseGUI/MakiseGUI/ILI9340C/ili9340.c ****     ili9340_write_data(0x07); 
 1031              		.loc 1 119 0
 1032 01cc 1120     		movs	r0, #17
 1033 01ce FFF7FEFF 		bl	ili9340_write_data
 1034              	.LVL129:
 120:MakiseGUI/MakiseGUI/ILI9340C/ili9340.c ****     ili9340_write_data(0x31); 
 1035              		.loc 1 120 0
 1036 01d2 0720     		movs	r0, #7
 1037 01d4 FFF7FEFF 		bl	ili9340_write_data
 1038              	.LVL130:
 121:MakiseGUI/MakiseGUI/ILI9340C/ili9340.c ****     ili9340_write_data(0xC1); 
 1039              		.loc 1 121 0
 1040 01d8 3120     		movs	r0, #49
 1041 01da FFF7FEFF 		bl	ili9340_write_data
 1042              	.LVL131:
 122:MakiseGUI/MakiseGUI/ILI9340C/ili9340.c ****     ili9340_write_data(0x48); 
 1043              		.loc 1 122 0
 1044 01de C120     		movs	r0, #193
 1045 01e0 FFF7FEFF 		bl	ili9340_write_data
 1046              	.LVL132:
 123:MakiseGUI/MakiseGUI/ILI9340C/ili9340.c ****     ili9340_write_data(0x08); 
 1047              		.loc 1 123 0
 1048 01e4 4820     		movs	r0, #72
 1049 01e6 FFF7FEFF 		bl	ili9340_write_data
ARM GAS  /tmp/ccMF4931.s 			page 28


 1050              	.LVL133:
 124:MakiseGUI/MakiseGUI/ILI9340C/ili9340.c ****     ili9340_write_data(0x0F); 
 1051              		.loc 1 124 0
 1052 01ea 0820     		movs	r0, #8
 1053 01ec FFF7FEFF 		bl	ili9340_write_data
 1054              	.LVL134:
 125:MakiseGUI/MakiseGUI/ILI9340C/ili9340.c ****     ili9340_write_data(0x0C); 
 1055              		.loc 1 125 0
 1056 01f0 0F20     		movs	r0, #15
 1057 01f2 FFF7FEFF 		bl	ili9340_write_data
 1058              	.LVL135:
 126:MakiseGUI/MakiseGUI/ILI9340C/ili9340.c ****     ili9340_write_data(0x31); 
 1059              		.loc 1 126 0
 1060 01f6 0C20     		movs	r0, #12
 1061 01f8 FFF7FEFF 		bl	ili9340_write_data
 1062              	.LVL136:
 127:MakiseGUI/MakiseGUI/ILI9340C/ili9340.c ****     ili9340_write_data(0x36); 
 1063              		.loc 1 127 0
 1064 01fc 3120     		movs	r0, #49
 1065 01fe FFF7FEFF 		bl	ili9340_write_data
 1066              	.LVL137:
 128:MakiseGUI/MakiseGUI/ILI9340C/ili9340.c ****     ili9340_write_data(0x0F); 
 1067              		.loc 1 128 0
 1068 0202 3620     		movs	r0, #54
 1069 0204 FFF7FEFF 		bl	ili9340_write_data
 1070              	.LVL138:
 129:MakiseGUI/MakiseGUI/ILI9340C/ili9340.c ****     //--------------ddram ---------------------
 1071              		.loc 1 129 0
 1072 0208 0F20     		movs	r0, #15
 1073 020a FFF7FEFF 		bl	ili9340_write_data
 1074              	.LVL139:
 131:MakiseGUI/MakiseGUI/ILI9340C/ili9340.c ****     // column set
 1075              		.loc 1 131 0
 1076 020e 2A20     		movs	r0, #42
 1077 0210 FFF7FEFF 		bl	ili9340_write_command
 1078              	.LVL140:
 134:MakiseGUI/MakiseGUI/ILI9340C/ili9340.c ****     ili9340_write_data(0x00);
 1079              		.loc 1 134 0
 1080 0214 0020     		movs	r0, #0
 1081 0216 FFF7FEFF 		bl	ili9340_write_data
 1082              	.LVL141:
 135:MakiseGUI/MakiseGUI/ILI9340C/ili9340.c ****     ili9340_write_data(0x00);
 1083              		.loc 1 135 0
 1084 021a 0020     		movs	r0, #0
 1085 021c FFF7FEFF 		bl	ili9340_write_data
 1086              	.LVL142:
 136:MakiseGUI/MakiseGUI/ILI9340C/ili9340.c ****     ili9340_write_data(0xEF);
 1087              		.loc 1 136 0
 1088 0220 0020     		movs	r0, #0
 1089 0222 FFF7FEFF 		bl	ili9340_write_data
 1090              	.LVL143:
 137:MakiseGUI/MakiseGUI/ILI9340C/ili9340.c ****     ili9340_write_command(0x2b);
 1091              		.loc 1 137 0
 1092 0226 EF20     		movs	r0, #239
 1093 0228 FFF7FEFF 		bl	ili9340_write_data
 1094              	.LVL144:
 138:MakiseGUI/MakiseGUI/ILI9340C/ili9340.c ****     // page address set
ARM GAS  /tmp/ccMF4931.s 			page 29


 1095              		.loc 1 138 0
 1096 022c 2B20     		movs	r0, #43
 1097 022e FFF7FEFF 		bl	ili9340_write_command
 1098              	.LVL145:
 141:MakiseGUI/MakiseGUI/ILI9340C/ili9340.c ****     ili9340_write_data(0x00);
 1099              		.loc 1 141 0
 1100 0232 0020     		movs	r0, #0
 1101 0234 FFF7FEFF 		bl	ili9340_write_data
 1102              	.LVL146:
 142:MakiseGUI/MakiseGUI/ILI9340C/ili9340.c ****     ili9340_write_data(0x01);
 1103              		.loc 1 142 0
 1104 0238 0020     		movs	r0, #0
 1105 023a FFF7FEFF 		bl	ili9340_write_data
 1106              	.LVL147:
 143:MakiseGUI/MakiseGUI/ILI9340C/ili9340.c ****     ili9340_write_data(0x3F);
 1107              		.loc 1 143 0
 1108 023e 0120     		movs	r0, #1
 1109 0240 FFF7FEFF 		bl	ili9340_write_data
 1110              	.LVL148:
 144:MakiseGUI/MakiseGUI/ILI9340C/ili9340.c ****     ili9340_write_command(0x34);
 1111              		.loc 1 144 0
 1112 0244 3F20     		movs	r0, #63
 1113 0246 FFF7FEFF 		bl	ili9340_write_data
 1114              	.LVL149:
 145:MakiseGUI/MakiseGUI/ILI9340C/ili9340.c ****     ili9340_write_command(0x35);
 1115              		.loc 1 145 0
 1116 024a 3420     		movs	r0, #52
 1117 024c FFF7FEFF 		bl	ili9340_write_command
 1118              	.LVL150:
 146:MakiseGUI/MakiseGUI/ILI9340C/ili9340.c ****     ili9340_write_data(0x01);
 1119              		.loc 1 146 0
 1120 0250 3520     		movs	r0, #53
 1121 0252 FFF7FEFF 		bl	ili9340_write_command
 1122              	.LVL151:
 147:MakiseGUI/MakiseGUI/ILI9340C/ili9340.c ****     // tearing effect off
 1123              		.loc 1 147 0
 1124 0256 0120     		movs	r0, #1
 1125 0258 FFF7FEFF 		bl	ili9340_write_data
 1126              	.LVL152:
 151:MakiseGUI/MakiseGUI/ILI9340C/ili9340.c ****     ili9340_write_data(0x07);
 1127              		.loc 1 151 0
 1128 025c B720     		movs	r0, #183
 1129 025e FFF7FEFF 		bl	ili9340_write_command
 1130              	.LVL153:
 152:MakiseGUI/MakiseGUI/ILI9340C/ili9340.c ****     //-----------------display---------------------
 1131              		.loc 1 152 0
 1132 0262 0720     		movs	r0, #7
 1133 0264 FFF7FEFF 		bl	ili9340_write_data
 1134              	.LVL154:
 154:MakiseGUI/MakiseGUI/ILI9340C/ili9340.c ****     // display function control
 1135              		.loc 1 154 0
 1136 0268 B620     		movs	r0, #182
 1137 026a FFF7FEFF 		bl	ili9340_write_command
 1138              	.LVL155:
 156:MakiseGUI/MakiseGUI/ILI9340C/ili9340.c ****     ili9340_write_data(0x82);
 1139              		.loc 1 156 0
 1140 026e 0A20     		movs	r0, #10
ARM GAS  /tmp/ccMF4931.s 			page 30


 1141 0270 FFF7FEFF 		bl	ili9340_write_data
 1142              	.LVL156:
 157:MakiseGUI/MakiseGUI/ILI9340C/ili9340.c ****     ili9340_write_data(0x27);
 1143              		.loc 1 157 0
 1144 0274 8220     		movs	r0, #130
 1145 0276 FFF7FEFF 		bl	ili9340_write_data
 1146              	.LVL157:
 158:MakiseGUI/MakiseGUI/ILI9340C/ili9340.c ****     ili9340_write_data(0x00);
 1147              		.loc 1 158 0
 1148 027a 2720     		movs	r0, #39
 1149 027c FFF7FEFF 		bl	ili9340_write_data
 1150              	.LVL158:
 159:MakiseGUI/MakiseGUI/ILI9340C/ili9340.c ****     ili9340_write_command(0x11); //sleep out
 1151              		.loc 1 159 0
 1152 0280 0020     		movs	r0, #0
 1153 0282 FFF7FEFF 		bl	ili9340_write_data
 1154              	.LVL159:
 160:MakiseGUI/MakiseGUI/ILI9340C/ili9340.c ****     _ili9340_delay(100);
 1155              		.loc 1 160 0
 1156 0286 1120     		movs	r0, #17
 1157 0288 FFF7FEFF 		bl	ili9340_write_command
 1158              	.LVL160:
 1159              	.LBB60:
 1160              	.LBB61:
   5:MakiseGUI/MakiseGUI/ILI9340C/ili9340.c **** extern inline void _ili9340_rst(uint8_t st){HAL_GPIO_WritePin(ILI9340_RST, st ? GPIO_PIN_SET : GPIO
 1161              		.loc 1 5 0
 1162 028c 6420     		movs	r0, #100
 1163 028e FFF7FEFF 		bl	HAL_Delay
 1164              	.LVL161:
 1165              	.LBE61:
 1166              	.LBE60:
 162:MakiseGUI/MakiseGUI/ILI9340C/ili9340.c ****     _ili9340_delay(100);
 1167              		.loc 1 162 0
 1168 0292 2920     		movs	r0, #41
 1169 0294 FFF7FEFF 		bl	ili9340_write_command
 1170              	.LVL162:
 1171              	.LBB62:
 1172              	.LBB63:
   5:MakiseGUI/MakiseGUI/ILI9340C/ili9340.c **** extern inline void _ili9340_rst(uint8_t st){HAL_GPIO_WritePin(ILI9340_RST, st ? GPIO_PIN_SET : GPIO
 1173              		.loc 1 5 0
 1174 0298 6420     		movs	r0, #100
 1175 029a FFF7FEFF 		bl	HAL_Delay
 1176              	.LVL163:
 1177              	.LBE63:
 1178              	.LBE62:
 167:MakiseGUI/MakiseGUI/ILI9340C/ili9340.c **** uint8_t _ili9340_addr_kek[2];
 1179              		.loc 1 167 0
 1180 029e 0020     		movs	r0, #0
 1181 02a0 10BD     		pop	{r4, pc}
 1182              	.L59:
 1183 02a2 00BF     		.align	2
 1184              	.L58:
 1185 02a4 00080240 		.word	1073874944
 1186              		.cfi_endproc
 1187              	.LFE131:
 1189              		.section	.text.setAddrWindow,"ax",%progbits
 1190              		.align	1
ARM GAS  /tmp/ccMF4931.s 			page 31


 1191              		.p2align 2,,3
 1192              		.global	setAddrWindow
 1193              		.syntax unified
 1194              		.thumb
 1195              		.thumb_func
 1196              		.fpu fpv4-sp-d16
 1198              	setAddrWindow:
 1199              	.LFB132:
 170:MakiseGUI/MakiseGUI/ILI9340C/ili9340.c **** 
 1200              		.loc 1 170 0
 1201              		.cfi_startproc
 1202              		@ args = 0, pretend = 0, frame = 0
 1203              		@ frame_needed = 0, uses_anonymous_args = 0
 1204              	.LVL164:
 1205 0000 2DE9F047 		push	{r4, r5, r6, r7, r8, r9, r10, lr}
 1206              	.LCFI11:
 1207              		.cfi_def_cfa_offset 32
 1208              		.cfi_offset 4, -32
 1209              		.cfi_offset 5, -28
 1210              		.cfi_offset 6, -24
 1211              		.cfi_offset 7, -20
 1212              		.cfi_offset 8, -16
 1213              		.cfi_offset 9, -12
 1214              		.cfi_offset 10, -8
 1215              		.cfi_offset 14, -4
 170:MakiseGUI/MakiseGUI/ILI9340C/ili9340.c **** 
 1216              		.loc 1 170 0
 1217 0004 8246     		mov	r10, r0
 1218 0006 0E46     		mov	r6, r1
 1219 0008 9146     		mov	r9, r2
 1220              	.LBB64:
 1221              	.LBB65:
   7:MakiseGUI/MakiseGUI/ILI9340C/ili9340.c **** extern inline void _ili9340_dc(uint8_t st){HAL_GPIO_WritePin(ILI9340_DC, st ? GPIO_PIN_SET : GPIO_P
 1222              		.loc 1 7 0
 1223 000a 0121     		movs	r1, #1
 1224              	.LVL165:
 1225 000c 0022     		movs	r2, #0
 1226              	.LVL166:
 1227              	.LBE65:
 1228              	.LBE64:
 1229              	.LBB68:
 1230              	.LBB69:
   8:MakiseGUI/MakiseGUI/ILI9340C/ili9340.c **** 
 1231              		.loc 1 8 0
 1232 000e DFF88480 		ldr	r8, .L62+12
 1233              	.LBE69:
 1234              	.LBE68:
 1235              	.LBB71:
 1236              	.LBB66:
   7:MakiseGUI/MakiseGUI/ILI9340C/ili9340.c **** extern inline void _ili9340_dc(uint8_t st){HAL_GPIO_WritePin(ILI9340_DC, st ? GPIO_PIN_SET : GPIO_P
 1237              		.loc 1 7 0
 1238 0012 1D48     		ldr	r0, .L62
 1239              	.LVL167:
 1240              	.LBE66:
 1241              	.LBE71:
 176:MakiseGUI/MakiseGUI/ILI9340C/ili9340.c ****     _ili9340_addr_kek[1] = x0;
 1242              		.loc 1 176 0
ARM GAS  /tmp/ccMF4931.s 			page 32


 1243 0014 1D4C     		ldr	r4, .L62+4
 180:MakiseGUI/MakiseGUI/ILI9340C/ili9340.c **** 
 1244              		.loc 1 180 0
 1245 0016 1E4F     		ldr	r7, .L62+8
 170:MakiseGUI/MakiseGUI/ILI9340C/ili9340.c **** 
 1246              		.loc 1 170 0
 1247 0018 1D46     		mov	r5, r3
 1248              	.LBB72:
 1249              	.LBB67:
   7:MakiseGUI/MakiseGUI/ILI9340C/ili9340.c **** extern inline void _ili9340_dc(uint8_t st){HAL_GPIO_WritePin(ILI9340_DC, st ? GPIO_PIN_SET : GPIO_P
 1250              		.loc 1 7 0
 1251 001a FFF7FEFF 		bl	HAL_GPIO_WritePin
 1252              	.LVL168:
 1253              	.LBE67:
 1254              	.LBE72:
 173:MakiseGUI/MakiseGUI/ILI9340C/ili9340.c ****     
 1255              		.loc 1 173 0
 1256 001e 2A20     		movs	r0, #42
 1257 0020 FFF7FEFF 		bl	ili9340_write_command
 1258              	.LVL169:
 1259              	.LBB73:
 1260              	.LBB70:
   8:MakiseGUI/MakiseGUI/ILI9340C/ili9340.c **** 
 1261              		.loc 1 8 0
 1262 0024 4046     		mov	r0, r8
 1263 0026 0122     		movs	r2, #1
 1264 0028 1021     		movs	r1, #16
 1265 002a FFF7FEFF 		bl	HAL_GPIO_WritePin
 1266              	.LVL170:
 1267              	.LBE70:
 1268              	.LBE73:
 176:MakiseGUI/MakiseGUI/ILI9340C/ili9340.c ****     _ili9340_addr_kek[1] = x0;
 1269              		.loc 1 176 0
 1270 002e 4FEA1A23 		lsr	r3, r10, #8
 178:MakiseGUI/MakiseGUI/ILI9340C/ili9340.c ****     _ili9340_addr_kek[3] = x1;
 1271              		.loc 1 178 0
 1272 0032 4FEA192E 		lsr	lr, r9, #8
 180:MakiseGUI/MakiseGUI/ILI9340C/ili9340.c **** 
 1273              		.loc 1 180 0
 1274 0036 2146     		mov	r1, r4
 176:MakiseGUI/MakiseGUI/ILI9340C/ili9340.c ****     _ili9340_addr_kek[1] = x0;
 1275              		.loc 1 176 0
 1276 0038 2370     		strb	r3, [r4]
 180:MakiseGUI/MakiseGUI/ILI9340C/ili9340.c **** 
 1277              		.loc 1 180 0
 1278 003a 0422     		movs	r2, #4
 1279 003c 0A23     		movs	r3, #10
 1280 003e 3846     		mov	r0, r7
 178:MakiseGUI/MakiseGUI/ILI9340C/ili9340.c ****     _ili9340_addr_kek[3] = x1;
 1281              		.loc 1 178 0
 1282 0040 84F802E0 		strb	lr, [r4, #2]
 177:MakiseGUI/MakiseGUI/ILI9340C/ili9340.c ****     _ili9340_addr_kek[2] = x1 >> 8;
 1283              		.loc 1 177 0
 1284 0044 84F801A0 		strb	r10, [r4, #1]
 179:MakiseGUI/MakiseGUI/ILI9340C/ili9340.c ****     HAL_SPI_Transmit(&ILI9340_SPI, (uint8_t*)_ili9340_addr_kek, 4, 10);
 1285              		.loc 1 179 0
 1286 0048 84F80390 		strb	r9, [r4, #3]
ARM GAS  /tmp/ccMF4931.s 			page 33


 180:MakiseGUI/MakiseGUI/ILI9340C/ili9340.c **** 
 1287              		.loc 1 180 0
 1288 004c FFF7FEFF 		bl	HAL_SPI_Transmit
 1289              	.LVL171:
 182:MakiseGUI/MakiseGUI/ILI9340C/ili9340.c **** 
 1290              		.loc 1 182 0
 1291 0050 2B20     		movs	r0, #43
 1292 0052 FFF7FEFF 		bl	ili9340_write_command
 1293              	.LVL172:
 1294              	.LBB74:
 1295              	.LBB75:
   8:MakiseGUI/MakiseGUI/ILI9340C/ili9340.c **** 
 1296              		.loc 1 8 0
 1297 0056 4046     		mov	r0, r8
 1298 0058 0122     		movs	r2, #1
 1299 005a 1021     		movs	r1, #16
 1300 005c FFF7FEFF 		bl	HAL_GPIO_WritePin
 1301              	.LVL173:
 1302              	.LBE75:
 1303              	.LBE74:
 185:MakiseGUI/MakiseGUI/ILI9340C/ili9340.c ****     _ili9340_addr_kek[1] = y0;
 1304              		.loc 1 185 0
 1305 0060 4FEA162E 		lsr	lr, r6, #8
 189:MakiseGUI/MakiseGUI/ILI9340C/ili9340.c **** 
 1306              		.loc 1 189 0
 1307 0064 3846     		mov	r0, r7
 1308 0066 2146     		mov	r1, r4
 187:MakiseGUI/MakiseGUI/ILI9340C/ili9340.c ****     _ili9340_addr_kek[3] = y1;
 1309              		.loc 1 187 0
 1310 0068 2F0A     		lsrs	r7, r5, #8
 189:MakiseGUI/MakiseGUI/ILI9340C/ili9340.c **** 
 1311              		.loc 1 189 0
 1312 006a 0A23     		movs	r3, #10
 1313 006c 0422     		movs	r2, #4
 186:MakiseGUI/MakiseGUI/ILI9340C/ili9340.c ****     _ili9340_addr_kek[2] = y1 >>8;
 1314              		.loc 1 186 0
 1315 006e 6670     		strb	r6, [r4, #1]
 185:MakiseGUI/MakiseGUI/ILI9340C/ili9340.c ****     _ili9340_addr_kek[1] = y0;
 1316              		.loc 1 185 0
 1317 0070 84F800E0 		strb	lr, [r4]
 188:MakiseGUI/MakiseGUI/ILI9340C/ili9340.c ****     HAL_SPI_Transmit(&ILI9340_SPI, (uint8_t*)_ili9340_addr_kek, 4, 10);
 1318              		.loc 1 188 0
 1319 0074 E570     		strb	r5, [r4, #3]
 187:MakiseGUI/MakiseGUI/ILI9340C/ili9340.c ****     _ili9340_addr_kek[3] = y1;
 1320              		.loc 1 187 0
 1321 0076 A770     		strb	r7, [r4, #2]
 189:MakiseGUI/MakiseGUI/ILI9340C/ili9340.c **** 
 1322              		.loc 1 189 0
 1323 0078 FFF7FEFF 		bl	HAL_SPI_Transmit
 1324              	.LVL174:
 191:MakiseGUI/MakiseGUI/ILI9340C/ili9340.c **** }
 1325              		.loc 1 191 0
 1326 007c 2C20     		movs	r0, #44
 192:MakiseGUI/MakiseGUI/ILI9340C/ili9340.c **** 
 1327              		.loc 1 192 0
 1328 007e BDE8F047 		pop	{r4, r5, r6, r7, r8, r9, r10, lr}
 1329              	.LCFI12:
ARM GAS  /tmp/ccMF4931.s 			page 34


 1330              		.cfi_restore 14
 1331              		.cfi_restore 10
 1332              		.cfi_restore 9
 1333              		.cfi_restore 8
 1334              		.cfi_restore 7
 1335              		.cfi_restore 6
 1336              		.cfi_restore 5
 1337              		.cfi_restore 4
 1338              		.cfi_def_cfa_offset 0
 191:MakiseGUI/MakiseGUI/ILI9340C/ili9340.c **** }
 1339              		.loc 1 191 0
 1340 0082 FFF7FEBF 		b	ili9340_write_command
 1341              	.LVL175:
 1342              	.L63:
 1343 0086 00BF     		.align	2
 1344              	.L62:
 1345 0088 00040240 		.word	1073873920
 1346 008c 00000000 		.word	_ili9340_addr_kek
 1347 0090 00000000 		.word	hspi1
 1348 0094 00080240 		.word	1073874944
 1349              		.cfi_endproc
 1350              	.LFE132:
 1352              		.section	.text.strt_tx,"ax",%progbits
 1353              		.align	1
 1354              		.p2align 2,,3
 1355              		.global	strt_tx
 1356              		.syntax unified
 1357              		.thumb
 1358              		.thumb_func
 1359              		.fpu fpv4-sp-d16
 1361              	strt_tx:
 1362              	.LFB133:
 198:MakiseGUI/MakiseGUI/ILI9340C/ili9340.c **** //    HAL_GPIO_TogglePin(GPIOB, GPIO_PIN_3);
 1363              		.loc 1 198 0
 1364              		.cfi_startproc
 1365              		@ args = 0, pretend = 0, frame = 0
 1366              		@ frame_needed = 0, uses_anonymous_args = 0
 1367              	.LVL176:
 201:MakiseGUI/MakiseGUI/ILI9340C/ili9340.c ****     {
 1368              		.loc 1 201 0
 1369 0000 2A4A     		ldr	r2, .L81
 1370 0002 8388     		ldrh	r3, [r0, #4]
 1371 0004 1288     		ldrh	r2, [r2]
 1372 0006 418B     		ldrh	r1, [r0, #26]
 1373 0008 9B1A     		subs	r3, r3, r2
 1374 000a 9942     		cmp	r1, r3
 198:MakiseGUI/MakiseGUI/ILI9340C/ili9340.c **** //    HAL_GPIO_TogglePin(GPIOB, GPIO_PIN_3);
 1375              		.loc 1 198 0
 1376 000c 70B5     		push	{r4, r5, r6, lr}
 1377              	.LCFI13:
 1378              		.cfi_def_cfa_offset 16
 1379              		.cfi_offset 4, -16
 1380              		.cfi_offset 5, -12
 1381              		.cfi_offset 6, -8
 1382              		.cfi_offset 14, -4
 198:MakiseGUI/MakiseGUI/ILI9340C/ili9340.c **** //    HAL_GPIO_TogglePin(GPIOB, GPIO_PIN_3);
 1383              		.loc 1 198 0
ARM GAS  /tmp/ccMF4931.s 			page 35


 1384 000e 0446     		mov	r4, r0
 201:MakiseGUI/MakiseGUI/ILI9340C/ili9340.c ****     {
 1385              		.loc 1 201 0
 1386 0010 0BDB     		blt	.L72
 203:MakiseGUI/MakiseGUI/ILI9340C/ili9340.c **** 	dr = 1;
 1387              		.loc 1 203 0
 1388 0012 274B     		ldr	r3, .L81+4
 205:MakiseGUI/MakiseGUI/ILI9340C/ili9340.c **** 	
 1389              		.loc 1 205 0
 1390 0014 4283     		strh	r2, [r0, #26]	@ movhi
 203:MakiseGUI/MakiseGUI/ILI9340C/ili9340.c **** 	dr = 1;
 1391              		.loc 1 203 0
 1392 0016 0021     		movs	r1, #0
 1393 0018 1970     		strb	r1, [r3]
 1394              	.LVL177:
 212:MakiseGUI/MakiseGUI/ILI9340C/ili9340.c **** 	{
 1395              		.loc 1 212 0
 1396 001a 0068     		ldr	r0, [r0]
 1397              	.LVL178:
 1398 001c 8368     		ldr	r3, [r0, #8]
 1399 001e 002B     		cmp	r3, #0
 1400 0020 41D0     		beq	.L73
 214:MakiseGUI/MakiseGUI/ILI9340C/ili9340.c **** 	}
 1401              		.loc 1 214 0
 1402 0022 9847     		blx	r3
 1403              	.LVL179:
 204:MakiseGUI/MakiseGUI/ILI9340C/ili9340.c **** 	d->posy = taaak;
 1404              		.loc 1 204 0
 1405 0024 0126     		movs	r6, #1
 1406 0026 618B     		ldrh	r1, [r4, #26]
 1407 0028 00E0     		b	.L65
 1408              	.LVL180:
 1409              	.L72:
 200:MakiseGUI/MakiseGUI/ILI9340C/ili9340.c ****     if(d->posy >= d->lcd_height - taaak)
 1410              		.loc 1 200 0
 1411 002a 0026     		movs	r6, #0
 1412              	.LVL181:
 1413              	.L65:
 220:MakiseGUI/MakiseGUI/ILI9340C/ili9340.c ****     ili9340_render(d->gui);
 1414              		.loc 1 220 0
 1415 002c 2389     		ldrh	r3, [r4, #8]
 1416 002e E288     		ldrh	r2, [r4, #6]
 227:MakiseGUI/MakiseGUI/ILI9340C/ili9340.c ****     {
 1417              		.loc 1 227 0
 1418 0030 204D     		ldr	r5, .L81+8
 220:MakiseGUI/MakiseGUI/ILI9340C/ili9340.c ****     ili9340_render(d->gui);
 1419              		.loc 1 220 0
 1420 0032 013B     		subs	r3, r3, #1
 1421 0034 0B44     		add	r3, r3, r1
 1422 0036 9BB2     		uxth	r3, r3
 1423 0038 0020     		movs	r0, #0
 1424 003a FFF7FEFF 		bl	setAddrWindow
 1425              	.LVL182:
 221:MakiseGUI/MakiseGUI/ILI9340C/ili9340.c **** 
 1426              		.loc 1 221 0
 1427 003e 2068     		ldr	r0, [r4]
 1428 0040 FFF7FEFF 		bl	ili9340_render
ARM GAS  /tmp/ccMF4931.s 			page 36


 1429              	.LVL183:
 1430              	.LBB76:
 1431              	.LBB77:
   8:MakiseGUI/MakiseGUI/ILI9340C/ili9340.c **** 
 1432              		.loc 1 8 0
 1433 0044 0122     		movs	r2, #1
 1434 0046 1021     		movs	r1, #16
 1435 0048 1B48     		ldr	r0, .L81+12
 1436 004a FFF7FEFF 		bl	HAL_GPIO_WritePin
 1437              	.LVL184:
 1438              	.LBE77:
 1439              	.LBE76:
 1440              	.LBB78:
 1441              	.LBB79:
   7:MakiseGUI/MakiseGUI/ILI9340C/ili9340.c **** extern inline void _ili9340_dc(uint8_t st){HAL_GPIO_WritePin(ILI9340_DC, st ? GPIO_PIN_SET : GPIO_P
 1442              		.loc 1 7 0
 1443 004e 0022     		movs	r2, #0
 1444 0050 0121     		movs	r1, #1
 1445 0052 1A48     		ldr	r0, .L81+16
 1446 0054 FFF7FEFF 		bl	HAL_GPIO_WritePin
 1447              	.LVL185:
 1448              	.LBE79:
 1449              	.LBE78:
 227:MakiseGUI/MakiseGUI/ILI9340C/ili9340.c ****     {
 1450              		.loc 1 227 0
 1451 0058 2B68     		ldr	r3, [r5]
 1452 005a 93B9     		cbnz	r3, .L66
 229:MakiseGUI/MakiseGUI/ILI9340C/ili9340.c **** 	w = 1;
 1453              		.loc 1 229 0
 1454 005c A28A     		ldrh	r2, [r4, #20]
 1455 005e 2169     		ldr	r1, [r4, #16]
 1456 0060 1748     		ldr	r0, .L81+20
 1457 0062 FFF7FEFF 		bl	HAL_SPI_Transmit_DMA
 1458              	.LVL186:
 230:MakiseGUI/MakiseGUI/ILI9340C/ili9340.c ****     }
 1459              		.loc 1 230 0
 1460 0066 0123     		movs	r3, #1
 1461 0068 2B60     		str	r3, [r5]
 1462              	.L67:
 243:MakiseGUI/MakiseGUI/ILI9340C/ili9340.c ****     {
 1463              		.loc 1 243 0
 1464 006a 4EB1     		cbz	r6, .L64
 245:MakiseGUI/MakiseGUI/ILI9340C/ili9340.c **** 	{
 1465              		.loc 1 245 0
 1466 006c 2068     		ldr	r0, [r4]
 1467 006e C368     		ldr	r3, [r0, #12]
 1468 0070 0BB1     		cbz	r3, .L70
 247:MakiseGUI/MakiseGUI/ILI9340C/ili9340.c **** 	}
 1469              		.loc 1 247 0
 1470 0072 9847     		blx	r3
 1471              	.LVL187:
 1472 0074 2068     		ldr	r0, [r4]
 1473              	.L70:
 249:MakiseGUI/MakiseGUI/ILI9340C/ili9340.c **** 	{
 1474              		.loc 1 249 0
 1475 0076 0369     		ldr	r3, [r0, #16]
 1476 0078 13B1     		cbz	r3, .L64
ARM GAS  /tmp/ccMF4931.s 			page 37


 254:MakiseGUI/MakiseGUI/ILI9340C/ili9340.c **** 
 1477              		.loc 1 254 0
 1478 007a BDE87040 		pop	{r4, r5, r6, lr}
 1479              	.LCFI14:
 1480              		.cfi_remember_state
 1481              		.cfi_restore 14
 1482              		.cfi_restore 6
 1483              		.cfi_restore 5
 1484              		.cfi_restore 4
 1485              		.cfi_def_cfa_offset 0
 1486              	.LVL188:
 251:MakiseGUI/MakiseGUI/ILI9340C/ili9340.c **** 	}
 1487              		.loc 1 251 0
 1488 007e 1847     		bx	r3	@ indirect register sibling call
 1489              	.LVL189:
 1490              	.L64:
 1491              	.LCFI15:
 1492              		.cfi_restore_state
 1493 0080 70BD     		pop	{r4, r5, r6, pc}
 1494              	.LVL190:
 1495              	.L66:
 234:MakiseGUI/MakiseGUI/ILI9340C/ili9340.c **** 	  /* Enable the SPI Error Interrupt Bit */
 1496              		.loc 1 234 0
 1497 0082 0F4D     		ldr	r5, .L81+20
 1498 0084 6369     		ldr	r3, [r4, #20]
 1499 0086 2A68     		ldr	r2, [r5]
 1500 0088 A86C     		ldr	r0, [r5, #72]
 1501 008a 2169     		ldr	r1, [r4, #16]
 1502 008c 0C32     		adds	r2, r2, #12
 1503 008e FFF7FEFF 		bl	HAL_DMA_Start_IT
 1504              	.LVL191:
 236:MakiseGUI/MakiseGUI/ILI9340C/ili9340.c **** 
 1505              		.loc 1 236 0
 1506 0092 2B68     		ldr	r3, [r5]
 1507 0094 5A68     		ldr	r2, [r3, #4]
 1508 0096 42F02002 		orr	r2, r2, #32
 1509 009a 5A60     		str	r2, [r3, #4]
 239:MakiseGUI/MakiseGUI/ILI9340C/ili9340.c **** 
 1510              		.loc 1 239 0
 1511 009c 5A68     		ldr	r2, [r3, #4]
 1512 009e 42F00202 		orr	r2, r2, #2
 1513 00a2 5A60     		str	r2, [r3, #4]
 1514 00a4 E1E7     		b	.L67
 1515              	.LVL192:
 1516              	.L73:
 1517 00a6 1146     		mov	r1, r2
 204:MakiseGUI/MakiseGUI/ILI9340C/ili9340.c **** 	d->posy = taaak;
 1518              		.loc 1 204 0
 1519 00a8 0126     		movs	r6, #1
 1520 00aa BFE7     		b	.L65
 1521              	.L82:
 1522              		.align	2
 1523              	.L81:
 1524 00ac 00000000 		.word	.LANCHOR2
 1525 00b0 00000000 		.word	.LANCHOR0
 1526 00b4 00000000 		.word	.LANCHOR3
 1527 00b8 00080240 		.word	1073874944
ARM GAS  /tmp/ccMF4931.s 			page 38


 1528 00bc 00040240 		.word	1073873920
 1529 00c0 00000000 		.word	hspi1
 1530              		.cfi_endproc
 1531              	.LFE133:
 1533              		.section	.text.ili9340_start,"ax",%progbits
 1534              		.align	1
 1535              		.p2align 2,,3
 1536              		.global	ili9340_start
 1537              		.syntax unified
 1538              		.thumb
 1539              		.thumb_func
 1540              		.fpu fpv4-sp-d16
 1542              	ili9340_start:
 1543              	.LFB134:
 257:MakiseGUI/MakiseGUI/ILI9340C/ili9340.c ****     if(ILI9340_LED_USE_PWM)
 1544              		.loc 1 257 0
 1545              		.cfi_startproc
 1546              		@ args = 0, pretend = 0, frame = 0
 1547              		@ frame_needed = 0, uses_anonymous_args = 0
 1548              	.LVL193:
 1549 0000 38B5     		push	{r3, r4, r5, lr}
 1550              	.LCFI16:
 1551              		.cfi_def_cfa_offset 16
 1552              		.cfi_offset 3, -16
 1553              		.cfi_offset 4, -12
 1554              		.cfi_offset 5, -8
 1555              		.cfi_offset 14, -4
 260:MakiseGUI/MakiseGUI/ILI9340C/ili9340.c **** 	HAL_TIM_PWM_Start(ILI9340_LED_PWM, ILI9340_LED_PWM_CHANNEL);
 1556              		.loc 1 260 0
 1557 0002 084C     		ldr	r4, .L85
 257:MakiseGUI/MakiseGUI/ILI9340C/ili9340.c ****     if(ILI9340_LED_USE_PWM)
 1558              		.loc 1 257 0
 1559 0004 0546     		mov	r5, r0
 260:MakiseGUI/MakiseGUI/ILI9340C/ili9340.c **** 	HAL_TIM_PWM_Start(ILI9340_LED_PWM, ILI9340_LED_PWM_CHANNEL);
 1560              		.loc 1 260 0
 1561 0006 2046     		mov	r0, r4
 1562              	.LVL194:
 1563 0008 FFF7FEFF 		bl	HAL_TIM_Base_Start
 1564              	.LVL195:
 261:MakiseGUI/MakiseGUI/ILI9340C/ili9340.c ****     }
 1565              		.loc 1 261 0
 1566 000c 2046     		mov	r0, r4
 1567 000e 0C21     		movs	r1, #12
 1568 0010 FFF7FEFF 		bl	HAL_TIM_PWM_Start
 1569              	.LVL196:
 1570              	.LBB80:
 1571              	.LBB81:
 278:MakiseGUI/MakiseGUI/ILI9340C/ili9340.c ****     else
 1572              		.loc 1 278 0
 1573 0014 2368     		ldr	r3, [r4]
 1574              	.LBE81:
 1575              	.LBE80:
 265:MakiseGUI/MakiseGUI/ILI9340C/ili9340.c **** }
 1576              		.loc 1 265 0
 1577 0016 6868     		ldr	r0, [r5, #4]
 1578              	.LBB83:
 1579              	.LBB82:
ARM GAS  /tmp/ccMF4931.s 			page 39


 278:MakiseGUI/MakiseGUI/ILI9340C/ili9340.c ****     else
 1580              		.loc 1 278 0
 1581 0018 1F22     		movs	r2, #31
 1582 001a 1A64     		str	r2, [r3, #64]
 1583              	.LVL197:
 1584              	.LBE82:
 1585              	.LBE83:
 265:MakiseGUI/MakiseGUI/ILI9340C/ili9340.c **** }
 1586              		.loc 1 265 0
 1587 001c FFF7FEFF 		bl	strt_tx
 1588              	.LVL198:
 266:MakiseGUI/MakiseGUI/ILI9340C/ili9340.c **** uint8_t ili9340_sleep(MakiseGUI* gui)
 1589              		.loc 1 266 0
 1590 0020 38BD     		pop	{r3, r4, r5, pc}
 1591              	.LVL199:
 1592              	.L86:
 1593 0022 00BF     		.align	2
 1594              	.L85:
 1595 0024 00000000 		.word	htim3
 1596              		.cfi_endproc
 1597              	.LFE134:
 1599              		.section	.text.ili9340_spi_txcplt,"ax",%progbits
 1600              		.align	1
 1601              		.p2align 2,,3
 1602              		.global	ili9340_spi_txcplt
 1603              		.syntax unified
 1604              		.thumb
 1605              		.thumb_func
 1606              		.fpu fpv4-sp-d16
 1608              	ili9340_spi_txcplt:
 1609              	.LFB139:
 291:MakiseGUI/MakiseGUI/ILI9340C/ili9340.c ****     ili_f = 2;
 1610              		.loc 1 291 0
 1611              		.cfi_startproc
 1612              		@ args = 0, pretend = 0, frame = 0
 1613              		@ frame_needed = 0, uses_anonymous_args = 0
 1614              	.LVL200:
 1615 0000 38B5     		push	{r3, r4, r5, lr}
 1616              	.LCFI17:
 1617              		.cfi_def_cfa_offset 16
 1618              		.cfi_offset 3, -16
 1619              		.cfi_offset 4, -12
 1620              		.cfi_offset 5, -8
 1621              		.cfi_offset 14, -4
 1622              	.LBB84:
 1623              	.LBB85:
   7:MakiseGUI/MakiseGUI/ILI9340C/ili9340.c **** extern inline void _ili9340_dc(uint8_t st){HAL_GPIO_WritePin(ILI9340_DC, st ? GPIO_PIN_SET : GPIO_P
 1624              		.loc 1 7 0
 1625 0002 0122     		movs	r2, #1
 1626              	.LBE85:
 1627              	.LBE84:
 292:MakiseGUI/MakiseGUI/ILI9340C/ili9340.c ****     _ili9340_cs(1);
 1628              		.loc 1 292 0
 1629 0004 054B     		ldr	r3, .L89
 291:MakiseGUI/MakiseGUI/ILI9340C/ili9340.c ****     ili_f = 2;
 1630              		.loc 1 291 0
 1631 0006 0446     		mov	r4, r0
ARM GAS  /tmp/ccMF4931.s 			page 40


 292:MakiseGUI/MakiseGUI/ILI9340C/ili9340.c ****     _ili9340_cs(1);
 1632              		.loc 1 292 0
 1633 0008 0225     		movs	r5, #2
 1634              	.LBB88:
 1635              	.LBB86:
   7:MakiseGUI/MakiseGUI/ILI9340C/ili9340.c **** extern inline void _ili9340_dc(uint8_t st){HAL_GPIO_WritePin(ILI9340_DC, st ? GPIO_PIN_SET : GPIO_P
 1636              		.loc 1 7 0
 1637 000a 1146     		mov	r1, r2
 1638 000c 0448     		ldr	r0, .L89+4
 1639              	.LVL201:
 1640              	.LBE86:
 1641              	.LBE88:
 292:MakiseGUI/MakiseGUI/ILI9340C/ili9340.c ****     _ili9340_cs(1);
 1642              		.loc 1 292 0
 1643 000e 1D70     		strb	r5, [r3]
 1644              	.LVL202:
 1645              	.LBB89:
 1646              	.LBB87:
   7:MakiseGUI/MakiseGUI/ILI9340C/ili9340.c **** extern inline void _ili9340_dc(uint8_t st){HAL_GPIO_WritePin(ILI9340_DC, st ? GPIO_PIN_SET : GPIO_P
 1647              		.loc 1 7 0
 1648 0010 FFF7FEFF 		bl	HAL_GPIO_WritePin
 1649              	.LVL203:
 1650              	.LBE87:
 1651              	.LBE89:
 294:MakiseGUI/MakiseGUI/ILI9340C/ili9340.c **** }
 1652              		.loc 1 294 0
 1653 0014 2046     		mov	r0, r4
 1654 0016 FFF7FEFF 		bl	strt_tx
 1655              	.LVL204:
 295:MakiseGUI/MakiseGUI/ILI9340C/ili9340.c **** 
 1656              		.loc 1 295 0
 1657 001a 38BD     		pop	{r3, r4, r5, pc}
 1658              	.LVL205:
 1659              	.L90:
 1660              		.align	2
 1661              	.L89:
 1662 001c 00000000 		.word	.LANCHOR0
 1663 0020 00040240 		.word	1073873920
 1664              		.cfi_endproc
 1665              	.LFE139:
 1667              		.global	clrs
 1668              		.global	taaak
 1669              		.global	ili_f
 1670              		.global	w
 1671              		.comm	se,4,4
 1672              		.comm	ss,4,4
 1673              		.comm	t,4,4
 1674              		.comm	_ili9340_addr_kek,2,4
 1675              		.global	ili9340_backlight
 1676              		.section	.bss.ili9340_backlight,"aw",%nobits
 1679              	ili9340_backlight:
 1680 0000 00       		.space	1
 1681              		.section	.bss.ili_f,"aw",%nobits
 1682              		.set	.LANCHOR0,. + 0
 1685              	ili_f:
 1686 0000 00       		.space	1
 1687              		.section	.bss.taaak,"aw",%nobits
ARM GAS  /tmp/ccMF4931.s 			page 41


 1688              		.align	1
 1689              		.set	.LANCHOR2,. + 0
 1692              	taaak:
 1693 0000 0000     		.space	2
 1694              		.section	.bss.w,"aw",%nobits
 1695              		.align	2
 1696              		.set	.LANCHOR3,. + 0
 1699              	w:
 1700 0000 00000000 		.space	4
 1701              		.section	.data.clrs,"aw",%progbits
 1702              		.align	2
 1703              		.set	.LANCHOR1,. + 0
 1706              	clrs:
 1707 0000 0000     		.short	0
 1708 0002 FFFF     		.short	-1
 1709 0004 00F8     		.short	-2048
 1710 0006 E007     		.short	2016
 1711 0008 1F00     		.short	31
 1712 000a FF07     		.short	2047
 1713 000c E0FF     		.short	-32
 1714 000e 1FF8     		.short	-2017
 1715              		.text
 1716              	.Letext0:
 1717              		.file 2 "/usr/arm-none-eabi/include/machine/_default_types.h"
 1718              		.file 3 "/usr/arm-none-eabi/include/sys/_stdint.h"
 1719              		.file 4 "Drivers/CMSIS/Include/core_cm4.h"
 1720              		.file 5 "Drivers/CMSIS/Device/ST/STM32F4xx/Include/system_stm32f4xx.h"
 1721              		.file 6 "Drivers/CMSIS/Device/ST/STM32F4xx/Include/stm32f401xe.h"
 1722              		.file 7 "/usr/arm-none-eabi/include/sys/lock.h"
 1723              		.file 8 "/usr/arm-none-eabi/include/sys/_types.h"
 1724              		.file 9 "/usr/lib/gcc/arm-none-eabi/6.3.0/include/stddef.h"
 1725              		.file 10 "/usr/arm-none-eabi/include/sys/reent.h"
 1726              		.file 11 "Drivers/STM32F4xx_HAL_Driver/Inc/stm32f4xx_hal_def.h"
 1727              		.file 12 "Drivers/STM32F4xx_HAL_Driver/Inc/stm32f4xx_hal_gpio.h"
 1728              		.file 13 "Drivers/STM32F4xx_HAL_Driver/Inc/stm32f4xx_hal_dma.h"
 1729              		.file 14 "Drivers/STM32F4xx_HAL_Driver/Inc/stm32f4xx_hal_spi.h"
 1730              		.file 15 "Drivers/STM32F4xx_HAL_Driver/Inc/stm32f4xx_hal_tim.h"
 1731              		.file 16 "Inc/spi.h"
 1732              		.file 17 "Inc/tim.h"
 1733              		.file 18 "MakiseGUI/MakiseGUI/makise.h"
 1734              		.file 19 "MakiseGUI/MakiseGUI/makise_text.h"
 1735              		.file 20 "MakiseGUI/MakiseGUI/fonts/fonts.h"
 1736              		.file 21 "MakiseGUI/MakiseGUI/ILI9340C/ili9340.h"
 1737              		.file 22 "Drivers/STM32F4xx_HAL_Driver/Inc/stm32f4xx_hal.h"
ARM GAS  /tmp/ccMF4931.s 			page 42


DEFINED SYMBOLS
                            *ABS*:0000000000000000 ili9340.c
     /tmp/ccMF4931.s:18     .text.ili9340_awake:0000000000000000 $t
     /tmp/ccMF4931.s:26     .text.ili9340_awake:0000000000000000 ili9340_awake
     /tmp/ccMF4931.s:42     .text.ili9340_set_backlight:0000000000000000 $t
     /tmp/ccMF4931.s:50     .text.ili9340_set_backlight:0000000000000000 ili9340_set_backlight
     /tmp/ccMF4931.s:68     .text.ili9340_set_backlight:0000000000000008 $d
     /tmp/ccMF4931.s:73     .text.ili9340_sleep:0000000000000000 $t
     /tmp/ccMF4931.s:81     .text.ili9340_sleep:0000000000000000 ili9340_sleep
     /tmp/ccMF4931.s:93     .text._ili9340_delay:0000000000000000 $t
     /tmp/ccMF4931.s:101    .text._ili9340_delay:0000000000000000 _ili9340_delay
     /tmp/ccMF4931.s:116    .text._ili9340_rst:0000000000000000 $t
     /tmp/ccMF4931.s:124    .text._ili9340_rst:0000000000000000 _ili9340_rst
     /tmp/ccMF4931.s:144    .text._ili9340_rst:0000000000000010 $d
     /tmp/ccMF4931.s:149    .text._ili9340_cs:0000000000000000 $t
     /tmp/ccMF4931.s:157    .text._ili9340_cs:0000000000000000 _ili9340_cs
     /tmp/ccMF4931.s:177    .text._ili9340_cs:0000000000000010 $d
     /tmp/ccMF4931.s:182    .text._ili9340_dc:0000000000000000 $t
     /tmp/ccMF4931.s:190    .text._ili9340_dc:0000000000000000 _ili9340_dc
     /tmp/ccMF4931.s:210    .text._ili9340_dc:0000000000000010 $d
     /tmp/ccMF4931.s:215    .text.ili9340_driver:0000000000000000 $t
     /tmp/ccMF4931.s:223    .text.ili9340_driver:0000000000000000 ili9340_driver
     /tmp/ccMF4931.s:298    .text.ili9340_driver:000000000000003c $d
     /tmp/ccMF4931.s:687    .text.ili9340_init:0000000000000000 ili9340_init
     /tmp/ccMF4931.s:1542   .text.ili9340_start:0000000000000000 ili9340_start
     /tmp/ccMF4931.s:307    .text.ili9340_render:0000000000000000 $t
     /tmp/ccMF4931.s:315    .text.ili9340_render:0000000000000000 ili9340_render
     /tmp/ccMF4931.s:481    .text.ili9340_render:00000000000000bc $d
     /tmp/ccMF4931.s:487    .text.ili9340_spi_txhalfcplt:0000000000000000 $t
     /tmp/ccMF4931.s:495    .text.ili9340_spi_txhalfcplt:0000000000000000 ili9340_spi_txhalfcplt
     /tmp/ccMF4931.s:543    .text.ili9340_spi_txhalfcplt:000000000000002c $d
     /tmp/ccMF4931.s:549    .text.ili9340_write_data:0000000000000000 $t
     /tmp/ccMF4931.s:557    .text.ili9340_write_data:0000000000000000 ili9340_write_data
     /tmp/ccMF4931.s:608    .text.ili9340_write_data:0000000000000024 $d
     /tmp/ccMF4931.s:614    .text.ili9340_write_command:0000000000000000 $t
     /tmp/ccMF4931.s:622    .text.ili9340_write_command:0000000000000000 ili9340_write_command
     /tmp/ccMF4931.s:673    .text.ili9340_write_command:0000000000000024 $d
     /tmp/ccMF4931.s:679    .text.ili9340_init:0000000000000000 $t
     /tmp/ccMF4931.s:1185   .text.ili9340_init:00000000000002a4 $d
     /tmp/ccMF4931.s:1190   .text.setAddrWindow:0000000000000000 $t
     /tmp/ccMF4931.s:1198   .text.setAddrWindow:0000000000000000 setAddrWindow
     /tmp/ccMF4931.s:1345   .text.setAddrWindow:0000000000000088 $d
                            *COM*:0000000000000002 _ili9340_addr_kek
     /tmp/ccMF4931.s:1353   .text.strt_tx:0000000000000000 $t
     /tmp/ccMF4931.s:1361   .text.strt_tx:0000000000000000 strt_tx
     /tmp/ccMF4931.s:1524   .text.strt_tx:00000000000000ac $d
     /tmp/ccMF4931.s:1534   .text.ili9340_start:0000000000000000 $t
     /tmp/ccMF4931.s:1595   .text.ili9340_start:0000000000000024 $d
     /tmp/ccMF4931.s:1600   .text.ili9340_spi_txcplt:0000000000000000 $t
     /tmp/ccMF4931.s:1608   .text.ili9340_spi_txcplt:0000000000000000 ili9340_spi_txcplt
     /tmp/ccMF4931.s:1662   .text.ili9340_spi_txcplt:000000000000001c $d
     /tmp/ccMF4931.s:1706   .data.clrs:0000000000000000 clrs
     /tmp/ccMF4931.s:1692   .bss.taaak:0000000000000000 taaak
     /tmp/ccMF4931.s:1685   .bss.ili_f:0000000000000000 ili_f
     /tmp/ccMF4931.s:1699   .bss.w:0000000000000000 w
                            *COM*:0000000000000004 se
                            *COM*:0000000000000004 ss
ARM GAS  /tmp/ccMF4931.s 			page 43


                            *COM*:0000000000000004 t
     /tmp/ccMF4931.s:1679   .bss.ili9340_backlight:0000000000000000 ili9340_backlight
     /tmp/ccMF4931.s:1680   .bss.ili9340_backlight:0000000000000000 $d
     /tmp/ccMF4931.s:1686   .bss.ili_f:0000000000000000 $d
     /tmp/ccMF4931.s:1688   .bss.taaak:0000000000000000 $d
     /tmp/ccMF4931.s:1695   .bss.w:0000000000000000 $d
     /tmp/ccMF4931.s:1702   .data.clrs:0000000000000000 $d
                     .debug_frame:0000000000000010 $d

UNDEFINED SYMBOLS
htim3
HAL_Delay
HAL_GPIO_WritePin
HAL_GPIO_TogglePin
HAL_SPI_Transmit
hspi1
HAL_SPI_Transmit_DMA
HAL_DMA_Start_IT
HAL_TIM_Base_Start
HAL_TIM_PWM_Start
