ARM GAS  /tmp/ccLUezKG.s 			page 1


   1              		.cpu cortex-m4
   2              		.eabi_attribute 27, 1
   3              		.eabi_attribute 28, 1
   4              		.eabi_attribute 23, 1
   5              		.eabi_attribute 24, 1
   6              		.eabi_attribute 25, 1
   7              		.eabi_attribute 26, 1
   8              		.eabi_attribute 30, 2
   9              		.eabi_attribute 34, 1
  10              		.eabi_attribute 18, 4
  11              		.file	"list_test.c"
  12              		.text
  13              	.Ltext0:
  14              		.cfi_sections	.debug_frame
  15              		.section	.text.b_add,"ax",%progbits
  16              		.align	1
  17              		.p2align 2,,3
  18              		.global	b_add
  19              		.syntax unified
  20              		.thumb
  21              		.thumb_func
  22              		.fpu fpv4-sp-d16
  24              	b_add:
  25              	.LFB126:
  26              		.file 1 "apps/list_test.c"
   1:apps/list_test.c **** #include "list_test.h"
   2:apps/list_test.c **** 
   3:apps/list_test.c **** MButton butt[4];
   4:apps/list_test.c **** MCanvas canv[2];
   5:apps/list_test.c **** MLable  labls[2];
   6:apps/list_test.c **** MTextField tf[2];
   7:apps/list_test.c **** MSList   list[2];
   8:apps/list_test.c **** MSlider  slider[3];
   9:apps/list_test.c **** MTabs tabs;
  10:apps/list_test.c **** 
  11:apps/list_test.c **** char* sample_string = "Lorem ipsum dolor sit amet, consectetur adipiscing elit, sed do eiusmod temp
  12:apps/list_test.c **** 
  13:apps/list_test.c **** 
  14:apps/list_test.c **** MakiseStyle button_style =
  15:apps/list_test.c **** {
  16:apps/list_test.c ****     MC_White,
  17:apps/list_test.c ****     &F_Arial24,
  18:apps/list_test.c ****     0,
  19:apps/list_test.c ****     //bg       font     border   double_border
  20:apps/list_test.c ****     {MC_Black, MC_Gray, MC_Gray, 0},  //unactive
  21:apps/list_test.c ****     {MC_Black, MC_White, MC_White, 0},//normal
  22:apps/list_test.c ****     {MC_White, MC_Black, MC_White, 0}, //focused
  23:apps/list_test.c ****     {MC_Green, MC_White, MC_White, 0}, //active
  24:apps/list_test.c **** };
  25:apps/list_test.c **** MakiseStyle canvas_style =
  26:apps/list_test.c **** {
  27:apps/list_test.c ****     MC_White,
  28:apps/list_test.c ****     &F_Arial24,
  29:apps/list_test.c ****     0,
  30:apps/list_test.c ****     //bg       font     border   double_border
  31:apps/list_test.c ****     {MC_Black, MC_Gray, MC_Gray,    0},  //unactive
  32:apps/list_test.c ****     {MC_Gray, MC_White, MC_White, 0},  //normal
ARM GAS  /tmp/ccLUezKG.s 			page 2


  33:apps/list_test.c ****     {MC_Black, MC_White, MC_White,   0},  //focused
  34:apps/list_test.c ****     {MC_Black, MC_White, MC_White, 0},  //active
  35:apps/list_test.c **** };
  36:apps/list_test.c **** MakiseStyle lable_style =
  37:apps/list_test.c **** {
  38:apps/list_test.c ****     MC_White,
  39:apps/list_test.c ****     &F_Arial15,
  40:apps/list_test.c ****     0,
  41:apps/list_test.c ****     //bg       font     border   double_border
  42:apps/list_test.c ****     {MC_Gray, MC_Gray, MC_Gray, 0},  //unactive
  43:apps/list_test.c ****     {MC_Black, MC_White, MC_Black, 0},//normal
  44:apps/list_test.c ****     {MC_Blue, MC_White, MC_Blue, 0}, //focused
  45:apps/list_test.c ****     {MC_Black, MC_Green, MC_Black, 0}, //active
  46:apps/list_test.c **** };
  47:apps/list_test.c **** MakiseStyle text_style =
  48:apps/list_test.c **** {
  49:apps/list_test.c ****     MC_White,
  50:apps/list_test.c ****     &F_Arial15,
  51:apps/list_test.c ****     3,
  52:apps/list_test.c ****     //bg       font     border   double_border
  53:apps/list_test.c ****     {MC_Black, MC_White, MC_Gray, 0},  //unactive
  54:apps/list_test.c ****     {MC_Black, MC_White, MC_Green, 0},  //unactive
  55:apps/list_test.c ****     {0, 0, 0, 0}, //focused
  56:apps/list_test.c ****     {0, 0, 0, 0}, //active
  57:apps/list_test.c **** };
  58:apps/list_test.c **** MakiseStyle slider_style =
  59:apps/list_test.c **** {
  60:apps/list_test.c ****     MC_White,
  61:apps/list_test.c ****     &F_Arial15,
  62:apps/list_test.c ****     3,
  63:apps/list_test.c ****         //bg       font     border   double_border
  64:apps/list_test.c ****     {MC_Gray, MC_Gray, MC_Gray, 0},  //unactive
  65:apps/list_test.c ****     {MC_Black, MC_White, MC_Black, 0},//normal
  66:apps/list_test.c ****     {MC_Blue, MC_White, MC_Blue, 0}, //focused
  67:apps/list_test.c ****     {MC_Black, MC_Green, MC_Black, 0}, //active
  68:apps/list_test.c **** };
  69:apps/list_test.c **** 
  70:apps/list_test.c **** char *t_ok = "OK",
  71:apps/list_test.c ****     *t_canc = "Cancel",
  72:apps/list_test.c ****     *t_add = "Add",
  73:apps/list_test.c ****     *t_remove = "Remove";
  74:apps/list_test.c **** 
  75:apps/list_test.c **** 
  76:apps/list_test.c **** char *t_list[] = {
  77:apps/list_test.c ****     "Hello",
  78:apps/list_test.c ****     "Тест",//({210, 229, 241, 242, 0}),
  79:apps/list_test.c ****     "string",
  80:apps/list_test.c ****     "method",
  81:apps/list_test.c ****     "Русские буквы?",
  82:apps/list_test.c ****     "GPS",
  83:apps/list_test.c ****     "SD card",
  84:apps/list_test.c ****     "Camera",
  85:apps/list_test.c ****     "insert",
  86:apps/list_test.c ****     "ВАУ!"
  87:apps/list_test.c **** };
  88:apps/list_test.c **** MSList_Item l_source[10] = {{0}};
  89:apps/list_test.c **** MSList_Item l_dest[1024] = {{0}};
ARM GAS  /tmp/ccLUezKG.s 			page 3


  90:apps/list_test.c **** int32_t slider_val[3] = {0};
  91:apps/list_test.c **** 
  92:apps/list_test.c **** MTabs_Tab tabs_source[] =
  93:apps/list_test.c **** {
  94:apps/list_test.c ****     {"Start", {0}},
  95:apps/list_test.c ****     {"Sliders", {0}},
  96:apps/list_test.c ****     {"Text", {0}},
  97:apps/list_test.c **** };
  98:apps/list_test.c **** 
  99:apps/list_test.c **** uint32_t s_i = 0;
 100:apps/list_test.c **** void b_add(MButton *b)
 101:apps/list_test.c **** {
  27              		.loc 1 101 0
  28              		.cfi_startproc
  29              		@ args = 0, pretend = 0, frame = 0
  30              		@ frame_needed = 0, uses_anonymous_args = 0
  31              	.LVL0:
  32 0000 38B5     		push	{r3, r4, r5, lr}
  33              	.LCFI0:
  34              		.cfi_def_cfa_offset 16
  35              		.cfi_offset 3, -16
  36              		.cfi_offset 4, -12
  37              		.cfi_offset 5, -8
  38              		.cfi_offset 14, -4
  39              	.LBB2:
 102:apps/list_test.c ****     tabs.selected = 1;
 103:apps/list_test.c ****     for (uint32_t i = 0; i < 10; i++) {
 104:apps/list_test.c **** 	if(l_source[i].value)
  40              		.loc 1 104 0
  41 0002 224B     		ldr	r3, .L19
  42              	.LBE2:
 102:apps/list_test.c ****     tabs.selected = 1;
  43              		.loc 1 102 0
  44 0004 2248     		ldr	r0, .L19+4
  45              	.LVL1:
  46              	.LBB3:
  47              		.loc 1 104 0
  48 0006 1969     		ldr	r1, [r3, #16]
  49              	.LBE3:
 102:apps/list_test.c ****     tabs.selected = 1;
  50              		.loc 1 102 0
  51 0008 0122     		movs	r2, #1
  52 000a 0266     		str	r2, [r0, #96]
  53              	.LVL2:
  54              	.LBB4:
  55              		.loc 1 104 0
  56 000c 69BB     		cbnz	r1, .L4
  57              	.LVL3:
  58 000e 596A     		ldr	r1, [r3, #36]
  59 0010 A9B9     		cbnz	r1, .L2
  60              	.LVL4:
  61 0012 9A6B     		ldr	r2, [r3, #56]
  62 0014 5ABB     		cbnz	r2, .L6
  63              	.LVL5:
  64 0016 DA6C     		ldr	r2, [r3, #76]
  65 0018 5ABB     		cbnz	r2, .L7
  66              	.LVL6:
ARM GAS  /tmp/ccLUezKG.s 			page 4


  67 001a 1A6E     		ldr	r2, [r3, #96]
  68 001c 5ABB     		cbnz	r2, .L8
  69              	.LVL7:
  70 001e 5A6F     		ldr	r2, [r3, #116]
  71 0020 5ABB     		cbnz	r2, .L9
  72              	.LVL8:
  73 0022 D3F88820 		ldr	r2, [r3, #136]
  74 0026 52BB     		cbnz	r2, .L10
  75              	.LVL9:
  76 0028 D3F89C20 		ldr	r2, [r3, #156]
  77 002c 4ABB     		cbnz	r2, .L11
  78              	.LVL10:
  79 002e D3F8B020 		ldr	r2, [r3, #176]
  80 0032 1AB9     		cbnz	r2, .L12
  81              	.LVL11:
  82 0034 D3F8C420 		ldr	r2, [r3, #196]
  83 0038 2ABB     		cbnz	r2, .L18
  84 003a 38BD     		pop	{r3, r4, r5, pc}
  85              	.LVL12:
  86              	.L12:
 103:apps/list_test.c **** 	if(l_source[i].value)
  87              		.loc 1 103 0
  88 003c 0822     		movs	r2, #8
  89              	.LVL13:
  90              	.L2:
 105:apps/list_test.c **** 	{
 106:apps/list_test.c **** 	    l_dest[s_i].id = s_i;
  91              		.loc 1 106 0
  92 003e 154C     		ldr	r4, .L19+8
  93 0040 1549     		ldr	r1, .L19+12
  94 0042 2568     		ldr	r5, [r4]
 107:apps/list_test.c **** 	    l_dest[s_i].text = l_source[i].text;
 108:apps/list_test.c **** 	    m_slist_add(&list[1], &l_dest[s_i]);
  95              		.loc 1 108 0
  96 0044 1548     		ldr	r0, .L19+16
 107:apps/list_test.c **** 	    l_dest[s_i].text = l_source[i].text;
  97              		.loc 1 107 0
  98 0046 02EB8202 		add	r2, r2, r2, lsl #2
  99 004a 03EB8203 		add	r3, r3, r2, lsl #2
 106:apps/list_test.c **** 	    l_dest[s_i].text = l_source[i].text;
 100              		.loc 1 106 0
 101 004e 05EB8502 		add	r2, r5, r5, lsl #2
 102 0052 01EB8202 		add	r2, r1, r2, lsl #2
 107:apps/list_test.c **** 	    l_dest[s_i].text = l_source[i].text;
 103              		.loc 1 107 0
 104 0056 DB68     		ldr	r3, [r3, #12]
 105 0058 D360     		str	r3, [r2, #12]
 106              		.loc 1 108 0
 107 005a 1146     		mov	r1, r2
 106:apps/list_test.c **** 	    l_dest[s_i].text = l_source[i].text;
 108              		.loc 1 106 0
 109 005c 9560     		str	r5, [r2, #8]
 110              		.loc 1 108 0
 111 005e FFF7FEFF 		bl	m_slist_add
 112              	.LVL14:
 109:apps/list_test.c **** 	    s_i ++;
 113              		.loc 1 109 0
ARM GAS  /tmp/ccLUezKG.s 			page 5


 114 0062 2368     		ldr	r3, [r4]
 115 0064 0133     		adds	r3, r3, #1
 116 0066 2360     		str	r3, [r4]
 117 0068 38BD     		pop	{r3, r4, r5, pc}
 118              	.LVL15:
 119              	.L4:
 103:apps/list_test.c **** 	if(l_source[i].value)
 120              		.loc 1 103 0
 121 006a 0022     		movs	r2, #0
 122 006c E7E7     		b	.L2
 123              	.LVL16:
 124              	.L6:
 125 006e 0222     		movs	r2, #2
 126 0070 E5E7     		b	.L2
 127              	.LVL17:
 128              	.L7:
 129 0072 0322     		movs	r2, #3
 130 0074 E3E7     		b	.L2
 131              	.LVL18:
 132              	.L8:
 133 0076 0422     		movs	r2, #4
 134 0078 E1E7     		b	.L2
 135              	.LVL19:
 136              	.L9:
 137 007a 0522     		movs	r2, #5
 138 007c DFE7     		b	.L2
 139              	.LVL20:
 140              	.L10:
 141 007e 0622     		movs	r2, #6
 142 0080 DDE7     		b	.L2
 143              	.LVL21:
 144              	.L11:
 145 0082 0722     		movs	r2, #7
 146 0084 DBE7     		b	.L2
 147              	.LVL22:
 148              	.L18:
 149 0086 0922     		movs	r2, #9
 150 0088 D9E7     		b	.L2
 151              	.L20:
 152 008a 00BF     		.align	2
 153              	.L19:
 154 008c 00000000 		.word	.LANCHOR0
 155 0090 00000000 		.word	tabs
 156 0094 00000000 		.word	.LANCHOR1
 157 0098 00000000 		.word	.LANCHOR2
 158 009c 80000000 		.word	list+128
 159              	.LBE4:
 160              		.cfi_endproc
 161              	.LFE126:
 163              		.section	.text.b_rem,"ax",%progbits
 164              		.align	1
 165              		.p2align 2,,3
 166              		.global	b_rem
 167              		.syntax unified
 168              		.thumb
 169              		.thumb_func
 170              		.fpu fpv4-sp-d16
ARM GAS  /tmp/ccLUezKG.s 			page 6


 172              	b_rem:
 173              	.LFB127:
 110:apps/list_test.c **** 	    return;
 111:apps/list_test.c **** 	}
 112:apps/list_test.c ****     }
 113:apps/list_test.c **** }
 114:apps/list_test.c **** void b_rem(MButton *b)
 115:apps/list_test.c **** {
 174              		.loc 1 115 0
 175              		.cfi_startproc
 176              		@ args = 0, pretend = 0, frame = 0
 177              		@ frame_needed = 0, uses_anonymous_args = 0
 178              	.LVL23:
 179 0000 38B5     		push	{r3, r4, r5, lr}
 180              	.LCFI1:
 181              		.cfi_def_cfa_offset 16
 182              		.cfi_offset 3, -16
 183              		.cfi_offset 4, -12
 184              		.cfi_offset 5, -8
 185              		.cfi_offset 14, -4
 116:apps/list_test.c ****     tabs.selected = 2;
 117:apps/list_test.c ****     MSList_Item *i = list[1].items, *n = 0;
 186              		.loc 1 117 0
 187 0002 0B4D     		ldr	r5, .L31
 116:apps/list_test.c ****     tabs.selected = 2;
 188              		.loc 1 116 0
 189 0004 0B4B     		ldr	r3, .L31+4
 190              		.loc 1 117 0
 191 0006 D5F8D810 		ldr	r1, [r5, #216]
 192              	.LVL24:
 116:apps/list_test.c ****     tabs.selected = 2;
 193              		.loc 1 116 0
 194 000a 0222     		movs	r2, #2
 195 000c 1A66     		str	r2, [r3, #96]
 118:apps/list_test.c ****     while (i != 0) {
 196              		.loc 1 118 0
 197 000e 69B1     		cbz	r1, .L21
 119:apps/list_test.c **** 	n = i->next;
 120:apps/list_test.c **** 	      
 121:apps/list_test.c **** 	if(i->value)
 122:apps/list_test.c **** 	    m_slist_remove(&list[1], i);
 198              		.loc 1 122 0
 199 0010 8035     		adds	r5, r5, #128
 200 0012 01E0     		b	.L24
 201              	.LVL25:
 202              	.L23:
 118:apps/list_test.c ****     while (i != 0) {
 203              		.loc 1 118 0
 204 0014 2146     		mov	r1, r4
 205 0016 4CB1     		cbz	r4, .L21
 206              	.LVL26:
 207              	.L24:
 121:apps/list_test.c **** 	    m_slist_remove(&list[1], i);
 208              		.loc 1 121 0
 209 0018 0B69     		ldr	r3, [r1, #16]
 119:apps/list_test.c **** 	n = i->next;
 210              		.loc 1 119 0
ARM GAS  /tmp/ccLUezKG.s 			page 7


 211 001a 4C68     		ldr	r4, [r1, #4]
 212              	.LVL27:
 121:apps/list_test.c **** 	    m_slist_remove(&list[1], i);
 213              		.loc 1 121 0
 214 001c 002B     		cmp	r3, #0
 215 001e F9D0     		beq	.L23
 216              		.loc 1 122 0
 217 0020 2846     		mov	r0, r5
 218 0022 FFF7FEFF 		bl	m_slist_remove
 219              	.LVL28:
 118:apps/list_test.c ****     while (i != 0) {
 220              		.loc 1 118 0
 221 0026 2146     		mov	r1, r4
 222 0028 002C     		cmp	r4, #0
 223 002a F5D1     		bne	.L24
 224              	.LVL29:
 225              	.L21:
 226 002c 38BD     		pop	{r3, r4, r5, pc}
 227              	.L32:
 228 002e 00BF     		.align	2
 229              	.L31:
 230 0030 00000000 		.word	list
 231 0034 00000000 		.word	tabs
 232              		.cfi_endproc
 233              	.LFE127:
 235              		.section	.text.s_onchange,"ax",%progbits
 236              		.align	1
 237              		.p2align 2,,3
 238              		.global	s_onchange
 239              		.syntax unified
 240              		.thumb
 241              		.thumb_func
 242              		.fpu fpv4-sp-d16
 244              	s_onchange:
 245              	.LFB131:
 123:apps/list_test.c **** 	i = n;
 124:apps/list_test.c ****     }
 125:apps/list_test.c **** }
 126:apps/list_test.c **** void l_add(MSList *l, MSList_Item *i)
 127:apps/list_test.c **** {
 128:apps/list_test.c ****     
 129:apps/list_test.c ****     /* l_dest[s_i].id = s_i; */
 130:apps/list_test.c ****     /* l_dest[s_i].text = i->text; */
 131:apps/list_test.c ****     /* m_slist_add(&list[1], &l_dest[s_i]); */
 132:apps/list_test.c ****     /* s_i ++; */
 133:apps/list_test.c **** }
 134:apps/list_test.c **** void l_rem(MSList *l, MSList_Item *i)
 135:apps/list_test.c **** {
 136:apps/list_test.c ****     /* if(list[1].selected) */
 137:apps/list_test.c ****     /* 	m_slist_remove(l, i); */
 138:apps/list_test.c **** }
 139:apps/list_test.c **** void l_onselection(MSList *l, MSList_Item *i)
 140:apps/list_test.c **** {
 141:apps/list_test.c **** }
 142:apps/list_test.c **** 
 143:apps/list_test.c **** char slider_text[100] = {0};
 144:apps/list_test.c **** void s_onchange(MSlider* b, uint32_t val)
ARM GAS  /tmp/ccLUezKG.s 			page 8


 145:apps/list_test.c **** {
 246              		.loc 1 145 0
 247              		.cfi_startproc
 248              		@ args = 0, pretend = 0, frame = 0
 249              		@ frame_needed = 0, uses_anonymous_args = 0
 250              	.LVL30:
 251 0000 00B5     		push	{lr}
 252              	.LCFI2:
 253              		.cfi_def_cfa_offset 4
 254              		.cfi_offset 14, -4
 146:apps/list_test.c ****     sprintf(slider_text, "%02d %02d %03d", slider_val[0],
 255              		.loc 1 146 0
 256 0002 0648     		ldr	r0, .L35
 257              	.LVL31:
 258 0004 0649     		ldr	r1, .L35+4
 259              	.LVL32:
 145:apps/list_test.c ****     sprintf(slider_text, "%02d %02d %03d", slider_val[0],
 260              		.loc 1 145 0
 261 0006 83B0     		sub	sp, sp, #12
 262              	.LCFI3:
 263              		.cfi_def_cfa_offset 16
 264              		.loc 1 146 0
 265 0008 90E80C00 		ldm	r0, {r2, r3}
 266 000c 8068     		ldr	r0, [r0, #8]
 267 000e 0090     		str	r0, [sp]
 268 0010 0448     		ldr	r0, .L35+8
 269 0012 FFF7FEFF 		bl	sprintf
 270              	.LVL33:
 147:apps/list_test.c **** 	    slider_val[1],
 148:apps/list_test.c **** 	    slider_val[2]);
 149:apps/list_test.c **** }
 271              		.loc 1 149 0
 272 0016 03B0     		add	sp, sp, #12
 273              	.LCFI4:
 274              		.cfi_def_cfa_offset 4
 275              		@ sp needed
 276 0018 5DF804FB 		ldr	pc, [sp], #4
 277              	.L36:
 278              		.align	2
 279              	.L35:
 280 001c 00000000 		.word	.LANCHOR3
 281 0020 00000000 		.word	.LC0
 282 0024 00000000 		.word	.LANCHOR4
 283              		.cfi_endproc
 284              	.LFE131:
 286              		.section	.text.l_add,"ax",%progbits
 287              		.align	1
 288              		.p2align 2,,3
 289              		.global	l_add
 290              		.syntax unified
 291              		.thumb
 292              		.thumb_func
 293              		.fpu fpv4-sp-d16
 295              	l_add:
 296              	.LFB136:
 297              		.cfi_startproc
 298              		@ args = 0, pretend = 0, frame = 0
ARM GAS  /tmp/ccLUezKG.s 			page 9


 299              		@ frame_needed = 0, uses_anonymous_args = 0
 300              		@ link register save eliminated.
 301 0000 7047     		bx	lr
 302              		.cfi_endproc
 303              	.LFE136:
 305 0002 00BF     		.section	.text.l_rem,"ax",%progbits
 306              		.align	1
 307              		.p2align 2,,3
 308              		.global	l_rem
 309              		.syntax unified
 310              		.thumb
 311              		.thumb_func
 312              		.fpu fpv4-sp-d16
 314              	l_rem:
 315              	.LFB134:
 316              		.cfi_startproc
 317              		@ args = 0, pretend = 0, frame = 0
 318              		@ frame_needed = 0, uses_anonymous_args = 0
 319              		@ link register save eliminated.
 320 0000 7047     		bx	lr
 321              		.cfi_endproc
 322              	.LFE134:
 324 0002 00BF     		.section	.text.l_onselection,"ax",%progbits
 325              		.align	1
 326              		.p2align 2,,3
 327              		.global	l_onselection
 328              		.syntax unified
 329              		.thumb
 330              		.thumb_func
 331              		.fpu fpv4-sp-d16
 333              	l_onselection:
 334              	.LFB130:
 140:apps/list_test.c **** }
 335              		.loc 1 140 0
 336              		.cfi_startproc
 337              		@ args = 0, pretend = 0, frame = 0
 338              		@ frame_needed = 0, uses_anonymous_args = 0
 339              		@ link register save eliminated.
 340              	.LVL34:
 341 0000 7047     		bx	lr
 342              		.cfi_endproc
 343              	.LFE130:
 345 0002 00BF     		.section	.text.at_list_init,"ax",%progbits
 346              		.align	1
 347              		.p2align 2,,3
 348              		.global	at_list_init
 349              		.syntax unified
 350              		.thumb
 351              		.thumb_func
 352              		.fpu fpv4-sp-d16
 354              	at_list_init:
 355              	.LFB132:
 150:apps/list_test.c ****     
 151:apps/list_test.c **** void at_list_init(MakiseGUI *gui, MHost *host)
 152:apps/list_test.c **** {
 356              		.loc 1 152 0
 357              		.cfi_startproc
ARM GAS  /tmp/ccLUezKG.s 			page 10


 358              		@ args = 0, pretend = 0, frame = 8
 359              		@ frame_needed = 0, uses_anonymous_args = 0
 360              	.LVL35:
 361              		.loc 1 152 0
 362 0000 2DE9F04F 		push	{r4, r5, r6, r7, r8, r9, r10, fp, lr}
 363              	.LCFI5:
 364              		.cfi_def_cfa_offset 36
 365              		.cfi_offset 4, -36
 366              		.cfi_offset 5, -32
 367              		.cfi_offset 6, -28
 368              		.cfi_offset 7, -24
 369              		.cfi_offset 8, -20
 370              		.cfi_offset 9, -16
 371              		.cfi_offset 10, -12
 372              		.cfi_offset 11, -8
 373              		.cfi_offset 14, -4
 374 0004 8BB0     		sub	sp, sp, #44
 375              	.LCFI6:
 376              		.cfi_def_cfa_offset 80
 153:apps/list_test.c **** //    m_create_slist(&list[0], host->host, 3, 10, 156, 145, "lol", &l_onselection, &l_add, MSList_R
 154:apps/list_test.c **** 
 155:apps/list_test.c **** //    m_create_slist(&list[1], host->host, 160, 10, 156, 145, 0, &l_onselection, &l_rem, MSList_Che
 156:apps/list_test.c **** 
 157:apps/list_test.c ****     m_create_tabs(&tabs, host->host,
 377              		.loc 1 157 0
 378 0006 664B     		ldr	r3, .L42
 379 0008 664D     		ldr	r5, .L42+4
 158:apps/list_test.c **** 		  0, 10, 320, 200,
 159:apps/list_test.c **** 		  tabs_source, 3,
 160:apps/list_test.c **** 		  MTabs_Type_Left, 75,
 161:apps/list_test.c **** 		  &canvas_style);
 162:apps/list_test.c ****     
 163:apps/list_test.c ****     m_create_button(&butt[0], &tabs_source[0].cont, 10, 103, 100, 35, t_add, &b_add, 0, 0, &button_
 380              		.loc 1 163 0
 381 000a 674F     		ldr	r7, .L42+8
 382 000c DFF8DCA1 		ldr	r10, .L42+76
 164:apps/list_test.c ****     m_create_button(&butt[1], host->host, 115, 183, 100, 35, t_remove, &b_rem, 0, 0, &button_style)
 165:apps/list_test.c **** 
 166:apps/list_test.c ****     m_create_text_field(&tf[0], &tabs_source[2].cont,
 167:apps/list_test.c **** 			5, 0, 310, 150,
 168:apps/list_test.c **** 			sample_string,
 169:apps/list_test.c **** 			&text_style);
 170:apps/list_test.c **** 
 171:apps/list_test.c ****     m_create_slider(slider, &tabs_source[1].cont,
 383              		.loc 1 171 0
 384 0010 DFF8DC81 		ldr	r8, .L42+80
 152:apps/list_test.c **** //    m_create_slist(&list[0], host->host, 3, 10, 156, 145, "lol", &l_onselection, &l_add, MSList_R
 385              		.loc 1 152 0
 386 0014 8B46     		mov	fp, r1
 157:apps/list_test.c **** 		  0, 10, 320, 200,
 387              		.loc 1 157 0
 388 0016 4B26     		movs	r6, #75
 389 0018 0968     		ldr	r1, [r1]
 390              	.LVL36:
 391 001a 0693     		str	r3, [sp, #24]
 392 001c 0124     		movs	r4, #1
 393 001e 0320     		movs	r0, #3
ARM GAS  /tmp/ccLUezKG.s 			page 11


 394              	.LVL37:
 395 0020 C822     		movs	r2, #200
 396 0022 4FF4A073 		mov	r3, #320
 397 0026 0596     		str	r6, [sp, #20]
 398 0028 0494     		str	r4, [sp, #16]
 399 002a 0390     		str	r0, [sp, #12]
 400 002c 0295     		str	r5, [sp, #8]
 401 002e 0192     		str	r2, [sp, #4]
 402 0030 0093     		str	r3, [sp]
 403 0032 0022     		movs	r2, #0
 404 0034 0A23     		movs	r3, #10
 405 0036 5D48     		ldr	r0, .L42+12
 406              		.loc 1 171 0
 407 0038 5D4E     		ldr	r6, .L42+16
 157:apps/list_test.c **** 		  0, 10, 320, 200,
 408              		.loc 1 157 0
 409 003a FFF7FEFF 		bl	m_create_tabs
 410              	.LVL38:
 163:apps/list_test.c ****     m_create_button(&butt[1], host->host, 115, 183, 100, 35, t_remove, &b_rem, 0, 0, &button_style)
 411              		.loc 1 163 0
 412 003e 5D4A     		ldr	r2, .L42+20
 413 0040 5D4B     		ldr	r3, .L42+24
 414 0042 1268     		ldr	r2, [r2]
 415 0044 0393     		str	r3, [sp, #12]
 416 0046 0024     		movs	r4, #0
 417 0048 4FF02309 		mov	r9, #35
 418 004c 6423     		movs	r3, #100
 419 004e 0292     		str	r2, [sp, #8]
 420 0050 291D     		adds	r1, r5, #4
 421 0052 3846     		mov	r0, r7
 422 0054 CDF818A0 		str	r10, [sp, #24]
 423 0058 0594     		str	r4, [sp, #20]
 424 005a 0494     		str	r4, [sp, #16]
 425 005c CDF80490 		str	r9, [sp, #4]
 426 0060 0093     		str	r3, [sp]
 427 0062 0A22     		movs	r2, #10
 428 0064 6723     		movs	r3, #103
 429 0066 FFF7FEFF 		bl	m_create_button
 430              	.LVL39:
 164:apps/list_test.c **** 
 431              		.loc 1 164 0
 432 006a 544B     		ldr	r3, .L42+28
 433 006c DBF80010 		ldr	r1, [fp]
 434 0070 1A68     		ldr	r2, [r3]
 435 0072 534B     		ldr	r3, .L42+32
 436 0074 CDF818A0 		str	r10, [sp, #24]
 437 0078 6420     		movs	r0, #100
 438 007a 0594     		str	r4, [sp, #20]
 439 007c 0494     		str	r4, [sp, #16]
 440 007e CDF80490 		str	r9, [sp, #4]
 441 0082 0090     		str	r0, [sp]
 442 0084 0292     		str	r2, [sp, #8]
 443 0086 07F16C00 		add	r0, r7, #108
 444 008a 0393     		str	r3, [sp, #12]
 445 008c 7322     		movs	r2, #115
 446 008e B723     		movs	r3, #183
 447 0090 FFF7FEFF 		bl	m_create_button
ARM GAS  /tmp/ccLUezKG.s 			page 12


 448              	.LVL40:
 166:apps/list_test.c **** 			5, 0, 310, 150,
 449              		.loc 1 166 0
 450 0094 4B4B     		ldr	r3, .L42+36
 451 0096 4C48     		ldr	r0, .L42+40
 452 0098 1B68     		ldr	r3, [r3]
 453 009a 0293     		str	r3, [sp, #8]
 454 009c 4FF09609 		mov	r9, #150
 455 00a0 4FF49B72 		mov	r2, #310
 456 00a4 2346     		mov	r3, r4
 457 00a6 05F14401 		add	r1, r5, #68
 458 00aa 0390     		str	r0, [sp, #12]
 459 00ac 8DE80402 		stm	sp, {r2, r9}
 460 00b0 4648     		ldr	r0, .L42+44
 461 00b2 0522     		movs	r2, #5
 462 00b4 FFF7FEFF 		bl	m_create_text_field
 463              	.LVL41:
 464              		.loc 1 171 0
 465 00b8 454B     		ldr	r3, .L42+48
 466 00ba 0793     		str	r3, [sp, #28]
 467 00bc 4FF00A0A 		mov	r10, #10
 468 00c0 2435     		adds	r5, r5, #36
 469 00c2 4FF0280B 		mov	fp, #40
 470              	.LVL42:
 471 00c6 434B     		ldr	r3, .L42+52
 472 00c8 0694     		str	r4, [sp, #24]
 473 00ca 0494     		str	r4, [sp, #16]
 474 00cc 2946     		mov	r1, r5
 475 00ce 4046     		mov	r0, r8
 476 00d0 0593     		str	r3, [sp, #20]
 477 00d2 5246     		mov	r2, r10
 478 00d4 0296     		str	r6, [sp, #8]
 479 00d6 CDF80090 		str	r9, [sp]
 480 00da CDF80CA0 		str	r10, [sp, #12]
 481 00de CDF804B0 		str	fp, [sp, #4]
 482 00e2 0523     		movs	r3, #5
 483 00e4 FFF7FEFF 		bl	m_create_slider
 484              	.LVL43:
 172:apps/list_test.c **** 		    10, 5, 150, 40,
 173:apps/list_test.c **** 		    &slider_val[0],
 174:apps/list_test.c **** 		    10,
 175:apps/list_test.c **** 		    0,
 176:apps/list_test.c **** 		    &s_onchange, 0,
 177:apps/list_test.c **** 		    &slider_style);
 178:apps/list_test.c ****     m_create_slider(&slider[1], &tabs_source[1].cont,
 485              		.loc 1 178 0
 486 00e8 3949     		ldr	r1, .L42+48
 487 00ea 0791     		str	r1, [sp, #28]
 488 00ec 321D     		adds	r2, r6, #4
 489 00ee 0C23     		movs	r3, #12
 490 00f0 3849     		ldr	r1, .L42+52
 491 00f2 0694     		str	r4, [sp, #24]
 492 00f4 0591     		str	r1, [sp, #20]
 493 00f6 0494     		str	r4, [sp, #16]
 494 00f8 2946     		mov	r1, r5
 495 00fa 0292     		str	r2, [sp, #8]
 496 00fc 08F17000 		add	r0, r8, #112
ARM GAS  /tmp/ccLUezKG.s 			page 13


 497 0100 5246     		mov	r2, r10
 498 0102 0193     		str	r3, [sp, #4]
 499 0104 CDF80CA0 		str	r10, [sp, #12]
 500 0108 CDF80090 		str	r9, [sp]
 501 010c 3223     		movs	r3, #50
 502 010e FFF7FEFF 		bl	m_create_slider
 503              	.LVL44:
 179:apps/list_test.c **** 		    10, 50, 150, 12,
 180:apps/list_test.c **** 		    &slider_val[1],
 181:apps/list_test.c **** 		    10,
 182:apps/list_test.c **** 		    0,
 183:apps/list_test.c **** 		    &s_onchange, 0,
 184:apps/list_test.c **** 		    &slider_style);
 185:apps/list_test.c ****     m_create_slider(&slider[3], &tabs_source[1].cont,
 504              		.loc 1 185 0
 505 0112 6422     		movs	r2, #100
 506 0114 0392     		str	r2, [sp, #12]
 507 0116 2E4A     		ldr	r2, .L42+48
 508 0118 0792     		str	r2, [sp, #28]
 509 011a 0836     		adds	r6, r6, #8
 510 011c 1223     		movs	r3, #18
 511 011e 2D4A     		ldr	r2, .L42+52
 512 0120 0296     		str	r6, [sp, #8]
 513 0122 0694     		str	r4, [sp, #24]
 514 0124 0592     		str	r2, [sp, #20]
 515 0126 0494     		str	r4, [sp, #16]
 516 0128 08F5A870 		add	r0, r8, #336
 517 012c 2946     		mov	r1, r5
 518 012e 0093     		str	r3, [sp]
 519 0130 CDF80490 		str	r9, [sp, #4]
 520 0134 0523     		movs	r3, #5
 521 0136 AA22     		movs	r2, #170
 522 0138 FFF7FEFF 		bl	m_create_slider
 523              	.LVL45:
 186:apps/list_test.c **** 		    170, 5, 18, 150,
 187:apps/list_test.c **** 		    &slider_val[2],
 188:apps/list_test.c **** 		    100,
 189:apps/list_test.c **** 		    0,
 190:apps/list_test.c **** 		    &s_onchange, 0,
 191:apps/list_test.c **** 		    &slider_style);
 192:apps/list_test.c **** 
 193:apps/list_test.c ****     m_create_lable(labls, &tabs_source[1].cont,
 524              		.loc 1 193 0
 525 013c 2648     		ldr	r0, .L42+56
 526 013e 274B     		ldr	r3, .L42+60
 527 0140 0390     		str	r0, [sp, #12]
 528 0142 2946     		mov	r1, r5
 529 0144 5246     		mov	r2, r10
 530 0146 0293     		str	r3, [sp, #8]
 531 0148 CDF804B0 		str	fp, [sp, #4]
 532 014c CDF80090 		str	r9, [sp]
 533 0150 4623     		movs	r3, #70
 534 0152 2348     		ldr	r0, .L42+64
 535 0154 FFF7FEFF 		bl	m_create_lable
 536              	.LVL46:
 537              	.LBB5:
 194:apps/list_test.c **** 		   10, 70, 150, 40,
ARM GAS  /tmp/ccLUezKG.s 			page 14


 195:apps/list_test.c **** 		   slider_text,
 196:apps/list_test.c **** 		   &lable_style);
 197:apps/list_test.c **** 		   
 198:apps/list_test.c **** 		   
 199:apps/list_test.c **** 
 200:apps/list_test.c ****     for (uint32_t i = 0; i < 10; i++) {
 201:apps/list_test.c **** 	l_source[i].text = t_list[i];
 538              		.loc 1 201 0
 539 0158 2249     		ldr	r1, .L42+68
 540 015a 234B     		ldr	r3, .L42+72
 541 015c 0A69     		ldr	r2, [r1, #16]
 542 015e 0992     		str	r2, [sp, #36]
 543 0160 4A69     		ldr	r2, [r1, #20]
 544 0162 1A67     		str	r2, [r3, #112]
 545 0164 8A69     		ldr	r2, [r1, #24]
 546 0166 C3F88420 		str	r2, [r3, #132]
 547 016a CA69     		ldr	r2, [r1, #28]
 548 016c C3F89820 		str	r2, [r3, #152]
 549 0170 91E84100 		ldm	r1, {r0, r6}
 550 0174 0A6A     		ldr	r2, [r1, #32]
 551 0176 C3F8AC20 		str	r2, [r3, #172]
 552 017a 4A6A     		ldr	r2, [r1, #36]
 553 017c 8D68     		ldr	r5, [r1, #8]
 554 017e CC68     		ldr	r4, [r1, #12]
 555 0180 C3F8C020 		str	r2, [r3, #192]
 556 0184 099A     		ldr	r2, [sp, #36]
 557 0186 D860     		str	r0, [r3, #12]
 558              	.LVL47:
 559              	.LBE5:
 202:apps/list_test.c ****     }
 203:apps/list_test.c **** //    m_slist_set_array(list, l_source, 10);
 204:apps/list_test.c **** //    m_slist_set_list(&list[1], 0);
 205:apps/list_test.c **** 
 206:apps/list_test.c ****     makise_g_focus(&butt[1].el, M_G_FOCUS_GET);
 560              		.loc 1 206 0
 561 0188 0821     		movs	r1, #8
 562 018a 07F17000 		add	r0, r7, #112
 563              	.LBB6:
 201:apps/list_test.c ****     }
 564              		.loc 1 201 0
 565 018e 1E62     		str	r6, [r3, #32]
 566              	.LVL48:
 567 0190 5D63     		str	r5, [r3, #52]
 568              	.LVL49:
 569 0192 9C64     		str	r4, [r3, #72]
 570              	.LVL50:
 571 0194 DA65     		str	r2, [r3, #92]
 572              	.LVL51:
 573              	.LBE6:
 207:apps/list_test.c **** }
 574              		.loc 1 207 0
 575 0196 0BB0     		add	sp, sp, #44
 576              	.LCFI7:
 577              		.cfi_def_cfa_offset 36
 578              		@ sp needed
 579 0198 BDE8F04F 		pop	{r4, r5, r6, r7, r8, r9, r10, fp, lr}
 580              	.LCFI8:
ARM GAS  /tmp/ccLUezKG.s 			page 15


 581              		.cfi_restore 14
 582              		.cfi_restore 11
 583              		.cfi_restore 10
 584              		.cfi_restore 9
 585              		.cfi_restore 8
 586              		.cfi_restore 7
 587              		.cfi_restore 6
 588              		.cfi_restore 5
 589              		.cfi_restore 4
 590              		.cfi_def_cfa_offset 0
 206:apps/list_test.c **** }
 591              		.loc 1 206 0
 592 019c FFF7FEBF 		b	makise_g_focus
 593              	.LVL52:
 594              	.L43:
 595              		.align	2
 596              	.L42:
 597 01a0 00000000 		.word	.LANCHOR5
 598 01a4 00000000 		.word	.LANCHOR6
 599 01a8 00000000 		.word	butt
 600 01ac 00000000 		.word	tabs
 601 01b0 00000000 		.word	.LANCHOR3
 602 01b4 00000000 		.word	.LANCHOR8
 603 01b8 00000000 		.word	b_add
 604 01bc 00000000 		.word	.LANCHOR9
 605 01c0 00000000 		.word	b_rem
 606 01c4 00000000 		.word	.LANCHOR11
 607 01c8 00000000 		.word	.LANCHOR10
 608 01cc 00000000 		.word	tf
 609 01d0 00000000 		.word	.LANCHOR12
 610 01d4 00000000 		.word	s_onchange
 611 01d8 00000000 		.word	.LANCHOR13
 612 01dc 00000000 		.word	.LANCHOR4
 613 01e0 00000000 		.word	labls
 614 01e4 00000000 		.word	.LANCHOR14
 615 01e8 00000000 		.word	.LANCHOR0
 616 01ec 00000000 		.word	.LANCHOR7
 617 01f0 00000000 		.word	slider
 618              		.cfi_endproc
 619              	.LFE132:
 621              		.global	slider_text
 622              		.global	s_i
 623              		.global	tabs_source
 624              		.global	slider_val
 625              		.global	l_dest
 626              		.global	l_source
 627              		.global	t_list
 628              		.global	t_remove
 629              		.global	t_add
 630              		.global	t_canc
 631              		.global	t_ok
 632              		.global	slider_style
 633              		.global	text_style
 634              		.global	lable_style
 635              		.global	canvas_style
 636              		.global	button_style
 637              		.global	sample_string
ARM GAS  /tmp/ccLUezKG.s 			page 16


 638              		.comm	tabs,136,4
 639              		.comm	slider,336,4
 640              		.comm	list,256,4
 641              		.comm	tf,184,4
 642              		.comm	labls,184,4
 643              		.comm	canv,240,4
 644              		.comm	butt,432,4
 645              		.comm	makise_color_palette,4,4
 646              		.section	.bss.l_dest,"aw",%nobits
 647              		.align	2
 648              		.set	.LANCHOR2,. + 0
 651              	l_dest:
 652 0000 00000000 		.space	20480
 652      00000000 
 652      00000000 
 652      00000000 
 652      00000000 
 653              		.section	.bss.l_source,"aw",%nobits
 654              		.align	2
 655              		.set	.LANCHOR0,. + 0
 658              	l_source:
 659 0000 00000000 		.space	200
 659      00000000 
 659      00000000 
 659      00000000 
 659      00000000 
 660              		.section	.bss.s_i,"aw",%nobits
 661              		.align	2
 662              		.set	.LANCHOR1,. + 0
 665              	s_i:
 666 0000 00000000 		.space	4
 667              		.section	.bss.slider_text,"aw",%nobits
 668              		.align	2
 669              		.set	.LANCHOR4,. + 0
 672              	slider_text:
 673 0000 00000000 		.space	100
 673      00000000 
 673      00000000 
 673      00000000 
 673      00000000 
 674              		.section	.bss.slider_val,"aw",%nobits
 675              		.align	2
 676              		.set	.LANCHOR3,. + 0
 679              	slider_val:
 680 0000 00000000 		.space	12
 680      00000000 
 680      00000000 
 681              		.section	.data.button_style,"aw",%progbits
 682              		.align	2
 683              		.set	.LANCHOR7,. + 0
 686              	button_style:
 687 0000 01000000 		.word	1
 688 0004 00000000 		.word	F_Arial24
 689 0008 00000000 		.word	0
 690 000c 00000000 		.word	0
 691 0010 09000000 		.word	9
 692 0014 09000000 		.word	9
ARM GAS  /tmp/ccLUezKG.s 			page 17


 693 0018 0000     		.short	0
 694 001a 0000     		.space	2
 695 001c 00000000 		.word	0
 696 0020 01000000 		.word	1
 697 0024 01000000 		.word	1
 698 0028 0000     		.short	0
 699 002a 0000     		.space	2
 700 002c 01000000 		.word	1
 701 0030 00000000 		.word	0
 702 0034 01000000 		.word	1
 703 0038 0000     		.short	0
 704 003a 0000     		.space	2
 705 003c 03000000 		.word	3
 706 0040 01000000 		.word	1
 707 0044 01000000 		.word	1
 708 0048 0000     		.short	0
 709 004a 0000     		.space	2
 710              		.section	.data.canvas_style,"aw",%progbits
 711              		.align	2
 712              		.set	.LANCHOR5,. + 0
 715              	canvas_style:
 716 0000 01000000 		.word	1
 717 0004 00000000 		.word	F_Arial24
 718 0008 00000000 		.word	0
 719 000c 00000000 		.word	0
 720 0010 09000000 		.word	9
 721 0014 09000000 		.word	9
 722 0018 0000     		.short	0
 723 001a 0000     		.space	2
 724 001c 09000000 		.word	9
 725 0020 01000000 		.word	1
 726 0024 01000000 		.word	1
 727 0028 0000     		.short	0
 728 002a 0000     		.space	2
 729 002c 00000000 		.word	0
 730 0030 01000000 		.word	1
 731 0034 01000000 		.word	1
 732 0038 0000     		.short	0
 733 003a 0000     		.space	2
 734 003c 00000000 		.word	0
 735 0040 01000000 		.word	1
 736 0044 01000000 		.word	1
 737 0048 0000     		.short	0
 738 004a 0000     		.space	2
 739              		.section	.data.lable_style,"aw",%progbits
 740              		.align	2
 741              		.set	.LANCHOR13,. + 0
 744              	lable_style:
 745 0000 01000000 		.word	1
 746 0004 00000000 		.word	F_Arial15
 747 0008 00000000 		.word	0
 748 000c 09000000 		.word	9
 749 0010 09000000 		.word	9
 750 0014 09000000 		.word	9
 751 0018 0000     		.short	0
 752 001a 0000     		.space	2
 753 001c 00000000 		.word	0
ARM GAS  /tmp/ccLUezKG.s 			page 18


 754 0020 01000000 		.word	1
 755 0024 00000000 		.word	0
 756 0028 0000     		.short	0
 757 002a 0000     		.space	2
 758 002c 04000000 		.word	4
 759 0030 01000000 		.word	1
 760 0034 04000000 		.word	4
 761 0038 0000     		.short	0
 762 003a 0000     		.space	2
 763 003c 00000000 		.word	0
 764 0040 03000000 		.word	3
 765 0044 00000000 		.word	0
 766 0048 0000     		.short	0
 767 004a 0000     		.space	2
 768              		.section	.data.sample_string,"aw",%progbits
 769              		.align	2
 770              		.set	.LANCHOR11,. + 0
 773              	sample_string:
 774 0000 84000000 		.word	.LC18
 775              		.section	.data.slider_style,"aw",%progbits
 776              		.align	2
 777              		.set	.LANCHOR12,. + 0
 780              	slider_style:
 781 0000 01000000 		.word	1
 782 0004 00000000 		.word	F_Arial15
 783 0008 03000000 		.word	3
 784 000c 09000000 		.word	9
 785 0010 09000000 		.word	9
 786 0014 09000000 		.word	9
 787 0018 0000     		.short	0
 788 001a 0000     		.space	2
 789 001c 00000000 		.word	0
 790 0020 01000000 		.word	1
 791 0024 00000000 		.word	0
 792 0028 0000     		.short	0
 793 002a 0000     		.space	2
 794 002c 04000000 		.word	4
 795 0030 01000000 		.word	1
 796 0034 04000000 		.word	4
 797 0038 0000     		.short	0
 798 003a 0000     		.space	2
 799 003c 00000000 		.word	0
 800 0040 03000000 		.word	3
 801 0044 00000000 		.word	0
 802 0048 0000     		.short	0
 803 004a 0000     		.space	2
 804              		.section	.data.t_add,"aw",%progbits
 805              		.align	2
 806              		.set	.LANCHOR8,. + 0
 809              	t_add:
 810 0000 74000000 		.word	.LC15
 811              		.section	.data.t_canc,"aw",%progbits
 812              		.align	2
 815              	t_canc:
 816 0000 78000000 		.word	.LC16
 817              		.section	.data.t_list,"aw",%progbits
 818              		.align	2
ARM GAS  /tmp/ccLUezKG.s 			page 19


 819              		.set	.LANCHOR14,. + 0
 822              	t_list:
 823 0000 18000000 		.word	.LC4
 824 0004 20000000 		.word	.LC5
 825 0008 28000000 		.word	.LC6
 826 000c 30000000 		.word	.LC7
 827 0010 38000000 		.word	.LC8
 828 0014 48000000 		.word	.LC9
 829 0018 4C000000 		.word	.LC10
 830 001c 54000000 		.word	.LC11
 831 0020 5C000000 		.word	.LC12
 832 0024 64000000 		.word	.LC13
 833              		.section	.data.t_ok,"aw",%progbits
 834              		.align	2
 837              	t_ok:
 838 0000 80000000 		.word	.LC17
 839              		.section	.data.t_remove,"aw",%progbits
 840              		.align	2
 841              		.set	.LANCHOR9,. + 0
 844              	t_remove:
 845 0000 6C000000 		.word	.LC14
 846              		.section	.data.tabs_source,"aw",%progbits
 847              		.align	2
 848              		.set	.LANCHOR6,. + 0
 851              	tabs_source:
 852 0000 00000000 		.word	.LC1
 853 0004 00000000 		.word	0
 854 0008 00000000 		.space	24
 854      00000000 
 854      00000000 
 854      00000000 
 854      00000000 
 855 0020 08000000 		.word	.LC2
 856 0024 00000000 		.word	0
 857 0028 00000000 		.space	24
 857      00000000 
 857      00000000 
 857      00000000 
 857      00000000 
 858 0040 10000000 		.word	.LC3
 859 0044 00000000 		.word	0
 860 0048 00000000 		.space	24
 860      00000000 
 860      00000000 
 860      00000000 
 860      00000000 
 861              		.section	.data.text_style,"aw",%progbits
 862              		.align	2
 863              		.set	.LANCHOR10,. + 0
 866              	text_style:
 867 0000 01000000 		.word	1
 868 0004 00000000 		.word	F_Arial15
 869 0008 03000000 		.word	3
 870 000c 00000000 		.word	0
 871 0010 01000000 		.word	1
 872 0014 09000000 		.word	9
 873 0018 0000     		.short	0
ARM GAS  /tmp/ccLUezKG.s 			page 20


 874 001a 0000     		.space	2
 875 001c 00000000 		.word	0
 876 0020 01000000 		.word	1
 877 0024 03000000 		.word	3
 878 0028 0000     		.short	0
 879 002a 0000     		.space	2
 880 002c 00000000 		.word	0
 881 0030 00000000 		.word	0
 882 0034 00000000 		.word	0
 883 0038 0000     		.short	0
 884 003a 0000     		.space	2
 885 003c 00000000 		.word	0
 886 0040 00000000 		.word	0
 887 0044 00000000 		.word	0
 888 0048 0000     		.short	0
 889 004a 0000     		.space	2
 890              		.section	.rodata.s_onchange.str1.4,"aMS",%progbits,1
 891              		.align	2
 892              	.LC0:
 893 0000 25303264 		.ascii	"%02d %02d %03d\000"
 893      20253032 
 893      64202530 
 893      336400
 894              		.section	.rodata.str1.4,"aMS",%progbits,1
 895              		.align	2
 896              	.LC1:
 897 0000 53746172 		.ascii	"Start\000"
 897      7400
 898 0006 0000     		.space	2
 899              	.LC2:
 900 0008 536C6964 		.ascii	"Sliders\000"
 900      65727300 
 901              	.LC3:
 902 0010 54657874 		.ascii	"Text\000"
 902      00
 903 0015 000000   		.space	3
 904              	.LC4:
 905 0018 48656C6C 		.ascii	"Hello\000"
 905      6F00
 906 001e 0000     		.space	2
 907              	.LC5:
 908 0020 D2E5F1F2 		.ascii	"\322\345\361\362\000"
 908      00
 909 0025 000000   		.space	3
 910              	.LC6:
 911 0028 73747269 		.ascii	"string\000"
 911      6E6700
 912 002f 00       		.space	1
 913              	.LC7:
 914 0030 6D657468 		.ascii	"method\000"
 914      6F6400
 915 0037 00       		.space	1
 916              	.LC8:
 917 0038 D0F3F1F1 		.ascii	"\320\363\361\361\352\350\345 \341\363\352\342\373?\000"
 917      EAE8E520 
 917      E1F3EAE2 
 917      FB3F00
ARM GAS  /tmp/ccLUezKG.s 			page 21


 918 0047 00       		.space	1
 919              	.LC9:
 920 0048 47505300 		.ascii	"GPS\000"
 921              	.LC10:
 922 004c 53442063 		.ascii	"SD card\000"
 922      61726400 
 923              	.LC11:
 924 0054 43616D65 		.ascii	"Camera\000"
 924      726100
 925 005b 00       		.space	1
 926              	.LC12:
 927 005c 696E7365 		.ascii	"insert\000"
 927      727400
 928 0063 00       		.space	1
 929              	.LC13:
 930 0064 C2C0D321 		.ascii	"\302\300\323!\000"
 930      00
 931 0069 000000   		.space	3
 932              	.LC14:
 933 006c 52656D6F 		.ascii	"Remove\000"
 933      766500
 934 0073 00       		.space	1
 935              	.LC15:
 936 0074 41646400 		.ascii	"Add\000"
 937              	.LC16:
 938 0078 43616E63 		.ascii	"Cancel\000"
 938      656C00
 939 007f 00       		.space	1
 940              	.LC17:
 941 0080 4F4B00   		.ascii	"OK\000"
 942 0083 00       		.space	1
 943              	.LC18:
 944 0084 4C6F7265 		.ascii	"Lorem ipsum dolor sit amet, consectetur adipiscing "
 944      6D206970 
 944      73756D20 
 944      646F6C6F 
 944      72207369 
 945 00b7 656C6974 		.ascii	"elit, sed do eiusmod tempor incididunt ut labore et"
 945      2C207365 
 945      6420646F 
 945      20656975 
 945      736D6F64 
 946 00ea 20646F6C 		.ascii	" dolore magna aliqua. Ut enim ad minim veniam, quis"
 946      6F726520 
 946      6D61676E 
 946      6120616C 
 946      69717561 
 947 011d 206E6F73 		.ascii	" nostrud exercitation ullamco laboris nisi ut aliqu"
 947      74727564 
 947      20657865 
 947      72636974 
 947      6174696F 
 948 0150 69702065 		.ascii	"ip ex ea commodo consequat. Duis aute irure dolor i"
 948      78206561 
 948      20636F6D 
 948      6D6F646F 
 948      20636F6E 
ARM GAS  /tmp/ccLUezKG.s 			page 22


 949 0183 6E207265 		.ascii	"n reprehenderit in voluptate velit esse cillum dolo"
 949      70726568 
 949      656E6465 
 949      72697420 
 949      696E2076 
 950 01b6 72652065 		.ascii	"re eu fugiat nulla pariatur. Excepteur sint occaeca"
 950      75206675 
 950      67696174 
 950      206E756C 
 950      6C612070 
 951 01e9 74206375 		.ascii	"t cupidatat non proident, sunt in culpa qui officia"
 951      70696461 
 951      74617420 
 951      6E6F6E20 
 951      70726F69 
 952 021c 20646573 		.ascii	" deserunt mollit anim id est laborum.\000"
 952      6572756E 
 952      74206D6F 
 952      6C6C6974 
 952      20616E69 
 953              		.text
 954              	.Letext0:
 955              		.file 2 "MakiseGUI/MakiseGUI/makise.h"
 956              		.file 3 "/usr/arm-none-eabi/include/machine/_default_types.h"
 957              		.file 4 "/usr/arm-none-eabi/include/sys/lock.h"
 958              		.file 5 "/usr/arm-none-eabi/include/sys/_types.h"
 959              		.file 6 "/usr/lib/gcc/arm-none-eabi/6.3.0/include/stddef.h"
 960              		.file 7 "/usr/arm-none-eabi/include/sys/reent.h"
 961              		.file 8 "/usr/arm-none-eabi/include/sys/_stdint.h"
 962              		.file 9 "Drivers/CMSIS/Include/core_cm4.h"
 963              		.file 10 "Drivers/CMSIS/Device/ST/STM32F4xx/Include/system_stm32f4xx.h"
 964              		.file 11 "Drivers/CMSIS/Device/ST/STM32F4xx/Include/stm32f401xe.h"
 965              		.file 12 "Drivers/STM32F4xx_HAL_Driver/Inc/stm32f4xx_hal_def.h"
 966              		.file 13 "Drivers/STM32F4xx_HAL_Driver/Inc/stm32f4xx_hal_dma.h"
 967              		.file 14 "Drivers/STM32F4xx_HAL_Driver/Inc/stm32f4xx_hal_spi.h"
 968              		.file 15 "Drivers/STM32F4xx_HAL_Driver/Inc/stm32f4xx_hal_tim.h"
 969              		.file 16 "Inc/spi.h"
 970              		.file 17 "Inc/tim.h"
 971              		.file 18 "MakiseGUI/MakiseGUI/ILI9340C/ili9340.h"
 972              		.file 19 "MakiseGUI/MakiseGUI/makise_colors.h"
 973              		.file 20 "MakiseGUI/MakiseGUI/makise_text.h"
 974              		.file 21 "MakiseGUI/MakiseGUI/fonts/fonts.h"
 975              		.file 22 "MakiseGUI/MakiseGUI/gui/makise_gui.h"
 976              		.file 23 "MakiseGUI/MakiseGUI/gui/styles/makise_style.h"
 977              		.file 24 "MakiseGUI/MakiseGUI/gui/makise_gui_input.h"
 978              		.file 25 "MakiseGUI/MakiseGUI/gui/makise_gui_container.h"
 979              		.file 26 "MakiseGUI/MakiseGUI/gui/makise_gui_elements.h"
 980              		.file 27 "MakiseGUI/MakiseGUI/gui/elements/makise_e.h"
 981              		.file 28 "Inc/makise_test.h"
 982              		.file 29 "/usr/arm-none-eabi/include/stdio.h"
ARM GAS  /tmp/ccLUezKG.s 			page 23


DEFINED SYMBOLS
                            *ABS*:0000000000000000 list_test.c
     /tmp/ccLUezKG.s:16     .text.b_add:0000000000000000 $t
     /tmp/ccLUezKG.s:24     .text.b_add:0000000000000000 b_add
     /tmp/ccLUezKG.s:154    .text.b_add:000000000000008c $d
                            *COM*:0000000000000088 tabs
                            *COM*:0000000000000100 list
     /tmp/ccLUezKG.s:164    .text.b_rem:0000000000000000 $t
     /tmp/ccLUezKG.s:172    .text.b_rem:0000000000000000 b_rem
     /tmp/ccLUezKG.s:230    .text.b_rem:0000000000000030 $d
     /tmp/ccLUezKG.s:236    .text.s_onchange:0000000000000000 $t
     /tmp/ccLUezKG.s:244    .text.s_onchange:0000000000000000 s_onchange
     /tmp/ccLUezKG.s:280    .text.s_onchange:000000000000001c $d
     /tmp/ccLUezKG.s:287    .text.l_add:0000000000000000 $t
     /tmp/ccLUezKG.s:295    .text.l_add:0000000000000000 l_add
     /tmp/ccLUezKG.s:306    .text.l_rem:0000000000000000 $t
     /tmp/ccLUezKG.s:314    .text.l_rem:0000000000000000 l_rem
     /tmp/ccLUezKG.s:325    .text.l_onselection:0000000000000000 $t
     /tmp/ccLUezKG.s:333    .text.l_onselection:0000000000000000 l_onselection
     /tmp/ccLUezKG.s:346    .text.at_list_init:0000000000000000 $t
     /tmp/ccLUezKG.s:354    .text.at_list_init:0000000000000000 at_list_init
     /tmp/ccLUezKG.s:597    .text.at_list_init:00000000000001a0 $d
                            *COM*:00000000000001b0 butt
                            *COM*:00000000000000b8 tf
                            *COM*:00000000000000b8 labls
                            *COM*:0000000000000150 slider
     /tmp/ccLUezKG.s:672    .bss.slider_text:0000000000000000 slider_text
     /tmp/ccLUezKG.s:665    .bss.s_i:0000000000000000 s_i
     /tmp/ccLUezKG.s:851    .data.tabs_source:0000000000000000 tabs_source
     /tmp/ccLUezKG.s:679    .bss.slider_val:0000000000000000 slider_val
     /tmp/ccLUezKG.s:651    .bss.l_dest:0000000000000000 l_dest
     /tmp/ccLUezKG.s:658    .bss.l_source:0000000000000000 l_source
     /tmp/ccLUezKG.s:822    .data.t_list:0000000000000000 t_list
     /tmp/ccLUezKG.s:844    .data.t_remove:0000000000000000 t_remove
     /tmp/ccLUezKG.s:809    .data.t_add:0000000000000000 t_add
     /tmp/ccLUezKG.s:815    .data.t_canc:0000000000000000 t_canc
     /tmp/ccLUezKG.s:837    .data.t_ok:0000000000000000 t_ok
     /tmp/ccLUezKG.s:780    .data.slider_style:0000000000000000 slider_style
     /tmp/ccLUezKG.s:866    .data.text_style:0000000000000000 text_style
     /tmp/ccLUezKG.s:744    .data.lable_style:0000000000000000 lable_style
     /tmp/ccLUezKG.s:715    .data.canvas_style:0000000000000000 canvas_style
     /tmp/ccLUezKG.s:686    .data.button_style:0000000000000000 button_style
     /tmp/ccLUezKG.s:773    .data.sample_string:0000000000000000 sample_string
                            *COM*:00000000000000f0 canv
                            *COM*:0000000000000004 makise_color_palette
     /tmp/ccLUezKG.s:647    .bss.l_dest:0000000000000000 $d
     /tmp/ccLUezKG.s:654    .bss.l_source:0000000000000000 $d
     /tmp/ccLUezKG.s:661    .bss.s_i:0000000000000000 $d
     /tmp/ccLUezKG.s:668    .bss.slider_text:0000000000000000 $d
     /tmp/ccLUezKG.s:675    .bss.slider_val:0000000000000000 $d
     /tmp/ccLUezKG.s:682    .data.button_style:0000000000000000 $d
     /tmp/ccLUezKG.s:711    .data.canvas_style:0000000000000000 $d
     /tmp/ccLUezKG.s:740    .data.lable_style:0000000000000000 $d
     /tmp/ccLUezKG.s:769    .data.sample_string:0000000000000000 $d
     /tmp/ccLUezKG.s:776    .data.slider_style:0000000000000000 $d
     /tmp/ccLUezKG.s:805    .data.t_add:0000000000000000 $d
     /tmp/ccLUezKG.s:812    .data.t_canc:0000000000000000 $d
ARM GAS  /tmp/ccLUezKG.s 			page 24


     /tmp/ccLUezKG.s:818    .data.t_list:0000000000000000 $d
     /tmp/ccLUezKG.s:834    .data.t_ok:0000000000000000 $d
     /tmp/ccLUezKG.s:840    .data.t_remove:0000000000000000 $d
     /tmp/ccLUezKG.s:847    .data.tabs_source:0000000000000000 $d
     /tmp/ccLUezKG.s:862    .data.text_style:0000000000000000 $d
     /tmp/ccLUezKG.s:891    .rodata.s_onchange.str1.4:0000000000000000 $d
     /tmp/ccLUezKG.s:895    .rodata.str1.4:0000000000000000 $d
                     .debug_frame:0000000000000010 $d

UNDEFINED SYMBOLS
m_slist_add
m_slist_remove
sprintf
m_create_tabs
m_create_button
m_create_text_field
m_create_slider
m_create_lable
makise_g_focus
F_Arial24
F_Arial15
