ARM GAS  /tmp/ccWnUo48.s 			page 1


   1              		.cpu cortex-m4
   2              		.eabi_attribute 27, 1
   3              		.eabi_attribute 28, 1
   4              		.eabi_attribute 23, 1
   5              		.eabi_attribute 24, 1
   6              		.eabi_attribute 25, 1
   7              		.eabi_attribute 26, 1
   8              		.eabi_attribute 30, 2
   9              		.eabi_attribute 34, 1
  10              		.eabi_attribute 18, 4
  11              		.file	"list_test.c"
  12              		.text
  13              	.Ltext0:
  14              		.cfi_sections	.debug_frame
  15              		.section	.text.l_onselection,"ax",%progbits
  16              		.align	1
  17              		.p2align 2,,3
  18              		.global	l_onselection
  19              		.syntax unified
  20              		.thumb
  21              		.thumb_func
  22              		.fpu fpv4-sp-d16
  24              	l_onselection:
  25              	.LFB130:
  26              		.file 1 "apps/list_test.c"
   1:apps/list_test.c **** #include "list_test.h"
   2:apps/list_test.c **** 
   3:apps/list_test.c **** MButton butt[4];
   4:apps/list_test.c **** MCanvas canv[2];
   5:apps/list_test.c **** MLable  labls[2];
   6:apps/list_test.c **** MTextField tf[2];
   7:apps/list_test.c **** MSList   list[2];
   8:apps/list_test.c **** 
   9:apps/list_test.c **** 
  10:apps/list_test.c **** char* sample_string = "Lorem ipsum dolor sit amet, consectetur adipiscing elit, sed do eiusmod temp
  11:apps/list_test.c **** 
  12:apps/list_test.c **** 
  13:apps/list_test.c **** MakiseStyle button_style =
  14:apps/list_test.c **** {
  15:apps/list_test.c ****     MC_White,
  16:apps/list_test.c ****     &F_Arial24,
  17:apps/list_test.c ****     0,
  18:apps/list_test.c ****     //bg       font     border   double_border
  19:apps/list_test.c ****     {MC_Black, MC_Gray, MC_Gray, 0},  //unactive
  20:apps/list_test.c ****     {MC_Black, MC_White, MC_White, 0},//normal
  21:apps/list_test.c ****     {MC_White, MC_Black, MC_White, 0}, //focused
  22:apps/list_test.c ****     {MC_Green, MC_White, MC_White, 0}, //active
  23:apps/list_test.c **** };
  24:apps/list_test.c **** MakiseStyle canvas_style =
  25:apps/list_test.c **** {
  26:apps/list_test.c ****     MC_White,
  27:apps/list_test.c ****     &F_Arial24,
  28:apps/list_test.c ****     0,
  29:apps/list_test.c ****     //bg       font     border   double_border
  30:apps/list_test.c ****     {MC_Gray, MC_Gray, MC_Gray,    0},  //unactive
  31:apps/list_test.c ****     {MC_Black, MC_White, MC_White, 0},  //normal
  32:apps/list_test.c ****     {MC_Navy, MC_White, MC_White,   0},  //focused
ARM GAS  /tmp/ccWnUo48.s 			page 2


  33:apps/list_test.c ****     {MC_Black, MC_White, MC_White, 0},  //active
  34:apps/list_test.c **** };
  35:apps/list_test.c **** MakiseStyle lable_style =
  36:apps/list_test.c **** {
  37:apps/list_test.c ****     MC_White,
  38:apps/list_test.c ****     &F_Arial15,
  39:apps/list_test.c ****     0,
  40:apps/list_test.c ****     //bg       font     border   double_border
  41:apps/list_test.c ****     {MC_Gray, MC_Gray, MC_Gray, 0},  //unactive
  42:apps/list_test.c ****     {MC_Black, MC_White, MC_Black, 0},//normal
  43:apps/list_test.c ****     {MC_Blue, MC_White, MC_Blue, 0}, //focused
  44:apps/list_test.c ****     {MC_Black, MC_Green, MC_Black, 0}, //active
  45:apps/list_test.c **** };
  46:apps/list_test.c **** MakiseStyle text_style =
  47:apps/list_test.c **** {
  48:apps/list_test.c ****     MC_White,
  49:apps/list_test.c ****     &F_Arial15,
  50:apps/list_test.c ****     3,
  51:apps/list_test.c ****     //bg       font     border   double_border
  52:apps/list_test.c ****     {MC_Black, MC_White, MC_Gray, 0},  //unactive
  53:apps/list_test.c ****     {MC_Black, MC_White, MC_Green, 0},  //unactive
  54:apps/list_test.c ****     {0, 0, 0, 0}, //focused
  55:apps/list_test.c ****     {0, 0, 0, 0}, //active
  56:apps/list_test.c **** };
  57:apps/list_test.c **** 
  58:apps/list_test.c **** char *t_ok = "OK",
  59:apps/list_test.c ****     *t_canc = "Cancel",
  60:apps/list_test.c ****     *t_add = "Add",
  61:apps/list_test.c ****     *t_remove = "Remove";
  62:apps/list_test.c **** 
  63:apps/list_test.c **** 
  64:apps/list_test.c **** char *t_list[] = {
  65:apps/list_test.c ****     "Hello",
  66:apps/list_test.c ****     "Тест",//({210, 229, 241, 242, 0}),
  67:apps/list_test.c ****     "string",
  68:apps/list_test.c ****     "method",
  69:apps/list_test.c ****     "Русские буквы?",
  70:apps/list_test.c ****     "GPS",
  71:apps/list_test.c ****     "SD card",
  72:apps/list_test.c ****     "Camera",
  73:apps/list_test.c ****     "insert",
  74:apps/list_test.c ****     "ВАУ!"
  75:apps/list_test.c **** };
  76:apps/list_test.c **** MSList_Item l_source[10] = {{0}};
  77:apps/list_test.c **** MSList_Item l_dest[1024] = {{0}};
  78:apps/list_test.c **** 
  79:apps/list_test.c **** uint32_t s_i = 0;
  80:apps/list_test.c **** void b_add(MButton *b)
  81:apps/list_test.c **** {
  82:apps/list_test.c ****     for (uint32_t i = 0; i < 10; i++) {
  83:apps/list_test.c **** 	if(l_source[i].value)
  84:apps/list_test.c **** 	{
  85:apps/list_test.c **** 	    l_dest[s_i].id = s_i;
  86:apps/list_test.c **** 	    l_dest[s_i].text = l_source[i].text;
  87:apps/list_test.c **** 	    m_slist_add(&list[1], &l_dest[s_i]);
  88:apps/list_test.c **** 	    s_i ++;
  89:apps/list_test.c **** 	    return;
ARM GAS  /tmp/ccWnUo48.s 			page 3


  90:apps/list_test.c **** 	}
  91:apps/list_test.c ****     }
  92:apps/list_test.c **** }
  93:apps/list_test.c **** void b_rem(MButton *b)
  94:apps/list_test.c **** {
  95:apps/list_test.c ****     MSList_Item *i = list[1].items, *n = 0;
  96:apps/list_test.c ****     while (i != 0) {
  97:apps/list_test.c **** 	n = i->next;
  98:apps/list_test.c **** 	      
  99:apps/list_test.c **** 	if(i->value)
 100:apps/list_test.c **** 	    m_slist_remove(&list[1], i);
 101:apps/list_test.c **** 	i = n;
 102:apps/list_test.c ****     }
 103:apps/list_test.c **** }
 104:apps/list_test.c **** void l_add(MSList *l, MSList_Item *i)
 105:apps/list_test.c **** {
 106:apps/list_test.c ****     /* l_dest[s_i].id = s_i; */
 107:apps/list_test.c ****     /* l_dest[s_i].text = i->text; */
 108:apps/list_test.c ****     /* m_slist_add(&list[1], &l_dest[s_i]); */
 109:apps/list_test.c ****     /* s_i ++; */
 110:apps/list_test.c **** }
 111:apps/list_test.c **** void l_rem(MSList *l, MSList_Item *i)
 112:apps/list_test.c **** {
 113:apps/list_test.c ****     /* if(list[1].selected) */
 114:apps/list_test.c ****     /* 	m_slist_remove(l, i); */
 115:apps/list_test.c **** }
 116:apps/list_test.c **** void l_onselection(MSList *l, MSList_Item *i)
 117:apps/list_test.c **** {
  27              		.loc 1 117 0
  28              		.cfi_startproc
  29              		@ args = 0, pretend = 0, frame = 0
  30              		@ frame_needed = 0, uses_anonymous_args = 0
  31              		@ link register save eliminated.
  32              	.LVL0:
  33 0000 7047     		bx	lr
  34              		.cfi_endproc
  35              	.LFE130:
  37 0002 00BF     		.section	.text.b_add,"ax",%progbits
  38              		.align	1
  39              		.p2align 2,,3
  40              		.global	b_add
  41              		.syntax unified
  42              		.thumb
  43              		.thumb_func
  44              		.fpu fpv4-sp-d16
  46              	b_add:
  47              	.LFB126:
  81:apps/list_test.c ****     for (uint32_t i = 0; i < 10; i++) {
  48              		.loc 1 81 0
  49              		.cfi_startproc
  50              		@ args = 0, pretend = 0, frame = 0
  51              		@ frame_needed = 0, uses_anonymous_args = 0
  52              	.LVL1:
  81:apps/list_test.c ****     for (uint32_t i = 0; i < 10; i++) {
  53              		.loc 1 81 0
  54 0000 38B5     		push	{r3, r4, r5, lr}
  55              	.LCFI0:
ARM GAS  /tmp/ccWnUo48.s 			page 4


  56              		.cfi_def_cfa_offset 16
  57              		.cfi_offset 3, -16
  58              		.cfi_offset 4, -12
  59              		.cfi_offset 5, -8
  60              		.cfi_offset 14, -4
  61              	.LBB2:
  83:apps/list_test.c **** 	{
  62              		.loc 1 83 0
  63 0002 214B     		ldr	r3, .L19
  64 0004 1A69     		ldr	r2, [r3, #16]
  65 0006 72BB     		cbnz	r2, .L5
  66              	.LVL2:
  67 0008 5A6A     		ldr	r2, [r3, #36]
  68 000a 72BB     		cbnz	r2, .L6
  69              	.LVL3:
  70 000c 9A6B     		ldr	r2, [r3, #56]
  71 000e 72BB     		cbnz	r2, .L7
  72              	.LVL4:
  73 0010 DA6C     		ldr	r2, [r3, #76]
  74 0012 72BB     		cbnz	r2, .L8
  75              	.LVL5:
  76 0014 1A6E     		ldr	r2, [r3, #96]
  77 0016 72BB     		cbnz	r2, .L9
  78              	.LVL6:
  79 0018 5A6F     		ldr	r2, [r3, #116]
  80 001a 72BB     		cbnz	r2, .L10
  81              	.LVL7:
  82 001c D3F88820 		ldr	r2, [r3, #136]
  83 0020 6ABB     		cbnz	r2, .L11
  84              	.LVL8:
  85 0022 D3F89C20 		ldr	r2, [r3, #156]
  86 0026 62BB     		cbnz	r2, .L12
  87              	.LVL9:
  88 0028 D3F8B020 		ldr	r2, [r3, #176]
  89 002c 22B9     		cbnz	r2, .L13
  90              	.LVL10:
  91 002e D3F8C420 		ldr	r2, [r3, #196]
  82:apps/list_test.c **** 	if(l_source[i].value)
  92              		.loc 1 82 0
  93 0032 0921     		movs	r1, #9
  83:apps/list_test.c **** 	{
  94              		.loc 1 83 0
  95 0034 0AB9     		cbnz	r2, .L3
  96 0036 38BD     		pop	{r3, r4, r5, pc}
  97              	.LVL11:
  98              	.L13:
  82:apps/list_test.c **** 	if(l_source[i].value)
  99              		.loc 1 82 0
 100 0038 0821     		movs	r1, #8
 101              	.LVL12:
 102              	.L3:
  85:apps/list_test.c **** 	    l_dest[s_i].text = l_source[i].text;
 103              		.loc 1 85 0
 104 003a 144C     		ldr	r4, .L19+4
 105 003c 144A     		ldr	r2, .L19+8
 106 003e 2568     		ldr	r5, [r4]
  87:apps/list_test.c **** 	    s_i ++;
ARM GAS  /tmp/ccWnUo48.s 			page 5


 107              		.loc 1 87 0
 108 0040 1448     		ldr	r0, .L19+12
 109              	.LVL13:
  86:apps/list_test.c **** 	    m_slist_add(&list[1], &l_dest[s_i]);
 110              		.loc 1 86 0
 111 0042 01EB8101 		add	r1, r1, r1, lsl #2
 112 0046 03EB8103 		add	r3, r3, r1, lsl #2
  85:apps/list_test.c **** 	    l_dest[s_i].text = l_source[i].text;
 113              		.loc 1 85 0
 114 004a 05EB8501 		add	r1, r5, r5, lsl #2
 115 004e 02EB8102 		add	r2, r2, r1, lsl #2
  86:apps/list_test.c **** 	    m_slist_add(&list[1], &l_dest[s_i]);
 116              		.loc 1 86 0
 117 0052 DB68     		ldr	r3, [r3, #12]
 118 0054 D360     		str	r3, [r2, #12]
  87:apps/list_test.c **** 	    s_i ++;
 119              		.loc 1 87 0
 120 0056 1146     		mov	r1, r2
  85:apps/list_test.c **** 	    l_dest[s_i].text = l_source[i].text;
 121              		.loc 1 85 0
 122 0058 9560     		str	r5, [r2, #8]
  87:apps/list_test.c **** 	    s_i ++;
 123              		.loc 1 87 0
 124 005a FFF7FEFF 		bl	m_slist_add
 125              	.LVL14:
  88:apps/list_test.c **** 	    return;
 126              		.loc 1 88 0
 127 005e 2368     		ldr	r3, [r4]
 128 0060 0133     		adds	r3, r3, #1
 129 0062 2360     		str	r3, [r4]
 130 0064 38BD     		pop	{r3, r4, r5, pc}
 131              	.LVL15:
 132              	.L5:
  82:apps/list_test.c **** 	if(l_source[i].value)
 133              		.loc 1 82 0
 134 0066 0021     		movs	r1, #0
 135 0068 E7E7     		b	.L3
 136              	.LVL16:
 137              	.L6:
 138 006a 0121     		movs	r1, #1
 139 006c E5E7     		b	.L3
 140              	.LVL17:
 141              	.L7:
 142 006e 0221     		movs	r1, #2
 143 0070 E3E7     		b	.L3
 144              	.LVL18:
 145              	.L8:
 146 0072 0321     		movs	r1, #3
 147 0074 E1E7     		b	.L3
 148              	.LVL19:
 149              	.L9:
 150 0076 0421     		movs	r1, #4
 151 0078 DFE7     		b	.L3
 152              	.LVL20:
 153              	.L10:
 154 007a 0521     		movs	r1, #5
 155 007c DDE7     		b	.L3
ARM GAS  /tmp/ccWnUo48.s 			page 6


 156              	.LVL21:
 157              	.L11:
 158 007e 0621     		movs	r1, #6
 159 0080 DBE7     		b	.L3
 160              	.LVL22:
 161              	.L12:
 162 0082 0721     		movs	r1, #7
 163 0084 D9E7     		b	.L3
 164              	.L20:
 165 0086 00BF     		.align	2
 166              	.L19:
 167 0088 00000000 		.word	.LANCHOR0
 168 008c 00000000 		.word	.LANCHOR1
 169 0090 00000000 		.word	.LANCHOR2
 170 0094 80000000 		.word	list+128
 171              	.LBE2:
 172              		.cfi_endproc
 173              	.LFE126:
 175              		.section	.text.b_rem,"ax",%progbits
 176              		.align	1
 177              		.p2align 2,,3
 178              		.global	b_rem
 179              		.syntax unified
 180              		.thumb
 181              		.thumb_func
 182              		.fpu fpv4-sp-d16
 184              	b_rem:
 185              	.LFB127:
  94:apps/list_test.c ****     MSList_Item *i = list[1].items, *n = 0;
 186              		.loc 1 94 0
 187              		.cfi_startproc
 188              		@ args = 0, pretend = 0, frame = 0
 189              		@ frame_needed = 0, uses_anonymous_args = 0
 190              	.LVL23:
 191 0000 38B5     		push	{r3, r4, r5, lr}
 192              	.LCFI1:
 193              		.cfi_def_cfa_offset 16
 194              		.cfi_offset 3, -16
 195              		.cfi_offset 4, -12
 196              		.cfi_offset 5, -8
 197              		.cfi_offset 14, -4
  95:apps/list_test.c ****     while (i != 0) {
 198              		.loc 1 95 0
 199 0002 094D     		ldr	r5, .L31
 200 0004 D5F8D810 		ldr	r1, [r5, #216]
 201              	.LVL24:
  96:apps/list_test.c **** 	n = i->next;
 202              		.loc 1 96 0
 203 0008 69B1     		cbz	r1, .L21
 100:apps/list_test.c **** 	i = n;
 204              		.loc 1 100 0
 205 000a 8035     		adds	r5, r5, #128
 206 000c 01E0     		b	.L24
 207              	.LVL25:
 208              	.L23:
  96:apps/list_test.c **** 	n = i->next;
 209              		.loc 1 96 0
ARM GAS  /tmp/ccWnUo48.s 			page 7


 210 000e 2146     		mov	r1, r4
 211 0010 4CB1     		cbz	r4, .L21
 212              	.LVL26:
 213              	.L24:
  99:apps/list_test.c **** 	    m_slist_remove(&list[1], i);
 214              		.loc 1 99 0
 215 0012 0B69     		ldr	r3, [r1, #16]
  97:apps/list_test.c **** 	      
 216              		.loc 1 97 0
 217 0014 4C68     		ldr	r4, [r1, #4]
 218              	.LVL27:
  99:apps/list_test.c **** 	    m_slist_remove(&list[1], i);
 219              		.loc 1 99 0
 220 0016 002B     		cmp	r3, #0
 221 0018 F9D0     		beq	.L23
 100:apps/list_test.c **** 	i = n;
 222              		.loc 1 100 0
 223 001a 2846     		mov	r0, r5
 224 001c FFF7FEFF 		bl	m_slist_remove
 225              	.LVL28:
  96:apps/list_test.c **** 	n = i->next;
 226              		.loc 1 96 0
 227 0020 2146     		mov	r1, r4
 228 0022 002C     		cmp	r4, #0
 229 0024 F5D1     		bne	.L24
 230              	.LVL29:
 231              	.L21:
 232 0026 38BD     		pop	{r3, r4, r5, pc}
 233              	.L32:
 234              		.align	2
 235              	.L31:
 236 0028 00000000 		.word	list
 237              		.cfi_endproc
 238              	.LFE127:
 240              		.section	.text.l_add,"ax",%progbits
 241              		.align	1
 242              		.p2align 2,,3
 243              		.global	l_add
 244              		.syntax unified
 245              		.thumb
 246              		.thumb_func
 247              		.fpu fpv4-sp-d16
 249              	l_add:
 250              	.LFB135:
 251              		.cfi_startproc
 252              		@ args = 0, pretend = 0, frame = 0
 253              		@ frame_needed = 0, uses_anonymous_args = 0
 254              		@ link register save eliminated.
 255 0000 7047     		bx	lr
 256              		.cfi_endproc
 257              	.LFE135:
 259 0002 00BF     		.section	.text.l_rem,"ax",%progbits
 260              		.align	1
 261              		.p2align 2,,3
 262              		.global	l_rem
 263              		.syntax unified
 264              		.thumb
ARM GAS  /tmp/ccWnUo48.s 			page 8


 265              		.thumb_func
 266              		.fpu fpv4-sp-d16
 268              	l_rem:
 269              	.LFB133:
 270              		.cfi_startproc
 271              		@ args = 0, pretend = 0, frame = 0
 272              		@ frame_needed = 0, uses_anonymous_args = 0
 273              		@ link register save eliminated.
 274 0000 7047     		bx	lr
 275              		.cfi_endproc
 276              	.LFE133:
 278 0002 00BF     		.section	.text.at_list_init,"ax",%progbits
 279              		.align	1
 280              		.p2align 2,,3
 281              		.global	at_list_init
 282              		.syntax unified
 283              		.thumb
 284              		.thumb_func
 285              		.fpu fpv4-sp-d16
 287              	at_list_init:
 288              	.LFB131:
 118:apps/list_test.c **** }
 119:apps/list_test.c **** 
 120:apps/list_test.c **** void at_list_init(MakiseGUI *gui, MHost *host)
 121:apps/list_test.c **** {
 289              		.loc 1 121 0
 290              		.cfi_startproc
 291              		@ args = 0, pretend = 0, frame = 8
 292              		@ frame_needed = 0, uses_anonymous_args = 0
 293              	.LVL30:
 294              		.loc 1 121 0
 295 0000 2DE9F04F 		push	{r4, r5, r6, r7, r8, r9, r10, fp, lr}
 296              	.LCFI2:
 297              		.cfi_def_cfa_offset 36
 298              		.cfi_offset 4, -36
 299              		.cfi_offset 5, -32
 300              		.cfi_offset 6, -28
 301              		.cfi_offset 7, -24
 302              		.cfi_offset 8, -20
 303              		.cfi_offset 9, -16
 304              		.cfi_offset 10, -12
 305              		.cfi_offset 11, -8
 306              		.cfi_offset 14, -4
 122:apps/list_test.c ****     m_create_slist(&list[0], host->host, 3, 10, 156, 145, "lol", &l_onselection, &l_add, MSList_Rad
 307              		.loc 1 122 0
 308 0004 4F4D     		ldr	r5, .L37
 309 0006 504C     		ldr	r4, .L37+4
 310 0008 DFF870B1 		ldr	fp, .L37+56
 311 000c DFF870A1 		ldr	r10, .L37+60
 312 0010 4E4A     		ldr	r2, .L37+8
 313 0012 4F4B     		ldr	r3, .L37+12
 121:apps/list_test.c ****     m_create_slist(&list[0], host->host, 3, 10, 156, 145, "lol", &l_onselection, &l_add, MSList_Rad
 314              		.loc 1 121 0
 315 0014 8BB0     		sub	sp, sp, #44
 316              	.LCFI3:
 317              		.cfi_def_cfa_offset 80
 121:apps/list_test.c ****     m_create_slist(&list[0], host->host, 3, 10, 156, 145, "lol", &l_onselection, &l_add, MSList_Rad
ARM GAS  /tmp/ccWnUo48.s 			page 9


 318              		.loc 1 121 0
 319 0016 0F46     		mov	r7, r1
 320              		.loc 1 122 0
 321 0018 4FF09109 		mov	r9, #145
 322 001c 4FF09C08 		mov	r8, #156
 323 0020 0126     		movs	r6, #1
 324 0022 0968     		ldr	r1, [r1]
 325              	.LVL31:
 326 0024 0794     		str	r4, [sp, #28]
 327 0026 8DE80003 		stm	sp, {r8, r9}
 328 002a 2846     		mov	r0, r5
 329              	.LVL32:
 330 002c CDF818B0 		str	fp, [sp, #24]
 331 0030 0596     		str	r6, [sp, #20]
 332 0032 0492     		str	r2, [sp, #16]
 333 0034 CDF80CA0 		str	r10, [sp, #12]
 334 0038 0293     		str	r3, [sp, #8]
 335 003a 0322     		movs	r2, #3
 336 003c 0A23     		movs	r3, #10
 337 003e FFF7FEFF 		bl	m_create_slist
 338              	.LVL33:
 123:apps/list_test.c **** 
 124:apps/list_test.c ****     m_create_slist(&list[1], host->host, 160, 10, 156, 145, 0, &l_onselection, &l_rem, MSList_Check
 339              		.loc 1 124 0
 340 0042 05F18006 		add	r6, r5, #128
 341 0046 3968     		ldr	r1, [r7]
 342 0048 424B     		ldr	r3, .L37+16
 343 004a 0794     		str	r4, [sp, #28]
 344 004c 0222     		movs	r2, #2
 345 004e 0024     		movs	r4, #0
 346 0050 8DE80003 		stm	sp, {r8, r9}
 347 0054 CDF818B0 		str	fp, [sp, #24]
 348 0058 CDF80CA0 		str	r10, [sp, #12]
 349 005c 3046     		mov	r0, r6
 350 005e 0592     		str	r2, [sp, #20]
 351 0060 0493     		str	r3, [sp, #16]
 352 0062 0294     		str	r4, [sp, #8]
 353 0064 0A23     		movs	r3, #10
 354 0066 A022     		movs	r2, #160
 355 0068 FFF7FEFF 		bl	m_create_slist
 356              	.LVL34:
 125:apps/list_test.c **** 
 126:apps/list_test.c ****     m_create_button(&butt[0], host->host, 10, 163, 100, 35, t_add, &b_add, 0, 0, &button_style);
 357              		.loc 1 126 0
 358 006c 3A4B     		ldr	r3, .L37+20
 359 006e DFF81491 		ldr	r9, .L37+64
 360 0072 1A68     		ldr	r2, [r3]
 361 0074 DFF810B1 		ldr	fp, .L37+68
 362 0078 384B     		ldr	r3, .L37+24
 363 007a 3968     		ldr	r1, [r7]
 364 007c 0292     		str	r2, [sp, #8]
 365 007e 4FF02308 		mov	r8, #35
 366 0082 4FF0640A 		mov	r10, #100
 367 0086 4846     		mov	r0, r9
 368 0088 0393     		str	r3, [sp, #12]
 369 008a 0594     		str	r4, [sp, #20]
 370 008c 0494     		str	r4, [sp, #16]
ARM GAS  /tmp/ccWnUo48.s 			page 10


 371 008e CDF818B0 		str	fp, [sp, #24]
 372 0092 CDF80480 		str	r8, [sp, #4]
 373 0096 CDF800A0 		str	r10, [sp]
 374 009a A323     		movs	r3, #163
 375 009c 0A22     		movs	r2, #10
 376 009e FFF7FEFF 		bl	m_create_button
 377              	.LVL35:
 127:apps/list_test.c ****     m_create_button(&butt[1], host->host, 115, 163, 100, 35, t_remove, &b_rem, 0, 0, &button_style)
 378              		.loc 1 127 0
 379 00a2 2F4B     		ldr	r3, .L37+28
 380 00a4 3968     		ldr	r1, [r7]
 381 00a6 1A68     		ldr	r2, [r3]
 382 00a8 2E4B     		ldr	r3, .L37+32
 383 00aa 0292     		str	r2, [sp, #8]
 384 00ac 09F16C00 		add	r0, r9, #108
 385 00b0 0393     		str	r3, [sp, #12]
 386 00b2 CDF818B0 		str	fp, [sp, #24]
 387 00b6 0594     		str	r4, [sp, #20]
 388 00b8 0494     		str	r4, [sp, #16]
 389 00ba CDF80480 		str	r8, [sp, #4]
 390 00be CDF800A0 		str	r10, [sp]
 391 00c2 A323     		movs	r3, #163
 392 00c4 7322     		movs	r2, #115
 393 00c6 FFF7FEFF 		bl	m_create_button
 394              	.LVL36:
 128:apps/list_test.c **** 
 129:apps/list_test.c ****     m_create_text_field(&tf[0], host->host, 5, 200, 310, 35, sample_string, &text_style);
 395              		.loc 1 129 0
 396 00ca 274B     		ldr	r3, .L37+36
 397 00cc 274A     		ldr	r2, .L37+40
 398 00ce 1868     		ldr	r0, [r3]
 399 00d0 3968     		ldr	r1, [r7]
 400 00d2 0290     		str	r0, [sp, #8]
 401 00d4 4FF49B73 		mov	r3, #310
 402 00d8 0392     		str	r2, [sp, #12]
 403 00da 0093     		str	r3, [sp]
 404 00dc CDF80480 		str	r8, [sp, #4]
 405 00e0 C823     		movs	r3, #200
 406 00e2 0522     		movs	r2, #5
 407 00e4 2248     		ldr	r0, .L37+44
 408 00e6 FFF7FEFF 		bl	m_create_text_field
 409              	.LVL37:
 410              	.LBB3:
 130:apps/list_test.c **** 
 131:apps/list_test.c **** 
 132:apps/list_test.c ****     for (uint32_t i = 0; i < 10; i++) {
 133:apps/list_test.c **** 	l_source[i].text = t_list[i];
 411              		.loc 1 133 0
 412 00ea 224A     		ldr	r2, .L37+48
 413 00ec 224B     		ldr	r3, .L37+52
 414 00ee 5168     		ldr	r1, [r2, #4]
 415 00f0 0991     		str	r1, [sp, #36]
 416 00f2 D168     		ldr	r1, [r2, #12]
 417 00f4 9964     		str	r1, [r3, #72]
 418 00f6 1169     		ldr	r1, [r2, #16]
 419 00f8 D965     		str	r1, [r3, #92]
 420 00fa 5169     		ldr	r1, [r2, #20]
ARM GAS  /tmp/ccWnUo48.s 			page 11


 421 00fc 1768     		ldr	r7, [r2]
 422              	.LVL38:
 423 00fe 1967     		str	r1, [r3, #112]
 424 0100 9169     		ldr	r1, [r2, #24]
 425 0102 9068     		ldr	r0, [r2, #8]
 426 0104 C3F88410 		str	r1, [r3, #132]
 427 0108 DF60     		str	r7, [r3, #12]
 428              	.LVL39:
 429 010a D169     		ldr	r1, [r2, #28]
 430 010c 176A     		ldr	r7, [r2, #32]
 431 010e 526A     		ldr	r2, [r2, #36]
 432 0110 C3F8C020 		str	r2, [r3, #192]
 433 0114 099A     		ldr	r2, [sp, #36]
 434 0116 C3F89810 		str	r1, [r3, #152]
 435 011a 1A62     		str	r2, [r3, #32]
 436              	.LVL40:
 437              	.LBE3:
 134:apps/list_test.c ****     }
 135:apps/list_test.c ****     m_slist_set_array(list, l_source, 10);
 438              		.loc 1 135 0
 439 011c 1946     		mov	r1, r3
 440              	.LBB4:
 133:apps/list_test.c ****     }
 441              		.loc 1 133 0
 442 011e 5863     		str	r0, [r3, #52]
 443              	.LVL41:
 444              	.LBE4:
 445              		.loc 1 135 0
 446 0120 0A22     		movs	r2, #10
 447 0122 2846     		mov	r0, r5
 448              	.LBB5:
 133:apps/list_test.c ****     }
 449              		.loc 1 133 0
 450 0124 C3F8AC70 		str	r7, [r3, #172]
 451              	.LVL42:
 452              	.LBE5:
 453              		.loc 1 135 0
 454 0128 FFF7FEFF 		bl	m_slist_set_array
 455              	.LVL43:
 136:apps/list_test.c ****     m_slist_set_list(&list[1], 0);
 456              		.loc 1 136 0
 457 012c 2146     		mov	r1, r4
 458 012e 3046     		mov	r0, r6
 459 0130 FFF7FEFF 		bl	m_slist_set_list
 460              	.LVL44:
 137:apps/list_test.c **** 
 138:apps/list_test.c ****     makise_g_focus(&list[0].el, M_G_FOCUS_GET);
 461              		.loc 1 138 0
 462 0134 281D     		adds	r0, r5, #4
 463 0136 0821     		movs	r1, #8
 139:apps/list_test.c **** }
 464              		.loc 1 139 0
 465 0138 0BB0     		add	sp, sp, #44
 466              	.LCFI4:
 467              		.cfi_def_cfa_offset 36
 468              		@ sp needed
 469 013a BDE8F04F 		pop	{r4, r5, r6, r7, r8, r9, r10, fp, lr}
ARM GAS  /tmp/ccWnUo48.s 			page 12


 470              	.LCFI5:
 471              		.cfi_restore 14
 472              		.cfi_restore 11
 473              		.cfi_restore 10
 474              		.cfi_restore 9
 475              		.cfi_restore 8
 476              		.cfi_restore 7
 477              		.cfi_restore 6
 478              		.cfi_restore 5
 479              		.cfi_restore 4
 480              		.cfi_def_cfa_offset 0
 138:apps/list_test.c **** }
 481              		.loc 1 138 0
 482 013e FFF7FEBF 		b	makise_g_focus
 483              	.LVL45:
 484              	.L38:
 485 0142 00BF     		.align	2
 486              	.L37:
 487 0144 00000000 		.word	list
 488 0148 00000000 		.word	.LANCHOR3
 489 014c 00000000 		.word	l_add
 490 0150 00000000 		.word	.LC0
 491 0154 00000000 		.word	l_rem
 492 0158 00000000 		.word	.LANCHOR6
 493 015c 00000000 		.word	b_add
 494 0160 00000000 		.word	.LANCHOR7
 495 0164 00000000 		.word	b_rem
 496 0168 00000000 		.word	.LANCHOR9
 497 016c 00000000 		.word	.LANCHOR8
 498 0170 00000000 		.word	tf
 499 0174 00000000 		.word	.LANCHOR10
 500 0178 00000000 		.word	.LANCHOR0
 501 017c 00000000 		.word	.LANCHOR4
 502 0180 00000000 		.word	l_onselection
 503 0184 00000000 		.word	butt
 504 0188 00000000 		.word	.LANCHOR5
 505              		.cfi_endproc
 506              	.LFE131:
 508              		.global	s_i
 509              		.global	l_dest
 510              		.global	l_source
 511              		.global	t_list
 512              		.global	t_remove
 513              		.global	t_add
 514              		.global	t_canc
 515              		.global	t_ok
 516              		.global	text_style
 517              		.global	lable_style
 518              		.global	canvas_style
 519              		.global	button_style
 520              		.global	sample_string
 521              		.comm	list,256,4
 522              		.comm	tf,184,4
 523              		.comm	labls,184,4
 524              		.comm	canv,232,4
 525              		.comm	butt,432,4
 526              		.comm	makise_color_palette,4,4
ARM GAS  /tmp/ccWnUo48.s 			page 13


 527              		.section	.bss.l_dest,"aw",%nobits
 528              		.align	2
 529              		.set	.LANCHOR2,. + 0
 532              	l_dest:
 533 0000 00000000 		.space	20480
 533      00000000 
 533      00000000 
 533      00000000 
 533      00000000 
 534              		.section	.bss.l_source,"aw",%nobits
 535              		.align	2
 536              		.set	.LANCHOR0,. + 0
 539              	l_source:
 540 0000 00000000 		.space	200
 540      00000000 
 540      00000000 
 540      00000000 
 540      00000000 
 541              		.section	.bss.s_i,"aw",%nobits
 542              		.align	2
 543              		.set	.LANCHOR1,. + 0
 546              	s_i:
 547 0000 00000000 		.space	4
 548              		.section	.data.button_style,"aw",%progbits
 549              		.align	2
 550              		.set	.LANCHOR5,. + 0
 553              	button_style:
 554 0000 01000000 		.word	1
 555 0004 00000000 		.word	F_Arial24
 556 0008 00000000 		.word	0
 557 000c 00000000 		.word	0
 558 0010 09000000 		.word	9
 559 0014 09000000 		.word	9
 560 0018 0000     		.short	0
 561 001a 0000     		.space	2
 562 001c 00000000 		.word	0
 563 0020 01000000 		.word	1
 564 0024 01000000 		.word	1
 565 0028 0000     		.short	0
 566 002a 0000     		.space	2
 567 002c 01000000 		.word	1
 568 0030 00000000 		.word	0
 569 0034 01000000 		.word	1
 570 0038 0000     		.short	0
 571 003a 0000     		.space	2
 572 003c 03000000 		.word	3
 573 0040 01000000 		.word	1
 574 0044 01000000 		.word	1
 575 0048 0000     		.short	0
 576 004a 0000     		.space	2
 577              		.section	.data.canvas_style,"aw",%progbits
 578              		.align	2
 579              		.set	.LANCHOR4,. + 0
 582              	canvas_style:
 583 0000 01000000 		.word	1
 584 0004 00000000 		.word	F_Arial24
 585 0008 00000000 		.word	0
ARM GAS  /tmp/ccWnUo48.s 			page 14


 586 000c 09000000 		.word	9
 587 0010 09000000 		.word	9
 588 0014 09000000 		.word	9
 589 0018 0000     		.short	0
 590 001a 0000     		.space	2
 591 001c 00000000 		.word	0
 592 0020 01000000 		.word	1
 593 0024 01000000 		.word	1
 594 0028 0000     		.short	0
 595 002a 0000     		.space	2
 596 002c 0B000000 		.word	11
 597 0030 01000000 		.word	1
 598 0034 01000000 		.word	1
 599 0038 0000     		.short	0
 600 003a 0000     		.space	2
 601 003c 00000000 		.word	0
 602 0040 01000000 		.word	1
 603 0044 01000000 		.word	1
 604 0048 0000     		.short	0
 605 004a 0000     		.space	2
 606              		.section	.data.lable_style,"aw",%progbits
 607              		.align	2
 608              		.set	.LANCHOR3,. + 0
 611              	lable_style:
 612 0000 01000000 		.word	1
 613 0004 00000000 		.word	F_Arial15
 614 0008 00000000 		.word	0
 615 000c 09000000 		.word	9
 616 0010 09000000 		.word	9
 617 0014 09000000 		.word	9
 618 0018 0000     		.short	0
 619 001a 0000     		.space	2
 620 001c 00000000 		.word	0
 621 0020 01000000 		.word	1
 622 0024 00000000 		.word	0
 623 0028 0000     		.short	0
 624 002a 0000     		.space	2
 625 002c 04000000 		.word	4
 626 0030 01000000 		.word	1
 627 0034 04000000 		.word	4
 628 0038 0000     		.short	0
 629 003a 0000     		.space	2
 630 003c 00000000 		.word	0
 631 0040 03000000 		.word	3
 632 0044 00000000 		.word	0
 633 0048 0000     		.short	0
 634 004a 0000     		.space	2
 635              		.section	.data.sample_string,"aw",%progbits
 636              		.align	2
 637              		.set	.LANCHOR9,. + 0
 640              	sample_string:
 641 0000 6C000000 		.word	.LC15
 642              		.section	.data.t_add,"aw",%progbits
 643              		.align	2
 644              		.set	.LANCHOR6,. + 0
 647              	t_add:
 648 0000 5C000000 		.word	.LC12
ARM GAS  /tmp/ccWnUo48.s 			page 15


 649              		.section	.data.t_canc,"aw",%progbits
 650              		.align	2
 653              	t_canc:
 654 0000 60000000 		.word	.LC13
 655              		.section	.data.t_list,"aw",%progbits
 656              		.align	2
 657              		.set	.LANCHOR10,. + 0
 660              	t_list:
 661 0000 00000000 		.word	.LC1
 662 0004 08000000 		.word	.LC2
 663 0008 10000000 		.word	.LC3
 664 000c 18000000 		.word	.LC4
 665 0010 20000000 		.word	.LC5
 666 0014 30000000 		.word	.LC6
 667 0018 34000000 		.word	.LC7
 668 001c 3C000000 		.word	.LC8
 669 0020 44000000 		.word	.LC9
 670 0024 4C000000 		.word	.LC10
 671              		.section	.data.t_ok,"aw",%progbits
 672              		.align	2
 675              	t_ok:
 676 0000 68000000 		.word	.LC14
 677              		.section	.data.t_remove,"aw",%progbits
 678              		.align	2
 679              		.set	.LANCHOR7,. + 0
 682              	t_remove:
 683 0000 54000000 		.word	.LC11
 684              		.section	.data.text_style,"aw",%progbits
 685              		.align	2
 686              		.set	.LANCHOR8,. + 0
 689              	text_style:
 690 0000 01000000 		.word	1
 691 0004 00000000 		.word	F_Arial15
 692 0008 03000000 		.word	3
 693 000c 00000000 		.word	0
 694 0010 01000000 		.word	1
 695 0014 09000000 		.word	9
 696 0018 0000     		.short	0
 697 001a 0000     		.space	2
 698 001c 00000000 		.word	0
 699 0020 01000000 		.word	1
 700 0024 03000000 		.word	3
 701 0028 0000     		.short	0
 702 002a 0000     		.space	2
 703 002c 00000000 		.word	0
 704 0030 00000000 		.word	0
 705 0034 00000000 		.word	0
 706 0038 0000     		.short	0
 707 003a 0000     		.space	2
 708 003c 00000000 		.word	0
 709 0040 00000000 		.word	0
 710 0044 00000000 		.word	0
 711 0048 0000     		.short	0
 712 004a 0000     		.space	2
 713              		.section	.rodata.at_list_init.str1.4,"aMS",%progbits,1
 714              		.align	2
 715              	.LC0:
ARM GAS  /tmp/ccWnUo48.s 			page 16


 716 0000 6C6F6C00 		.ascii	"lol\000"
 717              		.section	.rodata.str1.4,"aMS",%progbits,1
 718              		.align	2
 719              	.LC1:
 720 0000 48656C6C 		.ascii	"Hello\000"
 720      6F00
 721 0006 0000     		.space	2
 722              	.LC2:
 723 0008 D2E5F1F2 		.ascii	"\322\345\361\362\000"
 723      00
 724 000d 000000   		.space	3
 725              	.LC3:
 726 0010 73747269 		.ascii	"string\000"
 726      6E6700
 727 0017 00       		.space	1
 728              	.LC4:
 729 0018 6D657468 		.ascii	"method\000"
 729      6F6400
 730 001f 00       		.space	1
 731              	.LC5:
 732 0020 D0F3F1F1 		.ascii	"\320\363\361\361\352\350\345 \341\363\352\342\373?\000"
 732      EAE8E520 
 732      E1F3EAE2 
 732      FB3F00
 733 002f 00       		.space	1
 734              	.LC6:
 735 0030 47505300 		.ascii	"GPS\000"
 736              	.LC7:
 737 0034 53442063 		.ascii	"SD card\000"
 737      61726400 
 738              	.LC8:
 739 003c 43616D65 		.ascii	"Camera\000"
 739      726100
 740 0043 00       		.space	1
 741              	.LC9:
 742 0044 696E7365 		.ascii	"insert\000"
 742      727400
 743 004b 00       		.space	1
 744              	.LC10:
 745 004c C2C0D321 		.ascii	"\302\300\323!\000"
 745      00
 746 0051 000000   		.space	3
 747              	.LC11:
 748 0054 52656D6F 		.ascii	"Remove\000"
 748      766500
 749 005b 00       		.space	1
 750              	.LC12:
 751 005c 41646400 		.ascii	"Add\000"
 752              	.LC13:
 753 0060 43616E63 		.ascii	"Cancel\000"
 753      656C00
 754 0067 00       		.space	1
 755              	.LC14:
 756 0068 4F4B00   		.ascii	"OK\000"
 757 006b 00       		.space	1
 758              	.LC15:
 759 006c 4C6F7265 		.ascii	"Lorem ipsum dolor sit amet, consectetur adipiscing "
ARM GAS  /tmp/ccWnUo48.s 			page 17


 759      6D206970 
 759      73756D20 
 759      646F6C6F 
 759      72207369 
 760 009f 656C6974 		.ascii	"elit, sed do eiusmod tempor incididunt ut labore et"
 760      2C207365 
 760      6420646F 
 760      20656975 
 760      736D6F64 
 761 00d2 20646F6C 		.ascii	" dolore magna aliqua. Ut enim ad minim veniam, quis"
 761      6F726520 
 761      6D61676E 
 761      6120616C 
 761      69717561 
 762 0105 206E6F73 		.ascii	" nostrud exercitation ullamco laboris nisi ut aliqu"
 762      74727564 
 762      20657865 
 762      72636974 
 762      6174696F 
 763 0138 69702065 		.ascii	"ip ex ea commodo consequat. Duis aute irure dolor i"
 763      78206561 
 763      20636F6D 
 763      6D6F646F 
 763      20636F6E 
 764 016b 6E207265 		.ascii	"n reprehenderit in voluptate velit esse cillum dolo"
 764      70726568 
 764      656E6465 
 764      72697420 
 764      696E2076 
 765 019e 72652065 		.ascii	"re eu fugiat nulla pariatur. Excepteur sint occaeca"
 765      75206675 
 765      67696174 
 765      206E756C 
 765      6C612070 
 766 01d1 74206375 		.ascii	"t cupidatat non proident, sunt in culpa qui officia"
 766      70696461 
 766      74617420 
 766      6E6F6E20 
 766      70726F69 
 767 0204 20646573 		.ascii	" deserunt mollit anim id est laborum.\000"
 767      6572756E 
 767      74206D6F 
 767      6C6C6974 
 767      20616E69 
 768              		.text
 769              	.Letext0:
 770              		.file 2 "MakiseGUI/MakiseGUI/makise.h"
 771              		.file 3 "/usr/arm-none-eabi/include/machine/_default_types.h"
 772              		.file 4 "/usr/arm-none-eabi/include/sys/lock.h"
 773              		.file 5 "/usr/arm-none-eabi/include/sys/_types.h"
 774              		.file 6 "/usr/lib/gcc/arm-none-eabi/6.3.0/include/stddef.h"
 775              		.file 7 "/usr/arm-none-eabi/include/sys/reent.h"
 776              		.file 8 "/usr/arm-none-eabi/include/sys/_stdint.h"
 777              		.file 9 "Drivers/CMSIS/Include/core_cm4.h"
 778              		.file 10 "Drivers/CMSIS/Device/ST/STM32F4xx/Include/system_stm32f4xx.h"
 779              		.file 11 "Drivers/CMSIS/Device/ST/STM32F4xx/Include/stm32f401xe.h"
 780              		.file 12 "Drivers/STM32F4xx_HAL_Driver/Inc/stm32f4xx_hal_def.h"
ARM GAS  /tmp/ccWnUo48.s 			page 18


 781              		.file 13 "Drivers/STM32F4xx_HAL_Driver/Inc/stm32f4xx_hal_dma.h"
 782              		.file 14 "Drivers/STM32F4xx_HAL_Driver/Inc/stm32f4xx_hal_spi.h"
 783              		.file 15 "Drivers/STM32F4xx_HAL_Driver/Inc/stm32f4xx_hal_tim.h"
 784              		.file 16 "Inc/spi.h"
 785              		.file 17 "Inc/tim.h"
 786              		.file 18 "MakiseGUI/MakiseGUI/ILI9340C/ili9340.h"
 787              		.file 19 "MakiseGUI/MakiseGUI/makise_colors.h"
 788              		.file 20 "MakiseGUI/MakiseGUI/makise_text.h"
 789              		.file 21 "MakiseGUI/MakiseGUI/fonts/fonts.h"
 790              		.file 22 "MakiseGUI/MakiseGUI/gui/makise_gui.h"
 791              		.file 23 "MakiseGUI/MakiseGUI/gui/styles/makise_style.h"
 792              		.file 24 "MakiseGUI/MakiseGUI/gui/makise_gui_input.h"
 793              		.file 25 "MakiseGUI/MakiseGUI/gui/makise_gui_container.h"
 794              		.file 26 "MakiseGUI/MakiseGUI/gui/makise_gui_elements.h"
 795              		.file 27 "MakiseGUI/MakiseGUI/gui/elements/makise_e.h"
 796              		.file 28 "Inc/makise_test.h"
ARM GAS  /tmp/ccWnUo48.s 			page 19

