ARM GAS  /tmp/ccW6IcgV.s 			page 1


   1              		.cpu cortex-m4
   2              		.eabi_attribute 27, 1
   3              		.eabi_attribute 28, 1
   4              		.eabi_attribute 23, 1
   5              		.eabi_attribute 24, 1
   6              		.eabi_attribute 25, 1
   7              		.eabi_attribute 26, 1
   8              		.eabi_attribute 30, 2
   9              		.eabi_attribute 34, 1
  10              		.eabi_attribute 18, 4
  11              		.file	"makise_gui_container.c"
  12              		.text
  13              	.Ltext0:
  14              		.cfi_sections	.debug_frame
  15              		.section	.text.makise_g_cont_add,"ax",%progbits
  16              		.align	1
  17              		.p2align 2,,3
  18              		.global	makise_g_cont_add
  19              		.syntax unified
  20              		.thumb
  21              		.thumb_func
  22              		.fpu fpv4-sp-d16
  24              	makise_g_cont_add:
  25              	.LFB126:
  26              		.file 1 "MakiseGUI/MakiseGUI/gui/makise_gui_container.c"
   1:MakiseGUI/MakiseGUI/gui/makise_gui_container.c **** #include "makise_gui_container.h"
   2:MakiseGUI/MakiseGUI/gui/makise_gui_container.c **** 
   3:MakiseGUI/MakiseGUI/gui/makise_gui_container.c **** void makise_g_cont_add(MContainer * cont, MElement *el)
   4:MakiseGUI/MakiseGUI/gui/makise_gui_container.c **** {
  27              		.loc 1 4 0
  28              		.cfi_startproc
  29              		@ args = 0, pretend = 0, frame = 0
  30              		@ frame_needed = 0, uses_anonymous_args = 0
  31              		@ link register save eliminated.
  32              	.LVL0:
   5:MakiseGUI/MakiseGUI/gui/makise_gui_container.c ****     el->parent = cont;
   6:MakiseGUI/MakiseGUI/gui/makise_gui_container.c ****     if(cont->first == 0)
  33              		.loc 1 6 0
  34 0000 8268     		ldr	r2, [r0, #8]
   5:MakiseGUI/MakiseGUI/gui/makise_gui_container.c ****     el->parent = cont;
  35              		.loc 1 5 0
  36 0002 0861     		str	r0, [r1, #16]
  37              		.loc 1 6 0
  38 0004 82B1     		cbz	r2, .L9
   7:MakiseGUI/MakiseGUI/gui/makise_gui_container.c ****     {
   8:MakiseGUI/MakiseGUI/gui/makise_gui_container.c **** 	cont->first = el;
   9:MakiseGUI/MakiseGUI/gui/makise_gui_container.c **** 	cont->last = el;
  10:MakiseGUI/MakiseGUI/gui/makise_gui_container.c **** 	cont->focused = 0;
  11:MakiseGUI/MakiseGUI/gui/makise_gui_container.c **** 	el->next = 0;
  12:MakiseGUI/MakiseGUI/gui/makise_gui_container.c **** 	el->prev = 0;
  13:MakiseGUI/MakiseGUI/gui/makise_gui_container.c **** 	
  14:MakiseGUI/MakiseGUI/gui/makise_gui_container.c **** 	return;
  15:MakiseGUI/MakiseGUI/gui/makise_gui_container.c ****     }
  16:MakiseGUI/MakiseGUI/gui/makise_gui_container.c ****     MElement *m = cont->last;
  39              		.loc 1 16 0
  40 0006 C368     		ldr	r3, [r0, #12]
  41              	.LVL1:
ARM GAS  /tmp/ccW6IcgV.s 			page 2


  17:MakiseGUI/MakiseGUI/gui/makise_gui_container.c ****     if(m == 0) //if last accidently didn't setted.
  42              		.loc 1 17 0
  43 0008 2BB1     		cbz	r3, .L6
  44              	.L4:
  18:MakiseGUI/MakiseGUI/gui/makise_gui_container.c ****     {
  19:MakiseGUI/MakiseGUI/gui/makise_gui_container.c **** 	m = cont->first;
  20:MakiseGUI/MakiseGUI/gui/makise_gui_container.c **** 	while (m != 0)
  21:MakiseGUI/MakiseGUI/gui/makise_gui_container.c **** 	{
  22:MakiseGUI/MakiseGUI/gui/makise_gui_container.c **** 	    if(m->next == 0)
  23:MakiseGUI/MakiseGUI/gui/makise_gui_container.c **** 	    {
  24:MakiseGUI/MakiseGUI/gui/makise_gui_container.c **** 	    
  25:MakiseGUI/MakiseGUI/gui/makise_gui_container.c **** 		break;
  26:MakiseGUI/MakiseGUI/gui/makise_gui_container.c **** 	    }
  27:MakiseGUI/MakiseGUI/gui/makise_gui_container.c **** 	    else
  28:MakiseGUI/MakiseGUI/gui/makise_gui_container.c **** 		m = m->next;
  29:MakiseGUI/MakiseGUI/gui/makise_gui_container.c **** 	}
  30:MakiseGUI/MakiseGUI/gui/makise_gui_container.c ****     }
  31:MakiseGUI/MakiseGUI/gui/makise_gui_container.c ****     if(m != 0)
  32:MakiseGUI/MakiseGUI/gui/makise_gui_container.c ****     {
  33:MakiseGUI/MakiseGUI/gui/makise_gui_container.c **** 	m->next = el;
  34:MakiseGUI/MakiseGUI/gui/makise_gui_container.c **** 	el->prev = m;
  35:MakiseGUI/MakiseGUI/gui/makise_gui_container.c **** 	el->next = 0;
  45              		.loc 1 35 0
  46 000a 0022     		movs	r2, #0
  33:MakiseGUI/MakiseGUI/gui/makise_gui_container.c **** 	el->prev = m;
  47              		.loc 1 33 0
  48 000c D960     		str	r1, [r3, #12]
  34:MakiseGUI/MakiseGUI/gui/makise_gui_container.c **** 	el->next = 0;
  49              		.loc 1 34 0
  50 000e 8B60     		str	r3, [r1, #8]
  51              		.loc 1 35 0
  52 0010 CA60     		str	r2, [r1, #12]
  36:MakiseGUI/MakiseGUI/gui/makise_gui_container.c **** 	cont->last = el;
  53              		.loc 1 36 0
  54 0012 C160     		str	r1, [r0, #12]
  55 0014 7047     		bx	lr
  56              	.L6:
  57              	.LVL2:
  58 0016 1346     		mov	r3, r2
  22:MakiseGUI/MakiseGUI/gui/makise_gui_container.c **** 	    {
  59              		.loc 1 22 0
  60 0018 D268     		ldr	r2, [r2, #12]
  61              	.LVL3:
  62 001a 002A     		cmp	r2, #0
  63 001c F5D0     		beq	.L4
  64 001e 1346     		mov	r3, r2
  65              	.LVL4:
  66 0020 D268     		ldr	r2, [r2, #12]
  67              	.LVL5:
  68 0022 002A     		cmp	r2, #0
  69 0024 F7D1     		bne	.L6
  70 0026 F0E7     		b	.L4
  71              	.LVL6:
  72              	.L9:
   8:MakiseGUI/MakiseGUI/gui/makise_gui_container.c **** 	cont->last = el;
  73              		.loc 1 8 0
  74 0028 8160     		str	r1, [r0, #8]
ARM GAS  /tmp/ccW6IcgV.s 			page 3


   9:MakiseGUI/MakiseGUI/gui/makise_gui_container.c **** 	cont->focused = 0;
  75              		.loc 1 9 0
  76 002a C160     		str	r1, [r0, #12]
  10:MakiseGUI/MakiseGUI/gui/makise_gui_container.c **** 	el->next = 0;
  77              		.loc 1 10 0
  78 002c 0261     		str	r2, [r0, #16]
  11:MakiseGUI/MakiseGUI/gui/makise_gui_container.c **** 	el->prev = 0;
  79              		.loc 1 11 0
  80 002e CA60     		str	r2, [r1, #12]
  12:MakiseGUI/MakiseGUI/gui/makise_gui_container.c **** 	
  81              		.loc 1 12 0
  82 0030 8A60     		str	r2, [r1, #8]
  14:MakiseGUI/MakiseGUI/gui/makise_gui_container.c ****     }
  83              		.loc 1 14 0
  84 0032 7047     		bx	lr
  85              		.cfi_endproc
  86              	.LFE126:
  88              		.section	.text.makise_g_cont_rem,"ax",%progbits
  89              		.align	1
  90              		.p2align 2,,3
  91              		.global	makise_g_cont_rem
  92              		.syntax unified
  93              		.thumb
  94              		.thumb_func
  95              		.fpu fpv4-sp-d16
  97              	makise_g_cont_rem:
  98              	.LFB127:
  37:MakiseGUI/MakiseGUI/gui/makise_gui_container.c ****     }
  38:MakiseGUI/MakiseGUI/gui/makise_gui_container.c **** }
  39:MakiseGUI/MakiseGUI/gui/makise_gui_container.c **** void makise_g_cont_rem(MContainer * cont, MElement *el)
  40:MakiseGUI/MakiseGUI/gui/makise_gui_container.c **** {
  99              		.loc 1 40 0
 100              		.cfi_startproc
 101              		@ args = 0, pretend = 0, frame = 0
 102              		@ frame_needed = 0, uses_anonymous_args = 0
 103              		@ link register save eliminated.
 104              	.LVL7:
 105 0000 7047     		bx	lr
 106              		.cfi_endproc
 107              	.LFE127:
 109 0002 00BF     		.section	.text.makise_g_cont_call_common_predraw,"ax",%progbits
 110              		.align	1
 111              		.p2align 2,,3
 112              		.global	makise_g_cont_call_common_predraw
 113              		.syntax unified
 114              		.thumb
 115              		.thumb_func
 116              		.fpu fpv4-sp-d16
 118              	makise_g_cont_call_common_predraw:
 119              	.LFB128:
  41:MakiseGUI/MakiseGUI/gui/makise_gui_container.c **** }
  42:MakiseGUI/MakiseGUI/gui/makise_gui_container.c **** 
  43:MakiseGUI/MakiseGUI/gui/makise_gui_container.c **** uint8_t makise_g_cont_call_common_predraw(MElement *b)
  44:MakiseGUI/MakiseGUI/gui/makise_gui_container.c **** {
 120              		.loc 1 44 0
 121              		.cfi_startproc
 122              		@ args = 0, pretend = 0, frame = 0
ARM GAS  /tmp/ccW6IcgV.s 			page 4


 123              		@ frame_needed = 0, uses_anonymous_args = 0
 124              		@ link register save eliminated.
 125              	.LVL8:
  45:MakiseGUI/MakiseGUI/gui/makise_gui_container.c ****     if(b->parent != 0 && b->parent->el != 0)
 126              		.loc 1 45 0
 127 0000 0269     		ldr	r2, [r0, #16]
  44:MakiseGUI/MakiseGUI/gui/makise_gui_container.c ****     if(b->parent != 0 && b->parent->el != 0)
 128              		.loc 1 44 0
 129 0002 0346     		mov	r3, r0
 130              		.loc 1 45 0
 131 0004 32B1     		cbz	r2, .L12
 132              		.loc 1 45 0 is_stmt 0 discriminator 1
 133 0006 5268     		ldr	r2, [r2, #4]
 134 0008 22B1     		cbz	r2, .L12
  46:MakiseGUI/MakiseGUI/gui/makise_gui_container.c ****     {
  47:MakiseGUI/MakiseGUI/gui/makise_gui_container.c **** 	b->position.real_x = b->position.x + b->parent->el->position.x;
 135              		.loc 1 47 0 is_stmt 1
 136 000a 9169     		ldr	r1, [r2, #24]
 137 000c 8269     		ldr	r2, [r0, #24]
 138              	.LVL9:
 139 000e 0A44     		add	r2, r2, r1
 140 0010 9A62     		str	r2, [r3, #40]
  48:MakiseGUI/MakiseGUI/gui/makise_gui_container.c **** 	b->position.real_x = b->position.x + b->parent->el->position.x;
  49:MakiseGUI/MakiseGUI/gui/makise_gui_container.c ****     }
  50:MakiseGUI/MakiseGUI/gui/makise_gui_container.c ****     else
  51:MakiseGUI/MakiseGUI/gui/makise_gui_container.c ****     {
  52:MakiseGUI/MakiseGUI/gui/makise_gui_container.c **** 	b->position.real_x = b->position.x;
  53:MakiseGUI/MakiseGUI/gui/makise_gui_container.c **** 	b->position.real_y = b->position.y;
  54:MakiseGUI/MakiseGUI/gui/makise_gui_container.c ****     }
  55:MakiseGUI/MakiseGUI/gui/makise_gui_container.c **** }
 141              		.loc 1 55 0
 142 0012 7047     		bx	lr
 143              	.LVL10:
 144              	.L12:
 145              	.LBB4:
 146              	.LBB5:
  53:MakiseGUI/MakiseGUI/gui/makise_gui_container.c ****     }
 147              		.loc 1 53 0
 148 0014 D969     		ldr	r1, [r3, #28]
  52:MakiseGUI/MakiseGUI/gui/makise_gui_container.c **** 	b->position.real_y = b->position.y;
 149              		.loc 1 52 0
 150 0016 9A69     		ldr	r2, [r3, #24]
  53:MakiseGUI/MakiseGUI/gui/makise_gui_container.c ****     }
 151              		.loc 1 53 0
 152 0018 D962     		str	r1, [r3, #44]
 153              	.LVL11:
 154 001a 9A62     		str	r2, [r3, #40]
 155              	.LBE5:
 156              	.LBE4:
 157              		.loc 1 55 0
 158 001c 7047     		bx	lr
 159              		.cfi_endproc
 160              	.LFE128:
 162 001e 00BF     		.section	.text.makise_g_cont_call,"ax",%progbits
 163              		.align	1
 164              		.p2align 2,,3
 165              		.global	makise_g_cont_call
ARM GAS  /tmp/ccW6IcgV.s 			page 5


 166              		.syntax unified
 167              		.thumb
 168              		.thumb_func
 169              		.fpu fpv4-sp-d16
 171              	makise_g_cont_call:
 172              	.LFB129:
  56:MakiseGUI/MakiseGUI/gui/makise_gui_container.c **** uint8_t makise_g_cont_call   (MContainer *cont, uint8_t type)
  57:MakiseGUI/MakiseGUI/gui/makise_gui_container.c **** {
 173              		.loc 1 57 0
 174              		.cfi_startproc
 175              		@ args = 0, pretend = 0, frame = 0
 176              		@ frame_needed = 0, uses_anonymous_args = 0
 177              	.LVL12:
  58:MakiseGUI/MakiseGUI/gui/makise_gui_container.c ****     if(cont == 0)
 178              		.loc 1 58 0
 179 0000 0028     		cmp	r0, #0
 180 0002 2DD0     		beq	.L31
  57:MakiseGUI/MakiseGUI/gui/makise_gui_container.c ****     if(cont == 0)
 181              		.loc 1 57 0
 182 0004 70B5     		push	{r4, r5, r6, lr}
 183              	.LCFI0:
 184              		.cfi_def_cfa_offset 16
 185              		.cfi_offset 4, -16
 186              		.cfi_offset 5, -12
 187              		.cfi_offset 6, -8
 188              		.cfi_offset 14, -4
  59:MakiseGUI/MakiseGUI/gui/makise_gui_container.c **** 	return M_ZERO_POINTER;
  60:MakiseGUI/MakiseGUI/gui/makise_gui_container.c ****     if(cont->first == 0)
 189              		.loc 1 60 0
 190 0006 8468     		ldr	r4, [r0, #8]
 191 0008 002C     		cmp	r4, #0
 192 000a 2BD0     		beq	.L32
 193 000c 0646     		mov	r6, r0
  61:MakiseGUI/MakiseGUI/gui/makise_gui_container.c **** 	return M_ZERO_POINTER;
  62:MakiseGUI/MakiseGUI/gui/makise_gui_container.c **** 
  63:MakiseGUI/MakiseGUI/gui/makise_gui_container.c ****     if(cont->el != 0) //container itself
 194              		.loc 1 63 0
 195 000e 4068     		ldr	r0, [r0, #4]
 196              	.LVL13:
 197 0010 0D46     		mov	r5, r1
 198 0012 28B1     		cbz	r0, .L22
  64:MakiseGUI/MakiseGUI/gui/makise_gui_container.c ****     {
  65:MakiseGUI/MakiseGUI/gui/makise_gui_container.c **** 	if(type == M_G_CALL_PREDRAW)
 199              		.loc 1 65 0
 200 0014 0229     		cmp	r1, #2
 201 0016 27D0     		beq	.L56
 202              	.L23:
  66:MakiseGUI/MakiseGUI/gui/makise_gui_container.c **** 	    makise_g_cont_call_common_predraw(cont->el);
  67:MakiseGUI/MakiseGUI/gui/makise_gui_container.c **** 	m_element_call(cont->el, type);
 203              		.loc 1 67 0
 204 0018 2946     		mov	r1, r5
 205              	.LVL14:
 206 001a FFF7FEFF 		bl	m_element_call
 207              	.LVL15:
 208 001e B468     		ldr	r4, [r6, #8]
 209              	.L22:
 210              	.LVL16:
ARM GAS  /tmp/ccW6IcgV.s 			page 6


 211 0020 022D     		cmp	r5, #2
 212 0022 13D0     		beq	.L30
 213              	.LVL17:
 214              	.L27:
  68:MakiseGUI/MakiseGUI/gui/makise_gui_container.c ****     }
  69:MakiseGUI/MakiseGUI/gui/makise_gui_container.c ****     
  70:MakiseGUI/MakiseGUI/gui/makise_gui_container.c ****     MElement *e = cont->first;
  71:MakiseGUI/MakiseGUI/gui/makise_gui_container.c ****     uint8_t r = 0;
  72:MakiseGUI/MakiseGUI/gui/makise_gui_container.c ****     while(1)
  73:MakiseGUI/MakiseGUI/gui/makise_gui_container.c ****     {
  74:MakiseGUI/MakiseGUI/gui/makise_gui_container.c **** 	if(type == M_G_CALL_PREDRAW)
  75:MakiseGUI/MakiseGUI/gui/makise_gui_container.c **** 	    makise_g_cont_call_common_predraw(e);
  76:MakiseGUI/MakiseGUI/gui/makise_gui_container.c **** 	r = m_element_call(e, type);
 215              		.loc 1 76 0
 216 0024 2046     		mov	r0, r4
 217 0026 2946     		mov	r1, r5
 218 0028 FFF7FEFF 		bl	m_element_call
 219              	.LVL18:
  77:MakiseGUI/MakiseGUI/gui/makise_gui_container.c **** 	if(e->next == 0)
 220              		.loc 1 77 0
 221 002c E468     		ldr	r4, [r4, #12]
 222              	.LVL19:
 223 002e 002C     		cmp	r4, #0
 224 0030 F8D1     		bne	.L27
 225              	.L26:
  78:MakiseGUI/MakiseGUI/gui/makise_gui_container.c **** 	    break;
  79:MakiseGUI/MakiseGUI/gui/makise_gui_container.c **** 	e = e->next;
  80:MakiseGUI/MakiseGUI/gui/makise_gui_container.c ****     }
  81:MakiseGUI/MakiseGUI/gui/makise_gui_container.c ****     return M_OK;
 226              		.loc 1 81 0
 227 0032 0120     		movs	r0, #1
 228 0034 70BD     		pop	{r4, r5, r6, pc}
 229              	.LVL20:
 230              	.L57:
 231              	.LBB14:
 232              	.LBB15:
  47:MakiseGUI/MakiseGUI/gui/makise_gui_container.c **** 	b->position.real_x = b->position.x + b->parent->el->position.x;
 233              		.loc 1 47 0
 234 0036 9A69     		ldr	r2, [r3, #24]
 235 0038 A369     		ldr	r3, [r4, #24]
 236 003a 1344     		add	r3, r3, r2
 237 003c A362     		str	r3, [r4, #40]
 238              	.L29:
 239              	.LBE15:
 240              	.LBE14:
  76:MakiseGUI/MakiseGUI/gui/makise_gui_container.c **** 	if(e->next == 0)
 241              		.loc 1 76 0
 242 003e 2046     		mov	r0, r4
 243 0040 0221     		movs	r1, #2
 244 0042 FFF7FEFF 		bl	m_element_call
 245              	.LVL21:
  77:MakiseGUI/MakiseGUI/gui/makise_gui_container.c **** 	    break;
 246              		.loc 1 77 0
 247 0046 E468     		ldr	r4, [r4, #12]
 248              	.LVL22:
 249 0048 002C     		cmp	r4, #0
 250 004a F2D0     		beq	.L26
ARM GAS  /tmp/ccW6IcgV.s 			page 7


 251              	.L30:
 252              	.LVL23:
 253              	.LBB19:
 254              	.LBB18:
  45:MakiseGUI/MakiseGUI/gui/makise_gui_container.c ****     {
 255              		.loc 1 45 0
 256 004c 2369     		ldr	r3, [r4, #16]
 257 004e 13B1     		cbz	r3, .L28
 258 0050 5B68     		ldr	r3, [r3, #4]
 259 0052 002B     		cmp	r3, #0
 260 0054 EFD1     		bne	.L57
 261              	.L28:
 262              	.LVL24:
 263              	.LBB16:
 264              	.LBB17:
  52:MakiseGUI/MakiseGUI/gui/makise_gui_container.c **** 	b->position.real_y = b->position.y;
 265              		.loc 1 52 0
 266 0056 A269     		ldr	r2, [r4, #24]
  53:MakiseGUI/MakiseGUI/gui/makise_gui_container.c ****     }
 267              		.loc 1 53 0
 268 0058 E369     		ldr	r3, [r4, #28]
  52:MakiseGUI/MakiseGUI/gui/makise_gui_container.c **** 	b->position.real_y = b->position.y;
 269              		.loc 1 52 0
 270 005a A262     		str	r2, [r4, #40]
  53:MakiseGUI/MakiseGUI/gui/makise_gui_container.c ****     }
 271              		.loc 1 53 0
 272 005c E362     		str	r3, [r4, #44]
 273 005e EEE7     		b	.L29
 274              	.LVL25:
 275              	.L31:
 276              	.LCFI1:
 277              		.cfi_def_cfa_offset 0
 278              		.cfi_restore 4
 279              		.cfi_restore 5
 280              		.cfi_restore 6
 281              		.cfi_restore 14
 282              	.LBE17:
 283              	.LBE16:
 284              	.LBE18:
 285              	.LBE19:
  59:MakiseGUI/MakiseGUI/gui/makise_gui_container.c ****     if(cont->first == 0)
 286              		.loc 1 59 0
 287 0060 0320     		movs	r0, #3
 288              	.LVL26:
 289 0062 7047     		bx	lr
 290              	.LVL27:
 291              	.L32:
 292              	.LCFI2:
 293              		.cfi_def_cfa_offset 16
 294              		.cfi_offset 4, -16
 295              		.cfi_offset 5, -12
 296              		.cfi_offset 6, -8
 297              		.cfi_offset 14, -4
 298 0064 0320     		movs	r0, #3
 299              	.LVL28:
  82:MakiseGUI/MakiseGUI/gui/makise_gui_container.c **** }
 300              		.loc 1 82 0
ARM GAS  /tmp/ccW6IcgV.s 			page 8


 301 0066 70BD     		pop	{r4, r5, r6, pc}
 302              	.LVL29:
 303              	.L56:
 304              	.LBB20:
 305              	.LBB21:
  45:MakiseGUI/MakiseGUI/gui/makise_gui_container.c ****     {
 306              		.loc 1 45 0
 307 0068 0369     		ldr	r3, [r0, #16]
 308 006a 33B1     		cbz	r3, .L24
 309 006c 5B68     		ldr	r3, [r3, #4]
 310 006e 23B1     		cbz	r3, .L24
  47:MakiseGUI/MakiseGUI/gui/makise_gui_container.c **** 	b->position.real_x = b->position.x + b->parent->el->position.x;
 311              		.loc 1 47 0
 312 0070 9A69     		ldr	r2, [r3, #24]
 313 0072 8369     		ldr	r3, [r0, #24]
 314 0074 1344     		add	r3, r3, r2
 315 0076 8362     		str	r3, [r0, #40]
 316 0078 CEE7     		b	.L23
 317              	.L24:
 318              	.LVL30:
 319              	.LBB22:
 320              	.LBB23:
  52:MakiseGUI/MakiseGUI/gui/makise_gui_container.c **** 	b->position.real_y = b->position.y;
 321              		.loc 1 52 0
 322 007a 8269     		ldr	r2, [r0, #24]
  53:MakiseGUI/MakiseGUI/gui/makise_gui_container.c ****     }
 323              		.loc 1 53 0
 324 007c C369     		ldr	r3, [r0, #28]
  52:MakiseGUI/MakiseGUI/gui/makise_gui_container.c **** 	b->position.real_y = b->position.y;
 325              		.loc 1 52 0
 326 007e 8262     		str	r2, [r0, #40]
  53:MakiseGUI/MakiseGUI/gui/makise_gui_container.c ****     }
 327              		.loc 1 53 0
 328 0080 C362     		str	r3, [r0, #44]
 329 0082 C9E7     		b	.L23
 330              	.LBE23:
 331              	.LBE22:
 332              	.LBE21:
 333              	.LBE20:
 334              		.cfi_endproc
 335              	.LFE129:
 337              		.section	.text.makise_g_cont_input,"ax",%progbits
 338              		.align	1
 339              		.p2align 2,,3
 340              		.global	makise_g_cont_input
 341              		.syntax unified
 342              		.thumb
 343              		.thumb_func
 344              		.fpu fpv4-sp-d16
 346              	makise_g_cont_input:
 347              	.LFB130:
  83:MakiseGUI/MakiseGUI/gui/makise_gui_container.c **** 
  84:MakiseGUI/MakiseGUI/gui/makise_gui_container.c **** MInputResultEnum makise_g_cont_input  (MContainer *cont, MInputData data)
  85:MakiseGUI/MakiseGUI/gui/makise_gui_container.c **** {
 348              		.loc 1 85 0
 349              		.cfi_startproc
 350              		@ args = 0, pretend = 0, frame = 16
ARM GAS  /tmp/ccW6IcgV.s 			page 9


 351              		@ frame_needed = 0, uses_anonymous_args = 0
 352              		@ link register save eliminated.
 353              	.LVL31:
 354 0000 30B4     		push	{r4, r5}
 355              	.LCFI3:
 356              		.cfi_def_cfa_offset 8
 357              		.cfi_offset 4, -8
 358              		.cfi_offset 5, -4
 359 0002 84B0     		sub	sp, sp, #16
 360              	.LCFI4:
 361              		.cfi_def_cfa_offset 24
 362              		.loc 1 85 0
 363 0004 01AC     		add	r4, sp, #4
 364 0006 84E80E00 		stm	r4, {r1, r2, r3}
  86:MakiseGUI/MakiseGUI/gui/makise_gui_container.c ****     if(cont == 0)
 365              		.loc 1 86 0
 366 000a 40B1     		cbz	r0, .L60
  87:MakiseGUI/MakiseGUI/gui/makise_gui_container.c **** 	return M_ZERO_POINTER;
  88:MakiseGUI/MakiseGUI/gui/makise_gui_container.c **** 
  89:MakiseGUI/MakiseGUI/gui/makise_gui_container.c ****     if(cont->focused != 0)
 367              		.loc 1 89 0
 368 000c 0069     		ldr	r0, [r0, #16]
 369              	.LVL32:
 370 000e 50B1     		cbz	r0, .L61
  90:MakiseGUI/MakiseGUI/gui/makise_gui_container.c **** 	return cont->focused->input(cont->focused, data);
 371              		.loc 1 90 0
 372 0010 94E80E00 		ldm	r4, {r1, r2, r3}
 373 0014 456C     		ldr	r5, [r0, #68]
 374 0016 AC46     		mov	ip, r5
  91:MakiseGUI/MakiseGUI/gui/makise_gui_container.c **** 
  92:MakiseGUI/MakiseGUI/gui/makise_gui_container.c ****     return M_INPUT_NOT_HANDLED;
  93:MakiseGUI/MakiseGUI/gui/makise_gui_container.c **** }
 375              		.loc 1 93 0
 376 0018 04B0     		add	sp, sp, #16
 377              	.LCFI5:
 378              		.cfi_remember_state
 379              		.cfi_def_cfa_offset 8
 380              		@ sp needed
 381 001a 30BC     		pop	{r4, r5}
 382              	.LCFI6:
 383              		.cfi_restore 5
 384              		.cfi_restore 4
 385              		.cfi_def_cfa_offset 0
  90:MakiseGUI/MakiseGUI/gui/makise_gui_container.c **** 	return cont->focused->input(cont->focused, data);
 386              		.loc 1 90 0
 387 001c 6047     		bx	ip
 388              	.LVL33:
 389              	.L60:
 390              	.LCFI7:
 391              		.cfi_restore_state
  87:MakiseGUI/MakiseGUI/gui/makise_gui_container.c **** 
 392              		.loc 1 87 0
 393 001e 0320     		movs	r0, #3
 394              	.LVL34:
 395              		.loc 1 93 0
 396 0020 04B0     		add	sp, sp, #16
 397              	.LCFI8:
ARM GAS  /tmp/ccW6IcgV.s 			page 10


 398              		.cfi_remember_state
 399              		.cfi_def_cfa_offset 8
 400              		@ sp needed
 401 0022 30BC     		pop	{r4, r5}
 402              	.LCFI9:
 403              		.cfi_restore 5
 404              		.cfi_restore 4
 405              		.cfi_def_cfa_offset 0
 406 0024 7047     		bx	lr
 407              	.L61:
 408              	.LCFI10:
 409              		.cfi_restore_state
  92:MakiseGUI/MakiseGUI/gui/makise_gui_container.c **** }
 410              		.loc 1 92 0
 411 0026 0120     		movs	r0, #1
 412              		.loc 1 93 0
 413 0028 04B0     		add	sp, sp, #16
 414              	.LCFI11:
 415              		.cfi_def_cfa_offset 8
 416              		@ sp needed
 417 002a 30BC     		pop	{r4, r5}
 418              	.LCFI12:
 419              		.cfi_restore 4
 420              		.cfi_restore 5
 421              		.cfi_def_cfa_offset 0
 422 002c 7047     		bx	lr
 423              		.cfi_endproc
 424              	.LFE130:
 426 002e 00BF     		.text
 427              	.Letext0:
 428              		.file 2 "MakiseGUI/MakiseGUI/gui/makise_gui_container.h"
 429              		.file 3 "MakiseGUI/MakiseGUI/gui/makise_gui.h"
 430              		.file 4 "MakiseGUI/MakiseGUI/makise.h"
 431              		.file 5 "/usr/arm-none-eabi/include/machine/_default_types.h"
 432              		.file 6 "/usr/arm-none-eabi/include/sys/lock.h"
 433              		.file 7 "/usr/arm-none-eabi/include/sys/_types.h"
 434              		.file 8 "/usr/lib/gcc/arm-none-eabi/6.3.0/include/stddef.h"
 435              		.file 9 "/usr/arm-none-eabi/include/sys/reent.h"
 436              		.file 10 "/usr/arm-none-eabi/include/sys/_stdint.h"
 437              		.file 11 "Drivers/CMSIS/Include/core_cm4.h"
 438              		.file 12 "Drivers/CMSIS/Device/ST/STM32F4xx/Include/system_stm32f4xx.h"
 439              		.file 13 "Drivers/CMSIS/Device/ST/STM32F4xx/Include/stm32f401xe.h"
 440              		.file 14 "Drivers/STM32F4xx_HAL_Driver/Inc/stm32f4xx_hal_def.h"
 441              		.file 15 "Drivers/STM32F4xx_HAL_Driver/Inc/stm32f4xx_hal_dma.h"
 442              		.file 16 "Drivers/STM32F4xx_HAL_Driver/Inc/stm32f4xx_hal_spi.h"
 443              		.file 17 "Drivers/STM32F4xx_HAL_Driver/Inc/stm32f4xx_hal_tim.h"
 444              		.file 18 "Inc/spi.h"
 445              		.file 19 "Inc/tim.h"
 446              		.file 20 "MakiseGUI/MakiseGUI/ILI9340C/ili9340.h"
 447              		.file 21 "MakiseGUI/MakiseGUI/makise_text.h"
 448              		.file 22 "MakiseGUI/MakiseGUI/fonts/fonts.h"
 449              		.file 23 "MakiseGUI/MakiseGUI/gui/makise_gui_input.h"
 450              		.file 24 "MakiseGUI/MakiseGUI/gui/makise_gui_elements.h"
ARM GAS  /tmp/ccW6IcgV.s 			page 11


DEFINED SYMBOLS
                            *ABS*:0000000000000000 makise_gui_container.c
     /tmp/ccW6IcgV.s:16     .text.makise_g_cont_add:0000000000000000 $t
     /tmp/ccW6IcgV.s:24     .text.makise_g_cont_add:0000000000000000 makise_g_cont_add
     /tmp/ccW6IcgV.s:89     .text.makise_g_cont_rem:0000000000000000 $t
     /tmp/ccW6IcgV.s:97     .text.makise_g_cont_rem:0000000000000000 makise_g_cont_rem
     /tmp/ccW6IcgV.s:110    .text.makise_g_cont_call_common_predraw:0000000000000000 $t
     /tmp/ccW6IcgV.s:118    .text.makise_g_cont_call_common_predraw:0000000000000000 makise_g_cont_call_common_predraw
     /tmp/ccW6IcgV.s:163    .text.makise_g_cont_call:0000000000000000 $t
     /tmp/ccW6IcgV.s:171    .text.makise_g_cont_call:0000000000000000 makise_g_cont_call
     /tmp/ccW6IcgV.s:338    .text.makise_g_cont_input:0000000000000000 $t
     /tmp/ccW6IcgV.s:346    .text.makise_g_cont_input:0000000000000000 makise_g_cont_input
                     .debug_frame:0000000000000010 $d

UNDEFINED SYMBOLS
m_element_call
