ARM GAS  /tmp/cc8HcXuQ.s 			page 1


   1              		.cpu cortex-m4
   2              		.eabi_attribute 27, 1
   3              		.eabi_attribute 28, 1
   4              		.eabi_attribute 20, 1
   5              		.eabi_attribute 21, 1
   6              		.eabi_attribute 23, 3
   7              		.eabi_attribute 24, 1
   8              		.eabi_attribute 25, 1
   9              		.eabi_attribute 26, 1
  10              		.eabi_attribute 30, 2
  11              		.eabi_attribute 34, 1
  12              		.eabi_attribute 18, 4
  13              		.file	"makise_text.c"
  14              		.text
  15              	.Ltext0:
  16              		.cfi_sections	.debug_frame
  17              		.section	.text._makise_draw_char,"ax",%progbits
  18              		.align	1
  19              		.p2align 2,,3
  20              		.syntax unified
  21              		.thumb
  22              		.thumb_func
  23              		.fpu fpv4-sp-d16
  25              	_makise_draw_char:
  26              	.LFB126:
  27              		.file 1 "MakiseGUI/MakiseGUI/makise_text.c"
   1:MakiseGUI/MakiseGUI/makise_text.c **** #include "makise_text.h"
   2:MakiseGUI/MakiseGUI/makise_text.c **** 
   3:MakiseGUI/MakiseGUI/makise_text.c **** static void _makise_draw_char(MakiseBuffer *b, uint16_t ind, uint16_t x, uint16_t y, const MakiseFo
   4:MakiseGUI/MakiseGUI/makise_text.c **** {
  28              		.loc 1 4 0
  29              		.cfi_startproc
  30              		@ args = 12, pretend = 0, frame = 8
  31              		@ frame_needed = 0, uses_anonymous_args = 0
  32              	.LVL0:
  33 0000 2DE9F04F 		push	{r4, r5, r6, r7, r8, r9, r10, fp, lr}
  34              	.LCFI0:
  35              		.cfi_def_cfa_offset 36
  36              		.cfi_offset 4, -36
  37              		.cfi_offset 5, -32
  38              		.cfi_offset 6, -28
  39              		.cfi_offset 7, -24
  40              		.cfi_offset 8, -20
  41              		.cfi_offset 9, -16
  42              		.cfi_offset 10, -12
  43              		.cfi_offset 11, -8
  44              		.cfi_offset 14, -4
  45 0004 83B0     		sub	sp, sp, #12
  46              	.LCFI1:
  47              		.cfi_def_cfa_offset 48
   5:MakiseGUI/MakiseGUI/makise_text.c ****     uint32_t bitCounter, rawIndex, colIndex;
   6:MakiseGUI/MakiseGUI/makise_text.c ****     const uint8_t * ptrByte;
   7:MakiseGUI/MakiseGUI/makise_text.c ****     
   8:MakiseGUI/MakiseGUI/makise_text.c ****     ptrByte = &font->table[font->char_index[ind]];
  48              		.loc 1 8 0
  49 0006 0C9C     		ldr	r4, [sp, #48]
  50 0008 0C9D     		ldr	r5, [sp, #48]
ARM GAS  /tmp/cc8HcXuQ.s 			page 2


  51 000a E468     		ldr	r4, [r4, #12]
  52 000c 2E68     		ldr	r6, [r5]
  53 000e 34F81140 		ldrh	r4, [r4, r1, lsl #1]
   9:MakiseGUI/MakiseGUI/makise_text.c ****     for(rawIndex = 0; rawIndex < font->height; rawIndex++)
  54              		.loc 1 9 0
  55 0012 E988     		ldrh	r1, [r5, #6]
  56              	.LVL1:
   4:MakiseGUI/MakiseGUI/makise_text.c ****     uint32_t bitCounter, rawIndex, colIndex;
  57              		.loc 1 4 0
  58 0014 BDF83870 		ldrh	r7, [sp, #56]
   8:MakiseGUI/MakiseGUI/makise_text.c ****     for(rawIndex = 0; rawIndex < font->height; rawIndex++)
  59              		.loc 1 8 0
  60 0018 2644     		add	r6, r6, r4
  61              	.LVL2:
  62              		.loc 1 9 0
  63 001a 81B3     		cbz	r1, .L1
  10:MakiseGUI/MakiseGUI/makise_text.c ****     {
  11:MakiseGUI/MakiseGUI/makise_text.c **** 	bitCounter = 0;
  12:MakiseGUI/MakiseGUI/makise_text.c **** 	for(colIndex = 0; colIndex < width; colIndex++)
  13:MakiseGUI/MakiseGUI/makise_text.c **** 	{
  14:MakiseGUI/MakiseGUI/makise_text.c **** 
  15:MakiseGUI/MakiseGUI/makise_text.c **** 	    if (bitCounter > 7)
  16:MakiseGUI/MakiseGUI/makise_text.c **** 	    {
  17:MakiseGUI/MakiseGUI/makise_text.c **** 		bitCounter = 0;
  18:MakiseGUI/MakiseGUI/makise_text.c **** 		ptrByte++;
  19:MakiseGUI/MakiseGUI/makise_text.c **** 	    }
  20:MakiseGUI/MakiseGUI/makise_text.c **** 	    if(*ptrByte & (1<<bitCounter))
  21:MakiseGUI/MakiseGUI/makise_text.c **** 	    {
  22:MakiseGUI/MakiseGUI/makise_text.c **** 		makise_pset(b, x+colIndex - 1, y+rawIndex - 1, c);
  64              		.loc 1 22 0
  65 001c 013B     		subs	r3, r3, #1
  66              	.LVL3:
  67 001e 8346     		mov	fp, r0
  68 0020 0193     		str	r3, [sp, #4]
  69 0022 02F1FF3A 		add	r10, r2, #-1
   9:MakiseGUI/MakiseGUI/makise_text.c ****     {
  70              		.loc 1 9 0
  71 0026 4FF00009 		mov	r9, #0
  72              	.LVL4:
  73              	.L3:
  12:MakiseGUI/MakiseGUI/makise_text.c **** 	{
  74              		.loc 1 12 0 discriminator 1
  75 002a 17B3     		cbz	r7, .L8
  76              		.loc 1 22 0
  77 002c 019B     		ldr	r3, [sp, #4]
  12:MakiseGUI/MakiseGUI/makise_text.c **** 	{
  78              		.loc 1 12 0
  79 002e 0025     		movs	r5, #0
  80              		.loc 1 22 0
  81 0030 03EB0908 		add	r8, r3, r9
  12:MakiseGUI/MakiseGUI/makise_text.c **** 	{
  82              		.loc 1 12 0
  83 0034 2C46     		mov	r4, r5
  84              		.loc 1 22 0
  85 0036 1FFA88F8 		uxth	r8, r8
  86              	.LVL5:
  87              	.L7:
ARM GAS  /tmp/cc8HcXuQ.s 			page 3


  20:MakiseGUI/MakiseGUI/makise_text.c **** 	    {
  88              		.loc 1 20 0
  89 003a 3378     		ldrb	r3, [r6]	@ zero_extendqisi2
  90 003c 2341     		asrs	r3, r3, r4
  91 003e 13F0010F 		tst	r3, #1
  23:MakiseGUI/MakiseGUI/makise_text.c **** 	    }
  24:MakiseGUI/MakiseGUI/makise_text.c **** 	    bitCounter++;
  92              		.loc 1 24 0
  93 0042 04F10104 		add	r4, r4, #1
  94              	.LVL6:
  20:MakiseGUI/MakiseGUI/makise_text.c **** 	    {
  95              		.loc 1 20 0
  96 0046 07D1     		bne	.L18
  97              	.LVL7:
  12:MakiseGUI/MakiseGUI/makise_text.c **** 	{
  98              		.loc 1 12 0 discriminator 2
  99 0048 0135     		adds	r5, r5, #1
 100              	.LVL8:
 101 004a AF42     		cmp	r7, r5
 102 004c 0FD0     		beq	.L19
 103              	.L6:
  15:MakiseGUI/MakiseGUI/makise_text.c **** 	    {
 104              		.loc 1 15 0
 105 004e 072C     		cmp	r4, #7
 106 0050 F3D9     		bls	.L7
  18:MakiseGUI/MakiseGUI/makise_text.c **** 	    }
 107              		.loc 1 18 0
 108 0052 0136     		adds	r6, r6, #1
 109              	.LVL9:
  17:MakiseGUI/MakiseGUI/makise_text.c **** 		ptrByte++;
 110              		.loc 1 17 0
 111 0054 0024     		movs	r4, #0
 112              	.LVL10:
 113 0056 F0E7     		b	.L7
 114              	.LVL11:
 115              	.L18:
  22:MakiseGUI/MakiseGUI/makise_text.c **** 	    }
 116              		.loc 1 22 0
 117 0058 0AEB0501 		add	r1, r10, r5
 118 005c 89B2     		uxth	r1, r1
 119 005e 0D9B     		ldr	r3, [sp, #52]
 120 0060 4246     		mov	r2, r8
 121 0062 5846     		mov	r0, fp
  12:MakiseGUI/MakiseGUI/makise_text.c **** 	{
 122              		.loc 1 12 0
 123 0064 0135     		adds	r5, r5, #1
  22:MakiseGUI/MakiseGUI/makise_text.c **** 	    }
 124              		.loc 1 22 0
 125 0066 FFF7FEFF 		bl	makise_pset
 126              	.LVL12:
  12:MakiseGUI/MakiseGUI/makise_text.c **** 	{
 127              		.loc 1 12 0
 128 006a AF42     		cmp	r7, r5
 129 006c EFD1     		bne	.L6
 130              	.L19:
 131 006e 0C9B     		ldr	r3, [sp, #48]
 132 0070 D988     		ldrh	r1, [r3, #6]
ARM GAS  /tmp/cc8HcXuQ.s 			page 4


 133              	.LVL13:
 134              	.L8:
   9:MakiseGUI/MakiseGUI/makise_text.c ****     {
 135              		.loc 1 9 0 discriminator 2
 136 0072 09F10109 		add	r9, r9, #1
 137              	.LVL14:
 138 0076 4945     		cmp	r1, r9
  25:MakiseGUI/MakiseGUI/makise_text.c **** 	}
  26:MakiseGUI/MakiseGUI/makise_text.c **** 	ptrByte++;
 139              		.loc 1 26 0 discriminator 2
 140 0078 06F10106 		add	r6, r6, #1
 141              	.LVL15:
   9:MakiseGUI/MakiseGUI/makise_text.c ****     {
 142              		.loc 1 9 0 discriminator 2
 143 007c D5D8     		bhi	.L3
 144              	.LVL16:
 145              	.L1:
  27:MakiseGUI/MakiseGUI/makise_text.c ****     }
  28:MakiseGUI/MakiseGUI/makise_text.c **** }
 146              		.loc 1 28 0
 147 007e 03B0     		add	sp, sp, #12
 148              	.LCFI2:
 149              		.cfi_def_cfa_offset 36
 150              		@ sp needed
 151 0080 BDE8F08F 		pop	{r4, r5, r6, r7, r8, r9, r10, fp, pc}
 152              		.cfi_endproc
 153              	.LFE126:
 155              		.section	.text.makise_d_char,"ax",%progbits
 156              		.align	1
 157              		.p2align 2,,3
 158              		.global	makise_d_char
 159              		.syntax unified
 160              		.thumb
 161              		.thumb_func
 162              		.fpu fpv4-sp-d16
 164              	makise_d_char:
 165              	.LFB127:
  29:MakiseGUI/MakiseGUI/makise_text.c **** 
  30:MakiseGUI/MakiseGUI/makise_text.c **** void makise_d_char(MakiseBuffer *b, uint16_t ch, uint16_t x, uint16_t y, const MakiseFont *font, ui
  31:MakiseGUI/MakiseGUI/makise_text.c **** {
 166              		.loc 1 31 0
 167              		.cfi_startproc
 168              		@ args = 8, pretend = 0, frame = 0
 169              		@ frame_needed = 0, uses_anonymous_args = 0
 170              	.LVL17:
 171 0000 F0B5     		push	{r4, r5, r6, r7, lr}
 172              	.LCFI3:
 173              		.cfi_def_cfa_offset 20
 174              		.cfi_offset 4, -20
 175              		.cfi_offset 5, -16
 176              		.cfi_offset 6, -12
 177              		.cfi_offset 7, -8
 178              		.cfi_offset 14, -4
 179 0002 85B0     		sub	sp, sp, #20
 180              	.LCFI4:
 181              		.cfi_def_cfa_offset 40
 182 0004 C9B2     		uxtb	r1, r1
ARM GAS  /tmp/cc8HcXuQ.s 			page 5


 183              	.LVL18:
 184              		.loc 1 31 0
 185 0006 0A9D     		ldr	r5, [sp, #40]
 186 0008 0B9C     		ldr	r4, [sp, #44]
  32:MakiseGUI/MakiseGUI/makise_text.c ****     uint32_t width;
  33:MakiseGUI/MakiseGUI/makise_text.c **** 
  34:MakiseGUI/MakiseGUI/makise_text.c ****     ch = (uint8_t)ch - font->offset;
 187              		.loc 1 34 0
 188 000a 2E8A     		ldrh	r6, [r5, #16]
  35:MakiseGUI/MakiseGUI/makise_text.c ****     
  36:MakiseGUI/MakiseGUI/makise_text.c ****     // Symbol width
  37:MakiseGUI/MakiseGUI/makise_text.c ****     if (ch > font->num_char) ch = 0;
 189              		.loc 1 37 0
 190 000c 6F8A     		ldrh	r7, [r5, #18]
  34:MakiseGUI/MakiseGUI/makise_text.c ****     
 191              		.loc 1 34 0
 192 000e 891B     		subs	r1, r1, r6
  38:MakiseGUI/MakiseGUI/makise_text.c ****     width = font->width ? font->width : font->char_width[ch];
 193              		.loc 1 38 0
 194 0010 AE88     		ldrh	r6, [r5, #4]
  34:MakiseGUI/MakiseGUI/makise_text.c ****     
 195              		.loc 1 34 0
 196 0012 89B2     		uxth	r1, r1
 197              	.LVL19:
  37:MakiseGUI/MakiseGUI/makise_text.c ****     width = font->width ? font->width : font->char_width[ch];
 198              		.loc 1 37 0
 199 0014 8F42     		cmp	r7, r1
 200 0016 38BF     		it	cc
 201 0018 0021     		movcc	r1, #0
 202              	.LVL20:
 203              		.loc 1 38 0
 204 001a 0EB9     		cbnz	r6, .L23
 205              		.loc 1 38 0 is_stmt 0 discriminator 2
 206 001c AE68     		ldr	r6, [r5, #8]
 207 001e 765C     		ldrb	r6, [r6, r1]	@ zero_extendqisi2
 208              	.L23:
 209              	.LVL21:
  39:MakiseGUI/MakiseGUI/makise_text.c **** 	
  40:MakiseGUI/MakiseGUI/makise_text.c ****     // Draw Char
  41:MakiseGUI/MakiseGUI/makise_text.c ****     _makise_draw_char(b, ch, x, y, font, c, width);
 210              		.loc 1 41 0 is_stmt 1 discriminator 4
 211 0020 0296     		str	r6, [sp, #8]
 212 0022 0194     		str	r4, [sp, #4]
 213 0024 0095     		str	r5, [sp]
 214 0026 FFF7FEFF 		bl	_makise_draw_char
 215              	.LVL22:
  42:MakiseGUI/MakiseGUI/makise_text.c **** }
 216              		.loc 1 42 0 discriminator 4
 217 002a 05B0     		add	sp, sp, #20
 218              	.LCFI5:
 219              		.cfi_def_cfa_offset 20
 220              		@ sp needed
 221 002c F0BD     		pop	{r4, r5, r6, r7, pc}
 222              		.cfi_endproc
 223              	.LFE127:
 225 002e 00BF     		.section	.text.makise_d_string,"ax",%progbits
 226              		.align	1
ARM GAS  /tmp/cc8HcXuQ.s 			page 6


 227              		.p2align 2,,3
 228              		.global	makise_d_string
 229              		.syntax unified
 230              		.thumb
 231              		.thumb_func
 232              		.fpu fpv4-sp-d16
 234              	makise_d_string:
 235              	.LFB128:
  43:MakiseGUI/MakiseGUI/makise_text.c **** void makise_d_string(MakiseBuffer *b, char *s, uint16_t x, uint16_t y, const MakiseFont *font, uint
  44:MakiseGUI/MakiseGUI/makise_text.c **** {
 236              		.loc 1 44 0
 237              		.cfi_startproc
 238              		@ args = 8, pretend = 0, frame = 0
 239              		@ frame_needed = 0, uses_anonymous_args = 0
 240              	.LVL23:
 241 0000 2DE9F04F 		push	{r4, r5, r6, r7, r8, r9, r10, fp, lr}
 242              	.LCFI6:
 243              		.cfi_def_cfa_offset 36
 244              		.cfi_offset 4, -36
 245              		.cfi_offset 5, -32
 246              		.cfi_offset 6, -28
 247              		.cfi_offset 7, -24
 248              		.cfi_offset 8, -20
 249              		.cfi_offset 9, -16
 250              		.cfi_offset 10, -12
 251              		.cfi_offset 11, -8
 252              		.cfi_offset 14, -4
 253 0004 8146     		mov	r9, r0
 254 0006 85B0     		sub	sp, sp, #20
 255              	.LCFI7:
 256              		.cfi_def_cfa_offset 56
  45:MakiseGUI/MakiseGUI/makise_text.c ****     uint32_t width, l = strlen(s) , i = 0;
 257              		.loc 1 45 0
 258 0008 0846     		mov	r0, r1
 259              	.LVL24:
  44:MakiseGUI/MakiseGUI/makise_text.c ****     uint32_t width, l = strlen(s) , i = 0;
 260              		.loc 1 44 0
 261 000a 0E46     		mov	r6, r1
 262 000c 1746     		mov	r7, r2
 263 000e 9A46     		mov	r10, r3
 264              		.loc 1 45 0
 265 0010 FFF7FEFF 		bl	strlen
 266              	.LVL25:
  44:MakiseGUI/MakiseGUI/makise_text.c ****     uint32_t width, l = strlen(s) , i = 0;
 267              		.loc 1 44 0
 268 0014 0E9C     		ldr	r4, [sp, #56]
 269 0016 DDF83CB0 		ldr	fp, [sp, #60]
  46:MakiseGUI/MakiseGUI/makise_text.c ****     uint32_t ch, xt = x, yt = y;
  47:MakiseGUI/MakiseGUI/makise_text.c **** 
  48:MakiseGUI/MakiseGUI/makise_text.c ****     while (i < l) {
 270              		.loc 1 48 0
 271 001a E0B1     		cbz	r0, .L25
 272 001c 06EB0008 		add	r8, r6, r0
 273              	.LVL26:
 274              	.L30:
  49:MakiseGUI/MakiseGUI/makise_text.c **** 	ch = s[i];
  50:MakiseGUI/MakiseGUI/makise_text.c **** 	ch = (uint8_t)ch - font->offset;
ARM GAS  /tmp/cc8HcXuQ.s 			page 7


 275              		.loc 1 50 0
 276 0020 218A     		ldrh	r1, [r4, #16]
  49:MakiseGUI/MakiseGUI/makise_text.c **** 	ch = s[i];
 277              		.loc 1 49 0
 278 0022 16F8013B 		ldrb	r3, [r6], #1	@ zero_extendqisi2
 279              	.LVL27:
  51:MakiseGUI/MakiseGUI/makise_text.c **** 
  52:MakiseGUI/MakiseGUI/makise_text.c **** 	// Symbol width
  53:MakiseGUI/MakiseGUI/makise_text.c **** 	if (ch > font->num_char) ch = 0;
 280              		.loc 1 53 0
 281 0026 628A     		ldrh	r2, [r4, #18]
  54:MakiseGUI/MakiseGUI/makise_text.c **** 	width = font->width ? font->width : font->char_width[ch];
 282              		.loc 1 54 0
 283 0028 A588     		ldrh	r5, [r4, #4]
  50:MakiseGUI/MakiseGUI/makise_text.c **** 
 284              		.loc 1 50 0
 285 002a 5B1A     		subs	r3, r3, r1
 286              	.LVL28:
  53:MakiseGUI/MakiseGUI/makise_text.c **** 	width = font->width ? font->width : font->char_width[ch];
 287              		.loc 1 53 0
 288 002c 9342     		cmp	r3, r2
 289 002e 8ABF     		itet	hi
 290 0030 0021     		movhi	r1, #0
 291 0032 99B2     		uxthls	r1, r3
 292 0034 0B46     		movhi	r3, r1
 293              	.LVL29:
 294              		.loc 1 54 0
 295 0036 0DB9     		cbnz	r5, .L29
 296              		.loc 1 54 0 is_stmt 0 discriminator 2
 297 0038 A268     		ldr	r2, [r4, #8]
 298 003a D55C     		ldrb	r5, [r2, r3]	@ zero_extendqisi2
 299              	.L29:
 300              	.LVL30:
  55:MakiseGUI/MakiseGUI/makise_text.c **** 	
  56:MakiseGUI/MakiseGUI/makise_text.c **** 	// Draw Char
  57:MakiseGUI/MakiseGUI/makise_text.c **** 	_makise_draw_char(b, ch, xt, yt, font, c, width);
 301              		.loc 1 57 0 is_stmt 1 discriminator 4
 302 003c 0295     		str	r5, [sp, #8]
 303 003e 5346     		mov	r3, r10
 304              	.LVL31:
 305 0040 BAB2     		uxth	r2, r7
 306 0042 8DE81008 		stm	sp, {r4, fp}
 307 0046 4846     		mov	r0, r9
 308 0048 FFF7FEFF 		bl	_makise_draw_char
 309              	.LVL32:
  58:MakiseGUI/MakiseGUI/makise_text.c **** 	xt += width + font->space_char;
 310              		.loc 1 58 0 discriminator 4
 311 004c A38A     		ldrh	r3, [r4, #20]
  48:MakiseGUI/MakiseGUI/makise_text.c **** 	ch = s[i];
 312              		.loc 1 48 0 discriminator 4
 313 004e B045     		cmp	r8, r6
 314              		.loc 1 58 0 discriminator 4
 315 0050 1D44     		add	r5, r5, r3
 316              	.LVL33:
 317 0052 2F44     		add	r7, r7, r5
 318              	.LVL34:
  48:MakiseGUI/MakiseGUI/makise_text.c **** 	ch = s[i];
ARM GAS  /tmp/cc8HcXuQ.s 			page 8


 319              		.loc 1 48 0 discriminator 4
 320 0054 E4D1     		bne	.L30
 321              	.LVL35:
 322              	.L25:
  59:MakiseGUI/MakiseGUI/makise_text.c **** 	i++;
  60:MakiseGUI/MakiseGUI/makise_text.c ****     }
  61:MakiseGUI/MakiseGUI/makise_text.c **** }
 323              		.loc 1 61 0
 324 0056 05B0     		add	sp, sp, #20
 325              	.LCFI8:
 326              		.cfi_def_cfa_offset 36
 327              		@ sp needed
 328 0058 BDE8F08F 		pop	{r4, r5, r6, r7, r8, r9, r10, fp, pc}
 329              		.cfi_endproc
 330              	.LFE128:
 332              		.text
 333              	.Letext0:
 334              		.file 2 "/usr/arm-none-eabi/include/machine/_default_types.h"
 335              		.file 3 "/usr/arm-none-eabi/include/sys/lock.h"
 336              		.file 4 "/usr/arm-none-eabi/include/sys/_types.h"
 337              		.file 5 "/usr/lib/gcc/arm-none-eabi/6.3.0/include/stddef.h"
 338              		.file 6 "/usr/arm-none-eabi/include/sys/reent.h"
 339              		.file 7 "MakiseGUI/MakiseGUI/makise.h"
 340              		.file 8 "/usr/arm-none-eabi/include/sys/_stdint.h"
 341              		.file 9 "Drivers/CMSIS/Include/core_cm4.h"
 342              		.file 10 "Drivers/CMSIS/Device/ST/STM32F4xx/Include/system_stm32f4xx.h"
 343              		.file 11 "Drivers/CMSIS/Device/ST/STM32F4xx/Include/stm32f401xe.h"
 344              		.file 12 "Drivers/STM32F4xx_HAL_Driver/Inc/stm32f4xx_hal_def.h"
 345              		.file 13 "Drivers/STM32F4xx_HAL_Driver/Inc/stm32f4xx_hal_dma.h"
 346              		.file 14 "Drivers/STM32F4xx_HAL_Driver/Inc/stm32f4xx_hal_spi.h"
 347              		.file 15 "Drivers/STM32F4xx_HAL_Driver/Inc/stm32f4xx_hal_tim.h"
 348              		.file 16 "Inc/spi.h"
 349              		.file 17 "Inc/tim.h"
 350              		.file 18 "MakiseGUI/MakiseGUI/ILI9340C/ili9340.h"
 351              		.file 19 "MakiseGUI/MakiseGUI/makise_text.h"
 352              		.file 20 "MakiseGUI/MakiseGUI/fonts/fonts.h"
 353              		.file 21 "/usr/arm-none-eabi/include/string.h"
ARM GAS  /tmp/cc8HcXuQ.s 			page 9


DEFINED SYMBOLS
                            *ABS*:0000000000000000 makise_text.c
     /tmp/cc8HcXuQ.s:18     .text._makise_draw_char:0000000000000000 $t
     /tmp/cc8HcXuQ.s:25     .text._makise_draw_char:0000000000000000 _makise_draw_char
     /tmp/cc8HcXuQ.s:156    .text.makise_d_char:0000000000000000 $t
     /tmp/cc8HcXuQ.s:164    .text.makise_d_char:0000000000000000 makise_d_char
     /tmp/cc8HcXuQ.s:226    .text.makise_d_string:0000000000000000 $t
     /tmp/cc8HcXuQ.s:234    .text.makise_d_string:0000000000000000 makise_d_string
                     .debug_frame:0000000000000010 $d

UNDEFINED SYMBOLS
makise_pset
strlen
