ARM GAS  /tmp/cczvO81Q.s 			page 1


   1              		.cpu cortex-m4
   2              		.eabi_attribute 27, 1
   3              		.eabi_attribute 28, 1
   4              		.eabi_attribute 23, 1
   5              		.eabi_attribute 24, 1
   6              		.eabi_attribute 25, 1
   7              		.eabi_attribute 26, 1
   8              		.eabi_attribute 30, 2
   9              		.eabi_attribute 34, 1
  10              		.eabi_attribute 18, 4
  11              		.file	"makise_primitives.c"
  12              		.text
  13              	.Ltext0:
  14              		.cfi_sections	.debug_frame
  15              		.section	.text.makise_d_clear,"ax",%progbits
  16              		.align	1
  17              		.p2align 2,,3
  18              		.global	makise_d_clear
  19              		.syntax unified
  20              		.thumb
  21              		.thumb_func
  22              		.fpu fpv4-sp-d16
  24              	makise_d_clear:
  25              	.LFB126:
  26              		.file 1 "MakiseGUI/MakiseGUI/makise_primitives.c"
   1:MakiseGUI/MakiseGUI/makise_primitives.c **** #include "makise_primitives.h"
   2:MakiseGUI/MakiseGUI/makise_primitives.c **** 
   3:MakiseGUI/MakiseGUI/makise_primitives.c **** #define MAX_POLY_CORNERS   200
   4:MakiseGUI/MakiseGUI/makise_primitives.c **** 
   5:MakiseGUI/MakiseGUI/makise_primitives.c **** 
   6:MakiseGUI/MakiseGUI/makise_primitives.c **** 
   7:MakiseGUI/MakiseGUI/makise_primitives.c **** 
   8:MakiseGUI/MakiseGUI/makise_primitives.c **** 
   9:MakiseGUI/MakiseGUI/makise_primitives.c **** //**************************************************************************************
  10:MakiseGUI/MakiseGUI/makise_primitives.c **** void makise_d_clear(MakiseBuffer* b, uint32_t c)
  11:MakiseGUI/MakiseGUI/makise_primitives.c **** {
  27              		.loc 1 11 0
  28              		.cfi_startproc
  29              		@ args = 0, pretend = 0, frame = 0
  30              		@ frame_needed = 0, uses_anonymous_args = 0
  31              		@ link register save eliminated.
  32              	.LVL0:
  33 0000 70B4     		push	{r4, r5, r6}
  34              	.LCFI0:
  35              		.cfi_def_cfa_offset 12
  36              		.cfi_offset 4, -12
  37              		.cfi_offset 5, -8
  38              		.cfi_offset 6, -4
  39              	.LBB4:
  12:MakiseGUI/MakiseGUI/makise_primitives.c ****     uint8_t k = 0;
  13:MakiseGUI/MakiseGUI/makise_primitives.c ****     for (int i = 0; i < (8/b->pixeldepth); i++)
  40              		.loc 1 13 0
  41 0002 0689     		ldrh	r6, [r0, #8]
  42 0004 0825     		movs	r5, #8
  43 0006 95FBF6F5 		sdiv	r5, r5, r6
  44 000a 9DB3     		cbz	r5, .L2
  45 000c 827A     		ldrb	r2, [r0, #10]	@ zero_extendqisi2
ARM GAS  /tmp/cczvO81Q.s 			page 2


  46 000e 012D     		cmp	r5, #1
  47 0010 02EA0102 		and	r2, r2, r1
  14:MakiseGUI/MakiseGUI/makise_primitives.c ****     {
  15:MakiseGUI/MakiseGUI/makise_primitives.c **** 	k |= (c & b->depthmask) << i*b->pixeldepth;
  48              		.loc 1 15 0
  49 0014 D3B2     		uxtb	r3, r2
  50              	.LVL1:
  13:MakiseGUI/MakiseGUI/makise_primitives.c ****     {
  51              		.loc 1 13 0
  52 0016 2CD0     		beq	.L3
  53              		.loc 1 15 0
  54 0018 02FA06F1 		lsl	r1, r2, r6
  55              	.LVL2:
  56 001c 0B43     		orrs	r3, r3, r1
  57              	.LVL3:
  13:MakiseGUI/MakiseGUI/makise_primitives.c ****     {
  58              		.loc 1 13 0
  59 001e 022D     		cmp	r5, #2
  60              		.loc 1 15 0
  61 0020 DBB2     		uxtb	r3, r3
  62              	.LVL4:
  13:MakiseGUI/MakiseGUI/makise_primitives.c ****     {
  63              		.loc 1 13 0
  64 0022 26D0     		beq	.L3
  65              		.loc 1 15 0
  66 0024 7400     		lsls	r4, r6, #1
  67 0026 02FA04F1 		lsl	r1, r2, r4
  68 002a 0B43     		orrs	r3, r3, r1
  69              	.LVL5:
  13:MakiseGUI/MakiseGUI/makise_primitives.c ****     {
  70              		.loc 1 13 0
  71 002c 032D     		cmp	r5, #3
  72              		.loc 1 15 0
  73 002e DBB2     		uxtb	r3, r3
  74              	.LVL6:
  13:MakiseGUI/MakiseGUI/makise_primitives.c ****     {
  75              		.loc 1 13 0
  76 0030 1FD0     		beq	.L3
  77              		.loc 1 15 0
  78 0032 3444     		add	r4, r4, r6
  79 0034 02FA04F1 		lsl	r1, r2, r4
  80 0038 0B43     		orrs	r3, r3, r1
  81              	.LVL7:
  13:MakiseGUI/MakiseGUI/makise_primitives.c ****     {
  82              		.loc 1 13 0
  83 003a 042D     		cmp	r5, #4
  84              		.loc 1 15 0
  85 003c DBB2     		uxtb	r3, r3
  86              	.LVL8:
  13:MakiseGUI/MakiseGUI/makise_primitives.c ****     {
  87              		.loc 1 13 0
  88 003e 18D0     		beq	.L3
  89              		.loc 1 15 0
  90 0040 3444     		add	r4, r4, r6
  91 0042 02FA04F1 		lsl	r1, r2, r4
  92 0046 0B43     		orrs	r3, r3, r1
  93              	.LVL9:
ARM GAS  /tmp/cczvO81Q.s 			page 3


  13:MakiseGUI/MakiseGUI/makise_primitives.c ****     {
  94              		.loc 1 13 0
  95 0048 052D     		cmp	r5, #5
  96              		.loc 1 15 0
  97 004a DBB2     		uxtb	r3, r3
  98              	.LVL10:
  13:MakiseGUI/MakiseGUI/makise_primitives.c ****     {
  99              		.loc 1 13 0
 100 004c 11D0     		beq	.L3
 101              		.loc 1 15 0
 102 004e 3444     		add	r4, r4, r6
 103 0050 02FA04F1 		lsl	r1, r2, r4
 104 0054 0B43     		orrs	r3, r3, r1
 105              	.LVL11:
  13:MakiseGUI/MakiseGUI/makise_primitives.c ****     {
 106              		.loc 1 13 0
 107 0056 062D     		cmp	r5, #6
 108              		.loc 1 15 0
 109 0058 DBB2     		uxtb	r3, r3
 110              	.LVL12:
  13:MakiseGUI/MakiseGUI/makise_primitives.c ****     {
 111              		.loc 1 13 0
 112 005a 0AD0     		beq	.L3
 113              		.loc 1 15 0
 114 005c 3444     		add	r4, r4, r6
 115 005e 02FA04F1 		lsl	r1, r2, r4
 116 0062 0B43     		orrs	r3, r3, r1
 117              	.LVL13:
  13:MakiseGUI/MakiseGUI/makise_primitives.c ****     {
 118              		.loc 1 13 0
 119 0064 082D     		cmp	r5, #8
 120              		.loc 1 15 0
 121 0066 DBB2     		uxtb	r3, r3
 122              	.LVL14:
  13:MakiseGUI/MakiseGUI/makise_primitives.c ****     {
 123              		.loc 1 13 0
 124 0068 03D1     		bne	.L3
 125              		.loc 1 15 0
 126 006a 3444     		add	r4, r4, r6
 127 006c A240     		lsls	r2, r2, r4
 128 006e 1343     		orrs	r3, r3, r2
 129              	.LVL15:
 130 0070 DBB2     		uxtb	r3, r3
 131              	.LVL16:
 132              	.L3:
 133 0072 1D46     		mov	r5, r3
 134              	.LVL17:
 135              	.L2:
 136              	.LBE4:
  16:MakiseGUI/MakiseGUI/makise_primitives.c ****     }
  17:MakiseGUI/MakiseGUI/makise_primitives.c ****     memset(b->buffer, k, b->size);
 137              		.loc 1 17 0
 138 0074 2946     		mov	r1, r5
 139 0076 0269     		ldr	r2, [r0, #16]
 140 0078 C068     		ldr	r0, [r0, #12]
 141              	.LVL18:
  18:MakiseGUI/MakiseGUI/makise_primitives.c **** }
ARM GAS  /tmp/cczvO81Q.s 			page 4


 142              		.loc 1 18 0
 143 007a 70BC     		pop	{r4, r5, r6}
 144              	.LCFI1:
 145              		.cfi_restore 6
 146              		.cfi_restore 5
 147              		.cfi_restore 4
 148              		.cfi_def_cfa_offset 0
  17:MakiseGUI/MakiseGUI/makise_primitives.c **** }
 149              		.loc 1 17 0
 150 007c FFF7FEBF 		b	memset
 151              	.LVL19:
 152              		.cfi_endproc
 153              	.LFE126:
 155              		.section	.text.makise_d_point,"ax",%progbits
 156              		.align	1
 157              		.p2align 2,,3
 158              		.global	makise_d_point
 159              		.syntax unified
 160              		.thumb
 161              		.thumb_func
 162              		.fpu fpv4-sp-d16
 164              	makise_d_point:
 165              	.LFB127:
  19:MakiseGUI/MakiseGUI/makise_primitives.c **** 
  20:MakiseGUI/MakiseGUI/makise_primitives.c **** void makise_d_point(MakiseBuffer* b, uint16_t x, uint16_t y, uint32_t c)
  21:MakiseGUI/MakiseGUI/makise_primitives.c **** {
 166              		.loc 1 21 0
 167              		.cfi_startproc
 168              		@ args = 0, pretend = 0, frame = 0
 169              		@ frame_needed = 0, uses_anonymous_args = 0
 170              		@ link register save eliminated.
 171              	.LVL20:
  22:MakiseGUI/MakiseGUI/makise_primitives.c ****     makise_pset(b, x, y, c);
 172              		.loc 1 22 0
 173 0000 FFF7FEBF 		b	makise_pset
 174              	.LVL21:
 175              		.cfi_endproc
 176              	.LFE127:
 178              		.section	.text.makise_d_circle,"ax",%progbits
 179              		.align	1
 180              		.p2align 2,,3
 181              		.global	makise_d_circle
 182              		.syntax unified
 183              		.thumb
 184              		.thumb_func
 185              		.fpu fpv4-sp-d16
 187              	makise_d_circle:
 188              	.LFB130:
  23:MakiseGUI/MakiseGUI/makise_primitives.c **** }
  24:MakiseGUI/MakiseGUI/makise_primitives.c **** void makise_d_rect(MakiseBuffer* b, int16_t x, int16_t y, uint16_t w,
  25:MakiseGUI/MakiseGUI/makise_primitives.c **** 		   uint16_t h, uint32_t c)
  26:MakiseGUI/MakiseGUI/makise_primitives.c **** {
  27:MakiseGUI/MakiseGUI/makise_primitives.c ****     if(x >= b->width || y >= b->height)
  28:MakiseGUI/MakiseGUI/makise_primitives.c **** 	return;
  29:MakiseGUI/MakiseGUI/makise_primitives.c ****     if(x < 0)
  30:MakiseGUI/MakiseGUI/makise_primitives.c ****     {
  31:MakiseGUI/MakiseGUI/makise_primitives.c **** 	if(-x > w)
ARM GAS  /tmp/cczvO81Q.s 			page 5


  32:MakiseGUI/MakiseGUI/makise_primitives.c **** 	    return;
  33:MakiseGUI/MakiseGUI/makise_primitives.c **** 	w = w + x;
  34:MakiseGUI/MakiseGUI/makise_primitives.c **** 	x = 0;
  35:MakiseGUI/MakiseGUI/makise_primitives.c ****     }
  36:MakiseGUI/MakiseGUI/makise_primitives.c ****     if(y < 0)
  37:MakiseGUI/MakiseGUI/makise_primitives.c ****     {
  38:MakiseGUI/MakiseGUI/makise_primitives.c **** 	if(-y > h)
  39:MakiseGUI/MakiseGUI/makise_primitives.c **** 	    return;
  40:MakiseGUI/MakiseGUI/makise_primitives.c **** 	h = h + y;
  41:MakiseGUI/MakiseGUI/makise_primitives.c **** 	y = 0;
  42:MakiseGUI/MakiseGUI/makise_primitives.c ****     }
  43:MakiseGUI/MakiseGUI/makise_primitives.c ****     if(x + w >= b->width)
  44:MakiseGUI/MakiseGUI/makise_primitives.c **** 	w = b->width - x - 1;
  45:MakiseGUI/MakiseGUI/makise_primitives.c ****     if(y + h >= b->height)
  46:MakiseGUI/MakiseGUI/makise_primitives.c **** 	h = b->height - y - 1;
  47:MakiseGUI/MakiseGUI/makise_primitives.c ****     
  48:MakiseGUI/MakiseGUI/makise_primitives.c ****     if(w == 0 || h == 0)
  49:MakiseGUI/MakiseGUI/makise_primitives.c **** 	return;
  50:MakiseGUI/MakiseGUI/makise_primitives.c **** 
  51:MakiseGUI/MakiseGUI/makise_primitives.c ****     uint32_t k, kb, j;
  52:MakiseGUI/MakiseGUI/makise_primitives.c **** 
  53:MakiseGUI/MakiseGUI/makise_primitives.c ****     uint8_t C = 0; //byte filled with colors for memset
  54:MakiseGUI/MakiseGUI/makise_primitives.c ****     for (int i = 0; i < (8/b->pixeldepth); i++)
  55:MakiseGUI/MakiseGUI/makise_primitives.c ****     {
  56:MakiseGUI/MakiseGUI/makise_primitives.c **** 	C |= (c & b->depthmask) << i*b->pixeldepth;
  57:MakiseGUI/MakiseGUI/makise_primitives.c ****     }
  58:MakiseGUI/MakiseGUI/makise_primitives.c **** 
  59:MakiseGUI/MakiseGUI/makise_primitives.c ****     w-=1;
  60:MakiseGUI/MakiseGUI/makise_primitives.c ****     h-=1;
  61:MakiseGUI/MakiseGUI/makise_primitives.c ****     
  62:MakiseGUI/MakiseGUI/makise_primitives.c ****     makise_d_line(b, x, y, x + w, y, c);
  63:MakiseGUI/MakiseGUI/makise_primitives.c ****     makise_d_line(b, x, y + h, x + w, y + h, c);
  64:MakiseGUI/MakiseGUI/makise_primitives.c ****     makise_d_line(b, x, y, x, y + h, c);
  65:MakiseGUI/MakiseGUI/makise_primitives.c ****     makise_d_line(b, x + w, y, x + w, y + h, c);
  66:MakiseGUI/MakiseGUI/makise_primitives.c ****     /*
  67:MakiseGUI/MakiseGUI/makise_primitives.c ****       if depth = 4bits
  68:MakiseGUI/MakiseGUI/makise_primitives.c ****       byte 1       byte 2
  69:MakiseGUI/MakiseGUI/makise_primitives.c ****       coordinates |1,0   0,0| |3,0   2,0|
  70:MakiseGUI/MakiseGUI/makise_primitives.c ****       binaryvalue |0000 0000| |0100 0101|
  71:MakiseGUI/MakiseGUI/makise_primitives.c ****     */
  72:MakiseGUI/MakiseGUI/makise_primitives.c **** }
  73:MakiseGUI/MakiseGUI/makise_primitives.c **** void makise_d_rect_filled(MakiseBuffer* b, int16_t x, int16_t y, uint16_t w,
  74:MakiseGUI/MakiseGUI/makise_primitives.c **** 			  uint16_t h, uint32_t c, uint32_t fill_c)
  75:MakiseGUI/MakiseGUI/makise_primitives.c **** {
  76:MakiseGUI/MakiseGUI/makise_primitives.c ****     if(x >= b->width || y >= b->height)
  77:MakiseGUI/MakiseGUI/makise_primitives.c **** 	return;
  78:MakiseGUI/MakiseGUI/makise_primitives.c ****     if(x < 0)
  79:MakiseGUI/MakiseGUI/makise_primitives.c ****     {
  80:MakiseGUI/MakiseGUI/makise_primitives.c **** 	if(-x > w)
  81:MakiseGUI/MakiseGUI/makise_primitives.c **** 	    return;
  82:MakiseGUI/MakiseGUI/makise_primitives.c **** 	w = w + x;
  83:MakiseGUI/MakiseGUI/makise_primitives.c **** 	x = 0;
  84:MakiseGUI/MakiseGUI/makise_primitives.c ****     }
  85:MakiseGUI/MakiseGUI/makise_primitives.c ****     if(y < 0)
  86:MakiseGUI/MakiseGUI/makise_primitives.c ****     {
  87:MakiseGUI/MakiseGUI/makise_primitives.c **** 	if(-y > h)
  88:MakiseGUI/MakiseGUI/makise_primitives.c **** 	    return;
ARM GAS  /tmp/cczvO81Q.s 			page 6


  89:MakiseGUI/MakiseGUI/makise_primitives.c **** 	h = h + y;
  90:MakiseGUI/MakiseGUI/makise_primitives.c **** 	y = 0;
  91:MakiseGUI/MakiseGUI/makise_primitives.c ****     }
  92:MakiseGUI/MakiseGUI/makise_primitives.c ****     if(x + w >= b->width)
  93:MakiseGUI/MakiseGUI/makise_primitives.c **** 	w = b->width - x - 1;
  94:MakiseGUI/MakiseGUI/makise_primitives.c ****     if(y + h >= b->height)
  95:MakiseGUI/MakiseGUI/makise_primitives.c **** 	h = b->height - y - 1;
  96:MakiseGUI/MakiseGUI/makise_primitives.c ****     
  97:MakiseGUI/MakiseGUI/makise_primitives.c ****     if(w == 0 || h == 0)
  98:MakiseGUI/MakiseGUI/makise_primitives.c **** 	return;
  99:MakiseGUI/MakiseGUI/makise_primitives.c **** 
 100:MakiseGUI/MakiseGUI/makise_primitives.c ****     uint32_t k, kb, j;
 101:MakiseGUI/MakiseGUI/makise_primitives.c **** 
 102:MakiseGUI/MakiseGUI/makise_primitives.c ****     uint8_t C = 0; //byte filled with colors for memset
 103:MakiseGUI/MakiseGUI/makise_primitives.c ****     for (int i = 0; i < (8/b->pixeldepth); i++)
 104:MakiseGUI/MakiseGUI/makise_primitives.c ****     {
 105:MakiseGUI/MakiseGUI/makise_primitives.c **** 	C |= (c & b->depthmask) << i*b->pixeldepth;
 106:MakiseGUI/MakiseGUI/makise_primitives.c ****     }
 107:MakiseGUI/MakiseGUI/makise_primitives.c **** 
 108:MakiseGUI/MakiseGUI/makise_primitives.c ****     h -= 1;
 109:MakiseGUI/MakiseGUI/makise_primitives.c ****     w -= 1;
 110:MakiseGUI/MakiseGUI/makise_primitives.c ****     
 111:MakiseGUI/MakiseGUI/makise_primitives.c ****     makise_d_line(b, x, y, x + w, y, c);
 112:MakiseGUI/MakiseGUI/makise_primitives.c ****     makise_d_line(b, x, y + h, x + w, y + h, c);
 113:MakiseGUI/MakiseGUI/makise_primitives.c ****     makise_d_line(b, x, y, x, y + h, c);
 114:MakiseGUI/MakiseGUI/makise_primitives.c ****     makise_d_line(b, x + w, y, x + w, y + h, c);
 115:MakiseGUI/MakiseGUI/makise_primitives.c ****     /*
 116:MakiseGUI/MakiseGUI/makise_primitives.c ****       if depth = 4bits
 117:MakiseGUI/MakiseGUI/makise_primitives.c ****       byte 1       byte 2
 118:MakiseGUI/MakiseGUI/makise_primitives.c ****       coordinates |1,0   0,0| |3,0   2,0|
 119:MakiseGUI/MakiseGUI/makise_primitives.c ****       binaryvalue |0000 0000| |0100 0101|
 120:MakiseGUI/MakiseGUI/makise_primitives.c ****     */
 121:MakiseGUI/MakiseGUI/makise_primitives.c ****     for (int i = y+1; i < h + y; i++) {
 122:MakiseGUI/MakiseGUI/makise_primitives.c **** 	makise_d_line(b, x + 1, i, x+w - 1, i, fill_c);
 123:MakiseGUI/MakiseGUI/makise_primitives.c ****     }    
 124:MakiseGUI/MakiseGUI/makise_primitives.c **** }
 125:MakiseGUI/MakiseGUI/makise_primitives.c **** void makise_d_circle(MakiseBuffer* b, uint16_t xc, uint16_t yc, uint16_t r, uint32_t c)
 126:MakiseGUI/MakiseGUI/makise_primitives.c **** {
 189              		.loc 1 126 0
 190              		.cfi_startproc
 191              		@ args = 4, pretend = 0, frame = 40
 192              		@ frame_needed = 0, uses_anonymous_args = 0
 193              	.LVL22:
 194 0000 2DE9F04F 		push	{r4, r5, r6, r7, r8, r9, r10, fp, lr}
 195              	.LCFI2:
 196              		.cfi_def_cfa_offset 36
 197              		.cfi_offset 4, -36
 198              		.cfi_offset 5, -32
 199              		.cfi_offset 6, -28
 200              		.cfi_offset 7, -24
 201              		.cfi_offset 8, -20
 202              		.cfi_offset 9, -16
 203              		.cfi_offset 10, -12
 204              		.cfi_offset 11, -8
 205              		.cfi_offset 14, -4
 206 0004 8BB0     		sub	sp, sp, #44
 207              	.LCFI3:
ARM GAS  /tmp/cczvO81Q.s 			page 7


 208              		.cfi_def_cfa_offset 80
 209              		.loc 1 126 0
 210 0006 1C46     		mov	r4, r3
 211 0008 149F     		ldr	r7, [sp, #80]
 127:MakiseGUI/MakiseGUI/makise_primitives.c ****     //middle point algorythm
 128:MakiseGUI/MakiseGUI/makise_primitives.c ****     int16_t f = 1 - r;
 129:MakiseGUI/MakiseGUI/makise_primitives.c ****     int16_t ddF_x = 1;
 130:MakiseGUI/MakiseGUI/makise_primitives.c ****     int16_t ddF_y = -2 * r;
 131:MakiseGUI/MakiseGUI/makise_primitives.c ****     int16_t x = 0;
 132:MakiseGUI/MakiseGUI/makise_primitives.c ****     int16_t y = r;
 133:MakiseGUI/MakiseGUI/makise_primitives.c **** 
 134:MakiseGUI/MakiseGUI/makise_primitives.c ****     makise_pset(b, xc, yc + r, c);
 212              		.loc 1 134 0
 213 000a 0292     		str	r2, [sp, #8]
 130:MakiseGUI/MakiseGUI/makise_primitives.c ****     int16_t x = 0;
 214              		.loc 1 130 0
 215 000c C3EBC336 		rsb	r6, r3, r3, lsl #15
 216              		.loc 1 134 0
 217 0010 A218     		adds	r2, r4, r2
 218              	.LVL23:
 130:MakiseGUI/MakiseGUI/makise_primitives.c ****     int16_t x = 0;
 219              		.loc 1 130 0
 220 0012 7600     		lsls	r6, r6, #1
 221              		.loc 1 134 0
 222 0014 92B2     		uxth	r2, r2
 223 0016 3B46     		mov	r3, r7
 224              	.LVL24:
 130:MakiseGUI/MakiseGUI/makise_primitives.c ****     int16_t x = 0;
 225              		.loc 1 130 0
 226 0018 36B2     		sxth	r6, r6
 126:MakiseGUI/MakiseGUI/makise_primitives.c ****     //middle point algorythm
 227              		.loc 1 126 0
 228 001a 8046     		mov	r8, r0
 130:MakiseGUI/MakiseGUI/makise_primitives.c ****     int16_t x = 0;
 229              		.loc 1 130 0
 230 001c 0596     		str	r6, [sp, #20]
 126:MakiseGUI/MakiseGUI/makise_primitives.c ****     //middle point algorythm
 231              		.loc 1 126 0
 232 001e 0391     		str	r1, [sp, #12]
 233 0020 0E46     		mov	r6, r1
 234              		.loc 1 134 0
 235 0022 FFF7FEFF 		bl	makise_pset
 236              	.LVL25:
 135:MakiseGUI/MakiseGUI/makise_primitives.c ****     makise_pset(b, xc, yc - r, c);
 237              		.loc 1 135 0
 238 0026 029A     		ldr	r2, [sp, #8]
 239 0028 121B     		subs	r2, r2, r4
 240 002a 92B2     		uxth	r2, r2
 241 002c 3B46     		mov	r3, r7
 242 002e 3146     		mov	r1, r6
 243 0030 4046     		mov	r0, r8
 244 0032 FFF7FEFF 		bl	makise_pset
 245              	.LVL26:
 136:MakiseGUI/MakiseGUI/makise_primitives.c ****     makise_pset(b, xc + r, yc, c);
 246              		.loc 1 136 0
 247 0036 DDF80890 		ldr	r9, [sp, #8]
 248 003a A119     		adds	r1, r4, r6
ARM GAS  /tmp/cczvO81Q.s 			page 8


 249 003c 89B2     		uxth	r1, r1
 250 003e 3B46     		mov	r3, r7
 251 0040 4A46     		mov	r2, r9
 252 0042 4046     		mov	r0, r8
 253 0044 FFF7FEFF 		bl	makise_pset
 254              	.LVL27:
 132:MakiseGUI/MakiseGUI/makise_primitives.c **** 
 255              		.loc 1 132 0
 256 0048 20B2     		sxth	r0, r4
 137:MakiseGUI/MakiseGUI/makise_primitives.c ****     makise_pset(b, xc - r, yc, c);
 257              		.loc 1 137 0
 258 004a 311B     		subs	r1, r6, r4
 132:MakiseGUI/MakiseGUI/makise_primitives.c **** 
 259              		.loc 1 132 0
 260 004c 0190     		str	r0, [sp, #4]
 128:MakiseGUI/MakiseGUI/makise_primitives.c ****     int16_t ddF_x = 1;
 261              		.loc 1 128 0
 262 004e C4F10105 		rsb	r5, r4, #1
 263              	.LVL28:
 264              		.loc 1 137 0
 265 0052 89B2     		uxth	r1, r1
 132:MakiseGUI/MakiseGUI/makise_primitives.c **** 
 266              		.loc 1 132 0
 267 0054 0446     		mov	r4, r0
 268              	.LVL29:
 269              		.loc 1 137 0
 270 0056 3B46     		mov	r3, r7
 271 0058 4A46     		mov	r2, r9
 272 005a 4046     		mov	r0, r8
 273 005c FFF7FEFF 		bl	makise_pset
 274              	.LVL30:
 138:MakiseGUI/MakiseGUI/makise_primitives.c **** 
 139:MakiseGUI/MakiseGUI/makise_primitives.c ****     while(x < y)
 275              		.loc 1 139 0
 276 0060 002C     		cmp	r4, #0
 277 0062 7FDD     		ble	.L28
 278 0064 0021     		movs	r1, #0
 279 0066 4A46     		mov	r2, r9
 280 0068 531C     		adds	r3, r2, #1
 281 006a 0491     		str	r1, [sp, #16]
 282 006c 711C     		adds	r1, r6, #1
 283 006e 0891     		str	r1, [sp, #32]
 284 0070 0993     		str	r3, [sp, #36]
 285 0072 711E     		subs	r1, r6, #1
 286 0074 09F1FF33 		add	r3, r9, #-1
 287 0078 2DB2     		sxth	r5, r5
 288 007a 0691     		str	r1, [sp, #24]
 289 007c 0793     		str	r3, [sp, #28]
 290              	.LVL31:
 291              	.L31:
 292 007e 049A     		ldr	r2, [sp, #16]
 293 0080 089B     		ldr	r3, [sp, #32]
 294 0082 94B2     		uxth	r4, r2
 295 0084 0132     		adds	r2, r2, #1
 296 0086 04EB030B 		add	fp, r4, r3
 297 008a 0492     		str	r2, [sp, #16]
 298              	.LVL32:
ARM GAS  /tmp/cczvO81Q.s 			page 9


 140:MakiseGUI/MakiseGUI/makise_primitives.c ****     {
 141:MakiseGUI/MakiseGUI/makise_primitives.c **** 	// ddF_x == 2 * x + 1;
 142:MakiseGUI/MakiseGUI/makise_primitives.c **** 	// ddF_y == -2 * y;
 143:MakiseGUI/MakiseGUI/makise_primitives.c **** 	// f == x*x + y*y - r*r + 2*x - y + 1;
 144:MakiseGUI/MakiseGUI/makise_primitives.c **** 	if(f >= 0)
 145:MakiseGUI/MakiseGUI/makise_primitives.c **** 	{
 146:MakiseGUI/MakiseGUI/makise_primitives.c **** 	    y--;
 147:MakiseGUI/MakiseGUI/makise_primitives.c **** 	    ddF_y += 2;
 299              		.loc 1 147 0
 300 008c 059A     		ldr	r2, [sp, #20]
 301 008e 1FFA8BFB 		uxth	fp, fp
 144:MakiseGUI/MakiseGUI/makise_primitives.c **** 	{
 302              		.loc 1 144 0
 303 0092 002D     		cmp	r5, #0
 148:MakiseGUI/MakiseGUI/makise_primitives.c **** 	    f += ddF_y;
 149:MakiseGUI/MakiseGUI/makise_primitives.c **** 	}
 150:MakiseGUI/MakiseGUI/makise_primitives.c **** 	x++;
 151:MakiseGUI/MakiseGUI/makise_primitives.c **** 	ddF_x += 2;
 152:MakiseGUI/MakiseGUI/makise_primitives.c **** 	f += ddF_x;
 153:MakiseGUI/MakiseGUI/makise_primitives.c **** 	makise_pset(b, xc + x, yc + y, c);
 304              		.loc 1 153 0
 305 0094 3B46     		mov	r3, r7
 306 0096 5946     		mov	r1, fp
 307 0098 4046     		mov	r0, r8
 147:MakiseGUI/MakiseGUI/makise_primitives.c **** 	    f += ddF_y;
 308              		.loc 1 147 0
 309 009a 02F10202 		add	r2, r2, #2
 144:MakiseGUI/MakiseGUI/makise_primitives.c **** 	{
 310              		.loc 1 144 0
 311 009e 08DB     		blt	.L30
 312              	.LVL33:
 146:MakiseGUI/MakiseGUI/makise_primitives.c **** 	    ddF_y += 2;
 313              		.loc 1 146 0
 314 00a0 019E     		ldr	r6, [sp, #4]
 147:MakiseGUI/MakiseGUI/makise_primitives.c **** 	    f += ddF_y;
 315              		.loc 1 147 0
 316 00a2 92B2     		uxth	r2, r2
 148:MakiseGUI/MakiseGUI/makise_primitives.c **** 	    f += ddF_y;
 317              		.loc 1 148 0
 318 00a4 1544     		add	r5, r5, r2
 319              	.LVL34:
 146:MakiseGUI/MakiseGUI/makise_primitives.c **** 	    ddF_y += 2;
 320              		.loc 1 146 0
 321 00a6 013E     		subs	r6, r6, #1
 147:MakiseGUI/MakiseGUI/makise_primitives.c **** 	    f += ddF_y;
 322              		.loc 1 147 0
 323 00a8 12B2     		sxth	r2, r2
 324 00aa 0592     		str	r2, [sp, #20]
 325              	.LVL35:
 146:MakiseGUI/MakiseGUI/makise_primitives.c **** 	    ddF_y += 2;
 326              		.loc 1 146 0
 327 00ac 32B2     		sxth	r2, r6
 148:MakiseGUI/MakiseGUI/makise_primitives.c **** 	    f += ddF_y;
 328              		.loc 1 148 0
 329 00ae 2DB2     		sxth	r5, r5
 146:MakiseGUI/MakiseGUI/makise_primitives.c **** 	    ddF_y += 2;
 330              		.loc 1 146 0
ARM GAS  /tmp/cczvO81Q.s 			page 10


 331 00b0 0192     		str	r2, [sp, #4]
 332              	.LVL36:
 333              	.L30:
 334              		.loc 1 153 0
 335 00b2 BDF80460 		ldrh	r6, [sp, #4]
 336 00b6 029A     		ldr	r2, [sp, #8]
 337 00b8 02EB060A 		add	r10, r2, r6
 338 00bc 1FFA8AFA 		uxth	r10, r10
 339 00c0 5246     		mov	r2, r10
 340 00c2 FFF7FEFF 		bl	makise_pset
 341              	.LVL37:
 342 00c6 069B     		ldr	r3, [sp, #24]
 343 00c8 A3EB0409 		sub	r9, r3, r4
 344 00cc 1FFA89F9 		uxth	r9, r9
 154:MakiseGUI/MakiseGUI/makise_primitives.c **** 	makise_pset(b, xc - x, yc + y, c);
 345              		.loc 1 154 0
 346 00d0 5246     		mov	r2, r10
 347 00d2 4946     		mov	r1, r9
 348 00d4 3B46     		mov	r3, r7
 349 00d6 4046     		mov	r0, r8
 350 00d8 FFF7FEFF 		bl	makise_pset
 351              	.LVL38:
 155:MakiseGUI/MakiseGUI/makise_primitives.c **** 	makise_pset(b, xc + x, yc - y, c);
 352              		.loc 1 155 0
 353 00dc 029A     		ldr	r2, [sp, #8]
 354 00de A2EB060A 		sub	r10, r2, r6
 355 00e2 1FFA8AFA 		uxth	r10, r10
 356 00e6 5246     		mov	r2, r10
 357 00e8 5946     		mov	r1, fp
 358 00ea 3B46     		mov	r3, r7
 359 00ec 4046     		mov	r0, r8
 360 00ee FFF7FEFF 		bl	makise_pset
 361              	.LVL39:
 156:MakiseGUI/MakiseGUI/makise_primitives.c **** 	makise_pset(b, xc - x, yc - y, c);
 362              		.loc 1 156 0
 363 00f2 5246     		mov	r2, r10
 364 00f4 4946     		mov	r1, r9
 365 00f6 3B46     		mov	r3, r7
 366 00f8 4046     		mov	r0, r8
 367 00fa FFF7FEFF 		bl	makise_pset
 368              	.LVL40:
 157:MakiseGUI/MakiseGUI/makise_primitives.c **** 	makise_pset(b, xc + y, yc + x, c);
 369              		.loc 1 157 0
 370 00fe 039B     		ldr	r3, [sp, #12]
 371 0100 099A     		ldr	r2, [sp, #36]
 372 0102 03EB0609 		add	r9, r3, r6
 373 0106 04EB020A 		add	r10, r4, r2
 374 010a 1FFA8AFA 		uxth	r10, r10
 375 010e 1FFA89F9 		uxth	r9, r9
 376 0112 5246     		mov	r2, r10
 377 0114 4946     		mov	r1, r9
 378 0116 3B46     		mov	r3, r7
 379 0118 4046     		mov	r0, r8
 380 011a FFF7FEFF 		bl	makise_pset
 381              	.LVL41:
 158:MakiseGUI/MakiseGUI/makise_primitives.c **** 	makise_pset(b, xc - y, yc + x, c);
 382              		.loc 1 158 0
ARM GAS  /tmp/cczvO81Q.s 			page 11


 383 011e 039B     		ldr	r3, [sp, #12]
 384 0120 9E1B     		subs	r6, r3, r6
 385 0122 B6B2     		uxth	r6, r6
 386 0124 5246     		mov	r2, r10
 387 0126 3146     		mov	r1, r6
 388 0128 3B46     		mov	r3, r7
 389 012a 4046     		mov	r0, r8
 390 012c FFF7FEFF 		bl	makise_pset
 391              	.LVL42:
 392 0130 079B     		ldr	r3, [sp, #28]
 393 0132 A3EB040A 		sub	r10, r3, r4
 394 0136 1FFA8AFA 		uxth	r10, r10
 159:MakiseGUI/MakiseGUI/makise_primitives.c **** 	makise_pset(b, xc + y, yc - x, c);
 395              		.loc 1 159 0
 396 013a 4946     		mov	r1, r9
 397 013c 5246     		mov	r2, r10
 398 013e 3B46     		mov	r3, r7
 399 0140 4046     		mov	r0, r8
 400 0142 FFF7FEFF 		bl	makise_pset
 401              	.LVL43:
 160:MakiseGUI/MakiseGUI/makise_primitives.c **** 	makise_pset(b, xc - y, yc - x, c);
 402              		.loc 1 160 0
 403 0146 3B46     		mov	r3, r7
 404 0148 5246     		mov	r2, r10
 405 014a 3146     		mov	r1, r6
 406 014c 4046     		mov	r0, r8
 152:MakiseGUI/MakiseGUI/makise_primitives.c **** 	makise_pset(b, xc + x, yc + y, c);
 407              		.loc 1 152 0
 408 014e 05EB4405 		add	r5, r5, r4, lsl #1
 409              	.LVL44:
 410              		.loc 1 160 0
 411 0152 FFF7FEFF 		bl	makise_pset
 412              	.LVL45:
 139:MakiseGUI/MakiseGUI/makise_primitives.c ****     {
 413              		.loc 1 139 0
 414 0156 0134     		adds	r4, r4, #1
 415              	.LVL46:
 416 0158 019B     		ldr	r3, [sp, #4]
 417 015a 24B2     		sxth	r4, r4
 152:MakiseGUI/MakiseGUI/makise_primitives.c **** 	makise_pset(b, xc + x, yc + y, c);
 418              		.loc 1 152 0
 419 015c 0335     		adds	r5, r5, #3
 139:MakiseGUI/MakiseGUI/makise_primitives.c ****     {
 420              		.loc 1 139 0
 421 015e 9C42     		cmp	r4, r3
 152:MakiseGUI/MakiseGUI/makise_primitives.c **** 	makise_pset(b, xc + x, yc + y, c);
 422              		.loc 1 152 0
 423 0160 2DB2     		sxth	r5, r5
 424              	.LVL47:
 139:MakiseGUI/MakiseGUI/makise_primitives.c ****     {
 425              		.loc 1 139 0
 426 0162 8CDB     		blt	.L31
 427              	.LVL48:
 428              	.L28:
 161:MakiseGUI/MakiseGUI/makise_primitives.c ****     }
 162:MakiseGUI/MakiseGUI/makise_primitives.c ****     
 163:MakiseGUI/MakiseGUI/makise_primitives.c **** }
ARM GAS  /tmp/cczvO81Q.s 			page 12


 429              		.loc 1 163 0
 430 0164 0BB0     		add	sp, sp, #44
 431              	.LCFI4:
 432              		.cfi_def_cfa_offset 36
 433              		@ sp needed
 434 0166 BDE8F08F 		pop	{r4, r5, r6, r7, r8, r9, r10, fp, pc}
 435              		.cfi_endproc
 436              	.LFE130:
 438 016a 00BF     		.section	.text.makise_d_line,"ax",%progbits
 439              		.align	1
 440              		.p2align 2,,3
 441              		.global	makise_d_line
 442              		.syntax unified
 443              		.thumb
 444              		.thumb_func
 445              		.fpu fpv4-sp-d16
 447              	makise_d_line:
 448              	.LFB132:
 164:MakiseGUI/MakiseGUI/makise_primitives.c **** void makise_d_circle_filled(MakiseBuffer* b, uint16_t xc, uint16_t yc, uint16_t r, uint32_t c, uint
 165:MakiseGUI/MakiseGUI/makise_primitives.c **** {
 166:MakiseGUI/MakiseGUI/makise_primitives.c ****     //middle point algorythm
 167:MakiseGUI/MakiseGUI/makise_primitives.c ****     int16_t f = 1 - r;
 168:MakiseGUI/MakiseGUI/makise_primitives.c ****     int16_t ddF_x = 1;
 169:MakiseGUI/MakiseGUI/makise_primitives.c ****     int16_t ddF_y = -2 * r;
 170:MakiseGUI/MakiseGUI/makise_primitives.c ****     int16_t x = 0;
 171:MakiseGUI/MakiseGUI/makise_primitives.c ****     int16_t y = r;
 172:MakiseGUI/MakiseGUI/makise_primitives.c ****     int16_t dd;
 173:MakiseGUI/MakiseGUI/makise_primitives.c ****     makise_d_line(b, xc - r, yc, xc + r, yc, fill_c);
 174:MakiseGUI/MakiseGUI/makise_primitives.c ****     makise_pset(b, xc, yc + r, c);
 175:MakiseGUI/MakiseGUI/makise_primitives.c ****     makise_pset(b, xc, yc - r, c);
 176:MakiseGUI/MakiseGUI/makise_primitives.c ****     makise_pset(b, xc + r, yc, c);
 177:MakiseGUI/MakiseGUI/makise_primitives.c ****     makise_pset(b, xc - r, yc, c);
 178:MakiseGUI/MakiseGUI/makise_primitives.c **** 
 179:MakiseGUI/MakiseGUI/makise_primitives.c ****     while(x < y)
 180:MakiseGUI/MakiseGUI/makise_primitives.c ****     {
 181:MakiseGUI/MakiseGUI/makise_primitives.c **** 	// ddF_x == 2 * x + 1;
 182:MakiseGUI/MakiseGUI/makise_primitives.c **** 	// ddF_y == -2 * y;
 183:MakiseGUI/MakiseGUI/makise_primitives.c **** 	// f == x*x + y*y - r*r + 2*x - y + 1;
 184:MakiseGUI/MakiseGUI/makise_primitives.c **** 	if(f >= 0)
 185:MakiseGUI/MakiseGUI/makise_primitives.c **** 	{
 186:MakiseGUI/MakiseGUI/makise_primitives.c **** 	    y--;
 187:MakiseGUI/MakiseGUI/makise_primitives.c **** 	    ddF_y += 2;
 188:MakiseGUI/MakiseGUI/makise_primitives.c **** 	    f += ddF_y;
 189:MakiseGUI/MakiseGUI/makise_primitives.c **** 	}
 190:MakiseGUI/MakiseGUI/makise_primitives.c **** 	x++;
 191:MakiseGUI/MakiseGUI/makise_primitives.c **** 	ddF_x += 2;
 192:MakiseGUI/MakiseGUI/makise_primitives.c **** 	f += ddF_x;
 193:MakiseGUI/MakiseGUI/makise_primitives.c **** 
 194:MakiseGUI/MakiseGUI/makise_primitives.c **** 	if(y != r)
 195:MakiseGUI/MakiseGUI/makise_primitives.c **** 	{
 196:MakiseGUI/MakiseGUI/makise_primitives.c **** 	    makise_d_line(b, xc - x + 1, yc + y, xc + x - 1, yc + y, fill_c);
 197:MakiseGUI/MakiseGUI/makise_primitives.c **** 	    makise_d_line(b, xc - x + 1, yc - y, xc + x - 1, yc - y, fill_c);
 198:MakiseGUI/MakiseGUI/makise_primitives.c **** 	}
 199:MakiseGUI/MakiseGUI/makise_primitives.c **** 	if(x != r)
 200:MakiseGUI/MakiseGUI/makise_primitives.c **** 	{
 201:MakiseGUI/MakiseGUI/makise_primitives.c **** 	    makise_d_line(b, xc - y + 1, yc + x, xc + y - 1, yc + x, fill_c);
 202:MakiseGUI/MakiseGUI/makise_primitives.c **** 	    makise_d_line(b, xc - y + 1, yc - x, xc + y - 1, yc - x, fill_c);
ARM GAS  /tmp/cczvO81Q.s 			page 13


 203:MakiseGUI/MakiseGUI/makise_primitives.c **** 	}
 204:MakiseGUI/MakiseGUI/makise_primitives.c **** 	makise_pset(b, xc + x, yc + y, c);
 205:MakiseGUI/MakiseGUI/makise_primitives.c **** 	makise_pset(b, xc - x, yc + y, c);
 206:MakiseGUI/MakiseGUI/makise_primitives.c **** 	makise_pset(b, xc + x, yc - y, c);
 207:MakiseGUI/MakiseGUI/makise_primitives.c **** 	makise_pset(b, xc - x, yc - y, c);
 208:MakiseGUI/MakiseGUI/makise_primitives.c **** 	makise_pset(b, xc + y, yc + x, c);
 209:MakiseGUI/MakiseGUI/makise_primitives.c **** 	makise_pset(b, xc - y, yc + x, c);
 210:MakiseGUI/MakiseGUI/makise_primitives.c **** 	makise_pset(b, xc + y, yc - x, c);
 211:MakiseGUI/MakiseGUI/makise_primitives.c **** 	makise_pset(b, xc - y, yc - x, c);
 212:MakiseGUI/MakiseGUI/makise_primitives.c ****     }
 213:MakiseGUI/MakiseGUI/makise_primitives.c ****     
 214:MakiseGUI/MakiseGUI/makise_primitives.c **** }
 215:MakiseGUI/MakiseGUI/makise_primitives.c **** void makise_d_line(MakiseBuffer* b, int16_t x0, int16_t y0,
 216:MakiseGUI/MakiseGUI/makise_primitives.c **** 		   int16_t x1, int16_t y1, uint32_t c)
 217:MakiseGUI/MakiseGUI/makise_primitives.c **** {
 449              		.loc 1 217 0
 450              		.cfi_startproc
 451              		@ args = 8, pretend = 0, frame = 24
 452              		@ frame_needed = 0, uses_anonymous_args = 0
 453              	.LVL49:
 454 0000 2DE9F04F 		push	{r4, r5, r6, r7, r8, r9, r10, fp, lr}
 455              	.LCFI5:
 456              		.cfi_def_cfa_offset 36
 457              		.cfi_offset 4, -36
 458              		.cfi_offset 5, -32
 459              		.cfi_offset 6, -28
 460              		.cfi_offset 7, -24
 461              		.cfi_offset 8, -20
 462              		.cfi_offset 9, -16
 463              		.cfi_offset 10, -12
 464              		.cfi_offset 11, -8
 465              		.cfi_offset 14, -4
 466 0004 87B0     		sub	sp, sp, #28
 467              	.LCFI6:
 468              		.cfi_def_cfa_offset 64
 218:MakiseGUI/MakiseGUI/makise_primitives.c ****     if(x1 < 0 && x0 < 0)
 469              		.loc 1 218 0
 470 0006 002B     		cmp	r3, #0
 471              	.LVL50:
 217:MakiseGUI/MakiseGUI/makise_primitives.c ****     if(x1 < 0 && x0 < 0)
 472              		.loc 1 217 0
 473 0008 BDF94070 		ldrsh	r7, [sp, #64]
 474 000c DDF844B0 		ldr	fp, [sp, #68]
 475              		.loc 1 218 0
 476 0010 C0F2DB80 		blt	.L72
 477              	.L36:
 219:MakiseGUI/MakiseGUI/makise_primitives.c **** 	return;
 220:MakiseGUI/MakiseGUI/makise_primitives.c ****     if(x1 >= b->width && x0 >= b->width)
 478              		.loc 1 220 0
 479 0014 B0F806E0 		ldrh	lr, [r0, #6]
 480 0018 7345     		cmp	r3, lr
 481 001a 80F28D80 		bge	.L73
 221:MakiseGUI/MakiseGUI/makise_primitives.c **** 	return;
 222:MakiseGUI/MakiseGUI/makise_primitives.c ****     if(y1 < 0 && y0 < 0)
 482              		.loc 1 222 0
 483 001e 002F     		cmp	r7, #0
 484 0020 C0F28F80 		blt	.L74
ARM GAS  /tmp/cczvO81Q.s 			page 14


 485              	.L39:
 223:MakiseGUI/MakiseGUI/makise_primitives.c **** 	return;
 224:MakiseGUI/MakiseGUI/makise_primitives.c ****     if(y1 >= b->height && y0 >= b->height)
 486              		.loc 1 224 0
 487 0024 8688     		ldrh	r6, [r0, #4]
 488 0026 B742     		cmp	r7, r6
 489 0028 02DB     		blt	.L40
 490              		.loc 1 224 0 is_stmt 0 discriminator 1
 491 002a 9642     		cmp	r6, r2
 492 002c 40F38180 		ble	.L35
 493              	.L40:
 494              	.LVL51:
 225:MakiseGUI/MakiseGUI/makise_primitives.c **** 	return;
 226:MakiseGUI/MakiseGUI/makise_primitives.c ****     x1 = x1 < 0 ? 0 : x1;
 227:MakiseGUI/MakiseGUI/makise_primitives.c ****     y1 = y1 < 0 ? 0 : y1;
 228:MakiseGUI/MakiseGUI/makise_primitives.c ****     x0 = x0 < 0 ? 0 : x0;
 229:MakiseGUI/MakiseGUI/makise_primitives.c ****     y0 = y0 < 0 ? 0 : y0;
 230:MakiseGUI/MakiseGUI/makise_primitives.c ****     
 231:MakiseGUI/MakiseGUI/makise_primitives.c ****     x0 =  x0 < b->width-1 ? x0 : b->width - 1;
 232:MakiseGUI/MakiseGUI/makise_primitives.c ****     x1 =  x1 < b->width-1 ? x1 : b->width - 1;
 233:MakiseGUI/MakiseGUI/makise_primitives.c ****     y0 =  y0 < b->height-1 ? y0 : b->height - 1;
 495              		.loc 1 233 0 is_stmt 1
 496 0030 22EAE27A 		bic	r10, r2, r2, asr #31
 497 0034 8146     		mov	r9, r0
 498 0036 701E     		subs	r0, r6, #1
 499              	.LVL52:
 500 0038 8245     		cmp	r10, r0
 234:MakiseGUI/MakiseGUI/makise_primitives.c ****     y1 =  y1 < b->height-1 ? y1 : b->height - 1;
 501              		.loc 1 234 0
 502 003a 27EAE776 		bic	r6, r7, r7, asr #31
 233:MakiseGUI/MakiseGUI/makise_primitives.c ****     y1 =  y1 < b->height-1 ? y1 : b->height - 1;
 503              		.loc 1 233 0
 504 003e A8BF     		it	ge
 505 0040 8246     		movge	r10, r0
 506              		.loc 1 234 0
 507 0042 B042     		cmp	r0, r6
 508 0044 A8BF     		it	ge
 509 0046 3046     		movge	r0, r6
 235:MakiseGUI/MakiseGUI/makise_primitives.c ****     
 236:MakiseGUI/MakiseGUI/makise_primitives.c ****     int16_t dy = 0;
 237:MakiseGUI/MakiseGUI/makise_primitives.c ****     
 238:MakiseGUI/MakiseGUI/makise_primitives.c ****     dy = abs(y0 - y1);				/* The difference between the y's */
 510              		.loc 1 238 0
 511 0048 AAEB0006 		sub	r6, r10, r0
 512 004c 002E     		cmp	r6, #0
 232:MakiseGUI/MakiseGUI/makise_primitives.c ****     y0 =  y0 < b->height-1 ? y0 : b->height - 1;
 513              		.loc 1 232 0
 514 004e 23EAE375 		bic	r5, r3, r3, asr #31
 231:MakiseGUI/MakiseGUI/makise_primitives.c ****     x1 =  x1 < b->width-1 ? x1 : b->width - 1;
 515              		.loc 1 231 0
 516 0052 21EAE174 		bic	r4, r1, r1, asr #31
 517 0056 0EF1FF33 		add	r3, lr, #-1
 518              	.LVL53:
 519              		.loc 1 238 0
 520 005a B8BF     		it	lt
 521 005c 7642     		rsblt	r6, r6, #0
 231:MakiseGUI/MakiseGUI/makise_primitives.c ****     x1 =  x1 < b->width-1 ? x1 : b->width - 1;
ARM GAS  /tmp/cczvO81Q.s 			page 15


 522              		.loc 1 231 0
 523 005e 9C42     		cmp	r4, r3
 524 0060 A8BF     		it	ge
 525 0062 1C46     		movge	r4, r3
 526              	.LVL54:
 527              		.loc 1 238 0
 528 0064 36B2     		sxth	r6, r6
 232:MakiseGUI/MakiseGUI/makise_primitives.c ****     y0 =  y0 < b->height-1 ? y0 : b->height - 1;
 529              		.loc 1 232 0
 530 0066 9D42     		cmp	r5, r3
 531 0068 A8BF     		it	ge
 532 006a 1D46     		movge	r5, r3
 533              	.LVL55:
 239:MakiseGUI/MakiseGUI/makise_primitives.c ****     
 240:MakiseGUI/MakiseGUI/makise_primitives.c ****     if(dy == 0) //if line is horizontal we can memset it
 534              		.loc 1 240 0
 535 006c 002E     		cmp	r6, #0
 536 006e 6CD1     		bne	.L41
 537              	.LVL56:
 538              	.LBB7:
 539              	.LBB8:
 241:MakiseGUI/MakiseGUI/makise_primitives.c ****     {
 242:MakiseGUI/MakiseGUI/makise_primitives.c **** 	uint32_t C = 0; //byte filled with colors for memset
 243:MakiseGUI/MakiseGUI/makise_primitives.c **** 	uint32_t kb, j;
 244:MakiseGUI/MakiseGUI/makise_primitives.c **** 	    
 245:MakiseGUI/MakiseGUI/makise_primitives.c **** 	for (int i = 0; i < (32/b->pixeldepth); i++)
 540              		.loc 1 245 0 discriminator 1
 541 0070 B9F80810 		ldrh	r1, [r9, #8]
 542 0074 2023     		movs	r3, #32
 543 0076 93FBF1F3 		sdiv	r3, r3, r1
 544 007a 002B     		cmp	r3, #0
 545 007c 00F0B580 		beq	.L60
 546 0080 99F80A80 		ldrb	r8, [r9, #10]	@ zero_extendqisi2
 547              		.loc 1 245 0 is_stmt 0
 548 0084 3246     		mov	r2, r6
 549 0086 3746     		mov	r7, r6
 550 0088 08EA0B08 		and	r8, r8, fp
 551              	.LVL57:
 552              	.L43:
 553              		.loc 1 245 0 discriminator 3
 554 008c 0132     		adds	r2, r2, #1
 555              	.LVL58:
 246:MakiseGUI/MakiseGUI/makise_primitives.c **** 	{
 247:MakiseGUI/MakiseGUI/makise_primitives.c **** 	    C |= (c & b->depthmask) << i*b->pixeldepth; 
 556              		.loc 1 247 0 is_stmt 1 discriminator 3
 557 008e 08FA06FC 		lsl	ip, r8, r6
 245:MakiseGUI/MakiseGUI/makise_primitives.c **** 	{
 558              		.loc 1 245 0 discriminator 3
 559 0092 9A42     		cmp	r2, r3
 560              		.loc 1 247 0 discriminator 3
 561 0094 47EA0C07 		orr	r7, r7, ip
 562              	.LVL59:
 563 0098 0E44     		add	r6, r6, r1
 245:MakiseGUI/MakiseGUI/makise_primitives.c **** 	{
 564              		.loc 1 245 0 discriminator 3
 565 009a F7D1     		bne	.L43
 566              	.LVL60:
ARM GAS  /tmp/cczvO81Q.s 			page 16


 567              	.L42:
 568              	.LBE8:
 248:MakiseGUI/MakiseGUI/makise_primitives.c **** 	}
 249:MakiseGUI/MakiseGUI/makise_primitives.c **** 
 250:MakiseGUI/MakiseGUI/makise_primitives.c **** 	j = x0;
 251:MakiseGUI/MakiseGUI/makise_primitives.c **** 	while ((j % (32 / b->pixeldepth)) && j <= x1) { //coordinate position in the array must in the beg
 569              		.loc 1 251 0
 570 009c B4FBF3F2 		udiv	r2, r4, r3
 571 00a0 03FB1242 		mls	r2, r3, r2, r4
 572 00a4 D2B1     		cbz	r2, .L47
 573 00a6 AC42     		cmp	r4, r5
 574 00a8 35D8     		bhi	.L49
 575 00aa 86B2     		uxth	r6, r0
 576 00ac 4FF02008 		mov	r8, #32
 577 00b0 01E0     		b	.L48
 578              	.LVL61:
 579              	.L46:
 580              		.loc 1 251 0 is_stmt 0 discriminator 1
 581 00b2 AC42     		cmp	r4, r5
 582 00b4 2FD8     		bhi	.L49
 583              	.L48:
 252:MakiseGUI/MakiseGUI/makise_primitives.c **** 	    makise_pset(b, j, y1, c);
 584              		.loc 1 252 0 is_stmt 1
 585 00b6 A1B2     		uxth	r1, r4
 586 00b8 5B46     		mov	r3, fp
 587 00ba 3246     		mov	r2, r6
 253:MakiseGUI/MakiseGUI/makise_primitives.c **** 	    j++;
 588              		.loc 1 253 0
 589 00bc 0134     		adds	r4, r4, #1
 252:MakiseGUI/MakiseGUI/makise_primitives.c **** 	    makise_pset(b, j, y1, c);
 590              		.loc 1 252 0
 591 00be 4846     		mov	r0, r9
 592 00c0 FFF7FEFF 		bl	makise_pset
 593              	.LVL62:
 251:MakiseGUI/MakiseGUI/makise_primitives.c **** 	    makise_pset(b, j, y1, c);
 594              		.loc 1 251 0
 595 00c4 B9F80810 		ldrh	r1, [r9, #8]
 596 00c8 98FBF1F3 		sdiv	r3, r8, r1
 597 00cc B4FBF3F2 		udiv	r2, r4, r3
 598 00d0 03FB1242 		mls	r2, r3, r2, r4
 599 00d4 002A     		cmp	r2, #0
 600 00d6 ECD1     		bne	.L46
 601 00d8 B9F806E0 		ldrh	lr, [r9, #6]
 602              	.LVL63:
 603              	.L47:
 254:MakiseGUI/MakiseGUI/makise_primitives.c **** 	}
 255:MakiseGUI/MakiseGUI/makise_primitives.c **** 
 256:MakiseGUI/MakiseGUI/makise_primitives.c **** 	
 257:MakiseGUI/MakiseGUI/makise_primitives.c **** 	kb = (y0*(b->width) + j) * (b)->pixeldepth/32;
 604              		.loc 1 257 0
 605 00dc 0EFB0A4E 		mla	lr, lr, r10, r4
 606 00e0 01FB0EF1 		mul	r1, r1, lr
 258:MakiseGUI/MakiseGUI/makise_primitives.c **** 	while(j <= x1 && x1 - j >= 32/b->pixeldepth)
 607              		.loc 1 258 0
 608 00e4 AC42     		cmp	r4, r5
 257:MakiseGUI/MakiseGUI/makise_primitives.c **** 	while(j <= x1 && x1 - j >= 32/b->pixeldepth)
 609              		.loc 1 257 0
ARM GAS  /tmp/cczvO81Q.s 			page 17


 610 00e6 4FEA5111 		lsr	r1, r1, #5
 611              	.LVL64:
 612              		.loc 1 258 0
 613 00ea 14D8     		bhi	.L49
 614 00ec 2A1B     		subs	r2, r5, r4
 615 00ee 9A42     		cmp	r2, r3
 616 00f0 11D3     		bcc	.L49
 617 00f2 D9F80C00 		ldr	r0, [r9, #12]
 618 00f6 1A19     		adds	r2, r3, r4
 619 00f8 AE1A     		subs	r6, r5, r2
 620 00fa 00EB8101 		add	r1, r0, r1, lsl #2
 621              	.LVL65:
 622 00fe 03E0     		b	.L50
 623              	.LVL66:
 624              	.L75:
 625              		.loc 1 258 0 is_stmt 0 discriminator 1
 626 0100 B342     		cmp	r3, r6
 627 0102 08D8     		bhi	.L49
 628 0104 0646     		mov	r6, r0
 629 0106 1A44     		add	r2, r2, r3
 630              	.LVL67:
 631              	.L50:
 632              		.loc 1 258 0
 633 0108 AA42     		cmp	r2, r5
 259:MakiseGUI/MakiseGUI/makise_primitives.c **** 	{
 260:MakiseGUI/MakiseGUI/makise_primitives.c **** 	    b->buffer[kb] = C;
 634              		.loc 1 260 0 is_stmt 1
 635 010a 41F8047B 		str	r7, [r1], #4
 636              	.LVL68:
 261:MakiseGUI/MakiseGUI/makise_primitives.c **** 	    kb += 1;
 262:MakiseGUI/MakiseGUI/makise_primitives.c **** 	    j += 32/b->pixeldepth;
 637              		.loc 1 262 0
 638 010e 1446     		mov	r4, r2
 639 0110 A6EB0300 		sub	r0, r6, r3
 258:MakiseGUI/MakiseGUI/makise_primitives.c **** 	{
 640              		.loc 1 258 0
 641 0114 F4D9     		bls	.L75
 642              	.LVL69:
 643              	.L49:
 263:MakiseGUI/MakiseGUI/makise_primitives.c **** 	}
 264:MakiseGUI/MakiseGUI/makise_primitives.c **** 	j-=1;
 644              		.loc 1 264 0
 645 0116 013C     		subs	r4, r4, #1
 646              	.LVL70:
 265:MakiseGUI/MakiseGUI/makise_primitives.c **** 	while (j <= x1) {
 647              		.loc 1 265 0
 648 0118 AC42     		cmp	r4, r5
 649 011a 0AD8     		bhi	.L35
 650 011c 1FFA8AFA 		uxth	r10, r10
 651              	.L51:
 266:MakiseGUI/MakiseGUI/makise_primitives.c **** 	    makise_pset(b, j, y0, c);
 652              		.loc 1 266 0
 653 0120 A1B2     		uxth	r1, r4
 654 0122 5B46     		mov	r3, fp
 655 0124 5246     		mov	r2, r10
 656 0126 4846     		mov	r0, r9
 267:MakiseGUI/MakiseGUI/makise_primitives.c **** 	    j++;
ARM GAS  /tmp/cczvO81Q.s 			page 18


 657              		.loc 1 267 0
 658 0128 0134     		adds	r4, r4, #1
 659              	.LVL71:
 266:MakiseGUI/MakiseGUI/makise_primitives.c **** 	    makise_pset(b, j, y0, c);
 660              		.loc 1 266 0
 661 012a FFF7FEFF 		bl	makise_pset
 662              	.LVL72:
 265:MakiseGUI/MakiseGUI/makise_primitives.c **** 	while (j <= x1) {
 663              		.loc 1 265 0
 664 012e AC42     		cmp	r4, r5
 665 0130 F6D9     		bls	.L51
 666              	.LVL73:
 667              	.L35:
 668              	.LBE7:
 268:MakiseGUI/MakiseGUI/makise_primitives.c **** 	}
 269:MakiseGUI/MakiseGUI/makise_primitives.c **** 	return;
 270:MakiseGUI/MakiseGUI/makise_primitives.c ****     }
 271:MakiseGUI/MakiseGUI/makise_primitives.c **** 
 272:MakiseGUI/MakiseGUI/makise_primitives.c ****     int dx = abs(x1-x0), sx = x0<x1 ? 1 : -1;
 273:MakiseGUI/MakiseGUI/makise_primitives.c ****     int sy = y0<y1 ? 1 : -1; 
 274:MakiseGUI/MakiseGUI/makise_primitives.c ****     int err = (dx>dy ? dx : -dy)/2, e2;
 275:MakiseGUI/MakiseGUI/makise_primitives.c ****  
 276:MakiseGUI/MakiseGUI/makise_primitives.c ****     for(;;){
 277:MakiseGUI/MakiseGUI/makise_primitives.c **** 	makise_pset(b, x0, y0, c);
 278:MakiseGUI/MakiseGUI/makise_primitives.c **** 	if (x0==x1 && y0==y1) break;
 279:MakiseGUI/MakiseGUI/makise_primitives.c **** 	e2 = err;
 280:MakiseGUI/MakiseGUI/makise_primitives.c **** 	if (e2 >-dx) { err -= dy; x0 += sx; }
 281:MakiseGUI/MakiseGUI/makise_primitives.c **** 	if (e2 < dy) { err += dx; y0 += sy; }
 282:MakiseGUI/MakiseGUI/makise_primitives.c ****     }
 283:MakiseGUI/MakiseGUI/makise_primitives.c **** }
 669              		.loc 1 283 0
 670 0132 07B0     		add	sp, sp, #28
 671              	.LCFI7:
 672              		.cfi_remember_state
 673              		.cfi_def_cfa_offset 36
 674              		@ sp needed
 675 0134 BDE8F08F 		pop	{r4, r5, r6, r7, r8, r9, r10, fp, pc}
 676              	.LVL74:
 677              	.L73:
 678              	.LCFI8:
 679              		.cfi_restore_state
 220:MakiseGUI/MakiseGUI/makise_primitives.c **** 	return;
 680              		.loc 1 220 0 discriminator 1
 681 0138 8E45     		cmp	lr, r1
 682 013a FADD     		ble	.L35
 222:MakiseGUI/MakiseGUI/makise_primitives.c **** 	return;
 683              		.loc 1 222 0
 684 013c 002F     		cmp	r7, #0
 685 013e BFF671AF 		bge	.L39
 686              	.L74:
 222:MakiseGUI/MakiseGUI/makise_primitives.c **** 	return;
 687              		.loc 1 222 0 is_stmt 0 discriminator 1
 688 0142 002A     		cmp	r2, #0
 689 0144 BFF66EAF 		bge	.L39
 690 0148 F3E7     		b	.L35
 691              	.LVL75:
 692              	.L41:
ARM GAS  /tmp/cczvO81Q.s 			page 19


 272:MakiseGUI/MakiseGUI/makise_primitives.c ****     int sy = y0<y1 ? 1 : -1; 
 693              		.loc 1 272 0 is_stmt 1
 694 014a 2A1B     		subs	r2, r5, r4
 234:MakiseGUI/MakiseGUI/makise_primitives.c ****     
 695              		.loc 1 234 0
 696 014c 03B2     		sxth	r3, r0
 272:MakiseGUI/MakiseGUI/makise_primitives.c ****     int sy = y0<y1 ? 1 : -1; 
 697              		.loc 1 272 0
 698 014e 002A     		cmp	r2, #0
 699 0150 B8BF     		it	lt
 700 0152 5242     		rsblt	r2, r2, #0
 234:MakiseGUI/MakiseGUI/makise_primitives.c ****     
 701              		.loc 1 234 0
 702 0154 1946     		mov	r1, r3
 232:MakiseGUI/MakiseGUI/makise_primitives.c ****     y0 =  y0 < b->height-1 ? y0 : b->height - 1;
 703              		.loc 1 232 0
 704 0156 28B2     		sxth	r0, r5
 705              	.LVL76:
 233:MakiseGUI/MakiseGUI/makise_primitives.c ****     y1 =  y1 < b->height-1 ? y1 : b->height - 1;
 706              		.loc 1 233 0
 707 0158 0FFA8AFA 		sxth	r10, r10
 234:MakiseGUI/MakiseGUI/makise_primitives.c ****     
 708              		.loc 1 234 0
 709 015c 0593     		str	r3, [sp, #20]
 231:MakiseGUI/MakiseGUI/makise_primitives.c ****     x1 =  x1 < b->width-1 ? x1 : b->width - 1;
 710              		.loc 1 231 0
 711 015e 24B2     		sxth	r4, r4
 272:MakiseGUI/MakiseGUI/makise_primitives.c ****     int sy = y0<y1 ? 1 : -1; 
 712              		.loc 1 272 0
 713 0160 4FF6FF73 		movw	r3, #65535
 273:MakiseGUI/MakiseGUI/makise_primitives.c ****     int err = (dx>dy ? dx : -dy)/2, e2;
 714              		.loc 1 273 0
 715 0164 8A45     		cmp	r10, r1
 716 0166 ACBF     		ite	ge
 717 0168 1946     		movge	r1, r3
 718 016a 0121     		movlt	r1, #1
 719              	.LVL77:
 272:MakiseGUI/MakiseGUI/makise_primitives.c ****     int sy = y0<y1 ? 1 : -1; 
 720              		.loc 1 272 0
 721 016c 8442     		cmp	r4, r0
 722 016e B8BF     		it	lt
 723 0170 0123     		movlt	r3, #1
 274:MakiseGUI/MakiseGUI/makise_primitives.c ****  
 724              		.loc 1 274 0
 725 0172 B242     		cmp	r2, r6
 232:MakiseGUI/MakiseGUI/makise_primitives.c ****     y0 =  y0 < b->height-1 ? y0 : b->height - 1;
 726              		.loc 1 232 0
 727 0174 0190     		str	r0, [sp, #4]
 272:MakiseGUI/MakiseGUI/makise_primitives.c ****     int sy = y0<y1 ? 1 : -1; 
 728              		.loc 1 272 0
 729 0176 0492     		str	r2, [sp, #16]
 730              	.LVL78:
 273:MakiseGUI/MakiseGUI/makise_primitives.c ****     int err = (dx>dy ? dx : -dy)/2, e2;
 731              		.loc 1 273 0
 732 0178 0291     		str	r1, [sp, #8]
 272:MakiseGUI/MakiseGUI/makise_primitives.c ****     int sy = y0<y1 ? 1 : -1; 
 733              		.loc 1 272 0
ARM GAS  /tmp/cczvO81Q.s 			page 20


 734 017a 0093     		str	r3, [sp]
 274:MakiseGUI/MakiseGUI/makise_primitives.c ****  
 735              		.loc 1 274 0
 736 017c 29DD     		ble	.L76
 737 017e 1346     		mov	r3, r2
 274:MakiseGUI/MakiseGUI/makise_primitives.c ****  
 738              		.loc 1 274 0 is_stmt 0 discriminator 2
 739 0180 5510     		asrs	r5, r2, #1
 740              	.LVL79:
 741              	.L56:
 280:MakiseGUI/MakiseGUI/makise_primitives.c **** 	if (e2 < dy) { err += dx; y0 += sy; }
 742              		.loc 1 280 0 is_stmt 1
 743 0182 5B42     		negs	r3, r3
 744 0184 A7B2     		uxth	r7, r4
 745 0186 1FFA8AF8 		uxth	r8, r10
 746 018a 0393     		str	r3, [sp, #12]
 747              	.LVL80:
 748              	.L55:
 277:MakiseGUI/MakiseGUI/makise_primitives.c **** 	if (x0==x1 && y0==y1) break;
 749              		.loc 1 277 0
 750 018c 5B46     		mov	r3, fp
 751 018e 4246     		mov	r2, r8
 752 0190 3946     		mov	r1, r7
 753 0192 4846     		mov	r0, r9
 754 0194 FFF7FEFF 		bl	makise_pset
 755              	.LVL81:
 278:MakiseGUI/MakiseGUI/makise_primitives.c **** 	e2 = err;
 756              		.loc 1 278 0
 757 0198 019A     		ldr	r2, [sp, #4]
 280:MakiseGUI/MakiseGUI/makise_primitives.c **** 	if (e2 < dy) { err += dx; y0 += sy; }
 758              		.loc 1 280 0
 759 019a 009B     		ldr	r3, [sp]
 278:MakiseGUI/MakiseGUI/makise_primitives.c **** 	e2 = err;
 760              		.loc 1 278 0
 761 019c 9442     		cmp	r4, r2
 280:MakiseGUI/MakiseGUI/makise_primitives.c **** 	if (e2 < dy) { err += dx; y0 += sy; }
 762              		.loc 1 280 0
 763 019e 3B44     		add	r3, r3, r7
 278:MakiseGUI/MakiseGUI/makise_primitives.c **** 	e2 = err;
 764              		.loc 1 278 0
 765 01a0 1DD0     		beq	.L77
 766              	.L57:
 280:MakiseGUI/MakiseGUI/makise_primitives.c **** 	if (e2 < dy) { err += dx; y0 += sy; }
 767              		.loc 1 280 0
 768 01a2 039A     		ldr	r2, [sp, #12]
 769 01a4 9542     		cmp	r5, r2
 770 01a6 C8BF     		it	gt
 771 01a8 1CB2     		sxthgt	r4, r3
 772              	.LVL82:
 281:MakiseGUI/MakiseGUI/makise_primitives.c ****     }
 773              		.loc 1 281 0
 774 01aa 029A     		ldr	r2, [sp, #8]
 775 01ac C6BF     		itte	gt
 776 01ae A7B2     		uxthgt	r7, r4
 280:MakiseGUI/MakiseGUI/makise_primitives.c **** 	if (e2 < dy) { err += dx; y0 += sy; }
 777              		.loc 1 280 0
 778 01b0 AB1B     		subgt	r3, r5, r6
ARM GAS  /tmp/cczvO81Q.s 			page 21


 779              	.LVL83:
 780 01b2 2B46     		movle	r3, r5
 781              	.LVL84:
 281:MakiseGUI/MakiseGUI/makise_primitives.c ****     }
 782              		.loc 1 281 0
 783 01b4 B542     		cmp	r5, r6
 784 01b6 4244     		add	r2, r2, r8
 785 01b8 05DA     		bge	.L59
 281:MakiseGUI/MakiseGUI/makise_primitives.c ****     }
 786              		.loc 1 281 0 is_stmt 0 discriminator 1
 787 01ba 0FFA82FA 		sxth	r10, r2
 788              	.LVL85:
 789 01be 049A     		ldr	r2, [sp, #16]
 790 01c0 1FFA8AF8 		uxth	r8, r10
 791 01c4 1344     		add	r3, r3, r2
 792              	.LVL86:
 793              	.L59:
 794 01c6 1D46     		mov	r5, r3
 795              	.LVL87:
 796 01c8 E0E7     		b	.L55
 797              	.LVL88:
 798              	.L72:
 218:MakiseGUI/MakiseGUI/makise_primitives.c **** 	return;
 799              		.loc 1 218 0 is_stmt 1 discriminator 1
 800 01ca 0029     		cmp	r1, #0
 801 01cc BFF622AF 		bge	.L36
 802 01d0 AFE7     		b	.L35
 803              	.LVL89:
 804              	.L76:
 274:MakiseGUI/MakiseGUI/makise_primitives.c ****  
 805              		.loc 1 274 0 discriminator 1
 806 01d2 06EBD675 		add	r5, r6, r6, lsr #31
 807              	.LVL90:
 808 01d6 6D10     		asrs	r5, r5, #1
 809 01d8 6D42     		negs	r5, r5
 810 01da 1346     		mov	r3, r2
 811 01dc D1E7     		b	.L56
 812              	.LVL91:
 813              	.L77:
 278:MakiseGUI/MakiseGUI/makise_primitives.c **** 	e2 = err;
 814              		.loc 1 278 0 discriminator 1
 815 01de 059A     		ldr	r2, [sp, #20]
 816 01e0 9245     		cmp	r10, r2
 817 01e2 DED1     		bne	.L57
 818              		.loc 1 283 0
 819 01e4 07B0     		add	sp, sp, #28
 820              	.LCFI9:
 821              		.cfi_remember_state
 822              		.cfi_def_cfa_offset 36
 823              		@ sp needed
 824 01e6 BDE8F08F 		pop	{r4, r5, r6, r7, r8, r9, r10, fp, pc}
 825              	.LVL92:
 826              	.L60:
 827              	.LCFI10:
 828              		.cfi_restore_state
 829              	.LBB10:
 830              	.LBB9:
ARM GAS  /tmp/cczvO81Q.s 			page 22


 245:MakiseGUI/MakiseGUI/makise_primitives.c **** 	{
 831              		.loc 1 245 0
 832 01ea 1F46     		mov	r7, r3
 833 01ec 56E7     		b	.L42
 834              	.LBE9:
 835              	.LBE10:
 836              		.cfi_endproc
 837              	.LFE132:
 839 01ee 00BF     		.section	.text.makise_d_rect,"ax",%progbits
 840              		.align	1
 841              		.p2align 2,,3
 842              		.global	makise_d_rect
 843              		.syntax unified
 844              		.thumb
 845              		.thumb_func
 846              		.fpu fpv4-sp-d16
 848              	makise_d_rect:
 849              	.LFB128:
  26:MakiseGUI/MakiseGUI/makise_primitives.c ****     if(x >= b->width || y >= b->height)
 850              		.loc 1 26 0
 851              		.cfi_startproc
 852              		@ args = 8, pretend = 0, frame = 0
 853              		@ frame_needed = 0, uses_anonymous_args = 0
 854              	.LVL93:
 855 0000 2DE9F043 		push	{r4, r5, r6, r7, r8, r9, lr}
 856              	.LCFI11:
 857              		.cfi_def_cfa_offset 28
 858              		.cfi_offset 4, -28
 859              		.cfi_offset 5, -24
 860              		.cfi_offset 6, -20
 861              		.cfi_offset 7, -16
 862              		.cfi_offset 8, -12
 863              		.cfi_offset 9, -8
 864              		.cfi_offset 14, -4
 865 0004 0C46     		mov	r4, r1
  27:MakiseGUI/MakiseGUI/makise_primitives.c **** 	return;
 866              		.loc 1 27 0
 867 0006 C188     		ldrh	r1, [r0, #6]
 868              	.LVL94:
  26:MakiseGUI/MakiseGUI/makise_primitives.c ****     if(x >= b->width || y >= b->height)
 869              		.loc 1 26 0
 870 0008 83B0     		sub	sp, sp, #12
 871              	.LCFI12:
 872              		.cfi_def_cfa_offset 40
  27:MakiseGUI/MakiseGUI/makise_primitives.c **** 	return;
 873              		.loc 1 27 0
 874 000a 8C42     		cmp	r4, r1
  26:MakiseGUI/MakiseGUI/makise_primitives.c ****     if(x >= b->width || y >= b->height)
 875              		.loc 1 26 0
 876 000c BDF82870 		ldrh	r7, [sp, #40]
 877 0010 DDF82C80 		ldr	r8, [sp, #44]
  27:MakiseGUI/MakiseGUI/makise_primitives.c **** 	return;
 878              		.loc 1 27 0
 879 0014 45DA     		bge	.L78
 880 0016 1546     		mov	r5, r2
  27:MakiseGUI/MakiseGUI/makise_primitives.c **** 	return;
 881              		.loc 1 27 0 is_stmt 0 discriminator 1
ARM GAS  /tmp/cczvO81Q.s 			page 23


 882 0018 8288     		ldrh	r2, [r0, #4]
 883              	.LVL95:
 884 001a 9542     		cmp	r5, r2
 885 001c 0646     		mov	r6, r0
 886 001e AE46     		mov	lr, r5
 887 0020 3FDA     		bge	.L78
  29:MakiseGUI/MakiseGUI/makise_primitives.c ****     {
 888              		.loc 1 29 0 is_stmt 1
 889 0022 002C     		cmp	r4, #0
 890 0024 2046     		mov	r0, r4
 891              	.LVL96:
 892 0026 3FDB     		blt	.L91
 893              	.LVL97:
 894              	.L80:
  36:MakiseGUI/MakiseGUI/makise_primitives.c ****     {
 895              		.loc 1 36 0
 896 0028 002D     		cmp	r5, #0
 897 002a 45DB     		blt	.L92
 898              	.LVL98:
 899              	.L81:
  43:MakiseGUI/MakiseGUI/makise_primitives.c **** 	w = b->width - x - 1;
 900              		.loc 1 43 0
 901 002c 1844     		add	r0, r0, r3
 902 002e 8142     		cmp	r1, r0
 903 0030 02DC     		bgt	.L82
  44:MakiseGUI/MakiseGUI/makise_primitives.c ****     if(y + h >= b->height)
 904              		.loc 1 44 0
 905 0032 4B1E     		subs	r3, r1, #1
 906              	.LVL99:
 907 0034 1B1B     		subs	r3, r3, r4
 908 0036 9BB2     		uxth	r3, r3
 909              	.LVL100:
 910              	.L82:
  45:MakiseGUI/MakiseGUI/makise_primitives.c **** 	h = b->height - y - 1;
 911              		.loc 1 45 0
 912 0038 BE44     		add	lr, lr, r7
 913 003a 7245     		cmp	r2, lr
 914 003c 02DC     		bgt	.L83
  46:MakiseGUI/MakiseGUI/makise_primitives.c ****     
 915              		.loc 1 46 0
 916 003e 571E     		subs	r7, r2, #1
 917              	.LVL101:
 918 0040 7F1B     		subs	r7, r7, r5
 919 0042 BFB2     		uxth	r7, r7
 920              	.LVL102:
 921              	.L83:
  48:MakiseGUI/MakiseGUI/makise_primitives.c **** 	return;
 922              		.loc 1 48 0
 923 0044 6BB3     		cbz	r3, .L78
  48:MakiseGUI/MakiseGUI/makise_primitives.c **** 	return;
 924              		.loc 1 48 0 is_stmt 0 discriminator 1
 925 0046 67B3     		cbz	r7, .L78
 926              	.LVL103:
  62:MakiseGUI/MakiseGUI/makise_primitives.c ****     makise_d_line(b, x, y + h, x + w, y + h, c);
 927              		.loc 1 62 0 is_stmt 1
 928 0048 04F1FF39 		add	r9, r4, #-1
 929 004c 4B44     		add	r3, r3, r9
ARM GAS  /tmp/cczvO81Q.s 			page 24


 930              	.LVL104:
 931 004e 0FFA83F9 		sxth	r9, r3
 932 0052 4B46     		mov	r3, r9
 933 0054 2A46     		mov	r2, r5
 934 0056 2146     		mov	r1, r4
 935 0058 3046     		mov	r0, r6
 936 005a 8DE82001 		stm	sp, {r5, r8}
 937 005e FFF7FEFF 		bl	makise_d_line
 938              	.LVL105:
  63:MakiseGUI/MakiseGUI/makise_primitives.c ****     makise_d_line(b, x, y, x, y + h, c);
 939              		.loc 1 63 0
 940 0062 6B1E     		subs	r3, r5, #1
 941 0064 1F44     		add	r7, r7, r3
 942              	.LVL106:
 943 0066 3FB2     		sxth	r7, r7
 944 0068 4B46     		mov	r3, r9
 945 006a 3A46     		mov	r2, r7
 946 006c 2146     		mov	r1, r4
 947 006e 3046     		mov	r0, r6
 948 0070 CDF80480 		str	r8, [sp, #4]
 949 0074 0097     		str	r7, [sp]
 950 0076 FFF7FEFF 		bl	makise_d_line
 951              	.LVL107:
  64:MakiseGUI/MakiseGUI/makise_primitives.c ****     makise_d_line(b, x + w, y, x + w, y + h, c);
 952              		.loc 1 64 0
 953 007a 2346     		mov	r3, r4
 954 007c 2146     		mov	r1, r4
 955 007e 2A46     		mov	r2, r5
 956 0080 3046     		mov	r0, r6
 957 0082 8DE88001 		stm	sp, {r7, r8}
 958 0086 FFF7FEFF 		bl	makise_d_line
 959              	.LVL108:
  65:MakiseGUI/MakiseGUI/makise_primitives.c ****     /*
 960              		.loc 1 65 0
 961 008a 2A46     		mov	r2, r5
 962 008c 3046     		mov	r0, r6
 963 008e 4B46     		mov	r3, r9
 964 0090 4946     		mov	r1, r9
 965 0092 0A97     		str	r7, [sp, #40]
 966 0094 CDF82C80 		str	r8, [sp, #44]
 967              	.LVL109:
  72:MakiseGUI/MakiseGUI/makise_primitives.c **** void makise_d_rect_filled(MakiseBuffer* b, int16_t x, int16_t y, uint16_t w,
 968              		.loc 1 72 0
 969 0098 03B0     		add	sp, sp, #12
 970              	.LCFI13:
 971              		.cfi_remember_state
 972              		.cfi_def_cfa_offset 28
 973              		@ sp needed
 974 009a BDE8F043 		pop	{r4, r5, r6, r7, r8, r9, lr}
 975              	.LCFI14:
 976              		.cfi_restore 14
 977              		.cfi_restore 9
 978              		.cfi_restore 8
 979              		.cfi_restore 7
 980              		.cfi_restore 6
 981              		.cfi_restore 5
 982              		.cfi_restore 4
ARM GAS  /tmp/cczvO81Q.s 			page 25


 983              		.cfi_def_cfa_offset 0
 984              	.LVL110:
  65:MakiseGUI/MakiseGUI/makise_primitives.c ****     /*
 985              		.loc 1 65 0
 986 009e FFF7FEBF 		b	makise_d_line
 987              	.LVL111:
 988              	.L78:
 989              	.LCFI15:
 990              		.cfi_restore_state
  72:MakiseGUI/MakiseGUI/makise_primitives.c **** void makise_d_rect_filled(MakiseBuffer* b, int16_t x, int16_t y, uint16_t w,
 991              		.loc 1 72 0
 992 00a2 03B0     		add	sp, sp, #12
 993              	.LCFI16:
 994              		.cfi_remember_state
 995              		.cfi_def_cfa_offset 28
 996              		@ sp needed
 997 00a4 BDE8F083 		pop	{r4, r5, r6, r7, r8, r9, pc}
 998              	.LVL112:
 999              	.L91:
 1000              	.LCFI17:
 1001              		.cfi_restore_state
  31:MakiseGUI/MakiseGUI/makise_primitives.c **** 	    return;
 1002              		.loc 1 31 0
 1003 00a8 6042     		negs	r0, r4
 1004 00aa 9842     		cmp	r0, r3
 1005 00ac F9DC     		bgt	.L78
  33:MakiseGUI/MakiseGUI/makise_primitives.c **** 	x = 0;
 1006              		.loc 1 33 0
 1007 00ae 2344     		add	r3, r3, r4
 1008              	.LVL113:
 1009 00b0 0024     		movs	r4, #0
 1010 00b2 9BB2     		uxth	r3, r3
 1011              	.LVL114:
  34:MakiseGUI/MakiseGUI/makise_primitives.c ****     }
 1012              		.loc 1 34 0
 1013 00b4 2046     		mov	r0, r4
 1014 00b6 B7E7     		b	.L80
 1015              	.LVL115:
 1016              	.L92:
  38:MakiseGUI/MakiseGUI/makise_primitives.c **** 	    return;
 1017              		.loc 1 38 0
 1018 00b8 C5F1000E 		rsb	lr, r5, #0
 1019 00bc BE45     		cmp	lr, r7
 1020 00be F0DC     		bgt	.L78
  40:MakiseGUI/MakiseGUI/makise_primitives.c **** 	y = 0;
 1021              		.loc 1 40 0
 1022 00c0 2F44     		add	r7, r7, r5
 1023 00c2 0025     		movs	r5, #0
 1024 00c4 BFB2     		uxth	r7, r7
 1025              	.LVL116:
  41:MakiseGUI/MakiseGUI/makise_primitives.c ****     }
 1026              		.loc 1 41 0
 1027 00c6 AE46     		mov	lr, r5
 1028 00c8 B0E7     		b	.L81
 1029              		.cfi_endproc
 1030              	.LFE128:
 1032 00ca 00BF     		.section	.text.makise_d_rect_filled,"ax",%progbits
ARM GAS  /tmp/cczvO81Q.s 			page 26


 1033              		.align	1
 1034              		.p2align 2,,3
 1035              		.global	makise_d_rect_filled
 1036              		.syntax unified
 1037              		.thumb
 1038              		.thumb_func
 1039              		.fpu fpv4-sp-d16
 1041              	makise_d_rect_filled:
 1042              	.LFB129:
  75:MakiseGUI/MakiseGUI/makise_primitives.c ****     if(x >= b->width || y >= b->height)
 1043              		.loc 1 75 0
 1044              		.cfi_startproc
 1045              		@ args = 12, pretend = 0, frame = 8
 1046              		@ frame_needed = 0, uses_anonymous_args = 0
 1047              	.LVL117:
 1048 0000 2DE9F04F 		push	{r4, r5, r6, r7, r8, r9, r10, fp, lr}
 1049              	.LCFI18:
 1050              		.cfi_def_cfa_offset 36
 1051              		.cfi_offset 4, -36
 1052              		.cfi_offset 5, -32
 1053              		.cfi_offset 6, -28
 1054              		.cfi_offset 7, -24
 1055              		.cfi_offset 8, -20
 1056              		.cfi_offset 9, -16
 1057              		.cfi_offset 10, -12
 1058              		.cfi_offset 11, -8
 1059              		.cfi_offset 14, -4
 1060 0004 0D46     		mov	r5, r1
  76:MakiseGUI/MakiseGUI/makise_primitives.c **** 	return;
 1061              		.loc 1 76 0
 1062 0006 C188     		ldrh	r1, [r0, #6]
 1063              	.LVL118:
  75:MakiseGUI/MakiseGUI/makise_primitives.c ****     if(x >= b->width || y >= b->height)
 1064              		.loc 1 75 0
 1065 0008 85B0     		sub	sp, sp, #20
 1066              	.LCFI19:
 1067              		.cfi_def_cfa_offset 56
  76:MakiseGUI/MakiseGUI/makise_primitives.c **** 	return;
 1068              		.loc 1 76 0
 1069 000a 8D42     		cmp	r5, r1
  75:MakiseGUI/MakiseGUI/makise_primitives.c ****     if(x >= b->width || y >= b->height)
 1070              		.loc 1 75 0
 1071 000c 0646     		mov	r6, r0
 1072 000e BDF83800 		ldrh	r0, [sp, #56]
 1073              	.LVL119:
  76:MakiseGUI/MakiseGUI/makise_primitives.c **** 	return;
 1074              		.loc 1 76 0
 1075 0012 67DA     		bge	.L93
 1076 0014 1746     		mov	r7, r2
  76:MakiseGUI/MakiseGUI/makise_primitives.c **** 	return;
 1077              		.loc 1 76 0 is_stmt 0 discriminator 1
 1078 0016 B288     		ldrh	r2, [r6, #4]
 1079              	.LVL120:
 1080 0018 9742     		cmp	r7, r2
 1081 001a 3C46     		mov	r4, r7
 1082 001c 62DA     		bge	.L93
  78:MakiseGUI/MakiseGUI/makise_primitives.c ****     {
ARM GAS  /tmp/cczvO81Q.s 			page 27


 1083              		.loc 1 78 0 is_stmt 1
 1084 001e 002D     		cmp	r5, #0
 1085 0020 AE46     		mov	lr, r5
 1086 0022 62DB     		blt	.L109
 1087              	.LVL121:
 1088              	.L96:
  85:MakiseGUI/MakiseGUI/makise_primitives.c ****     {
 1089              		.loc 1 85 0
 1090 0024 002F     		cmp	r7, #0
 1091 0026 69DB     		blt	.L110
 1092              	.LVL122:
 1093              	.L97:
  92:MakiseGUI/MakiseGUI/makise_primitives.c **** 	w = b->width - x - 1;
 1094              		.loc 1 92 0
 1095 0028 9E44     		add	lr, lr, r3
 1096 002a 7145     		cmp	r1, lr
 1097 002c 02DC     		bgt	.L98
  93:MakiseGUI/MakiseGUI/makise_primitives.c ****     if(y + h >= b->height)
 1098              		.loc 1 93 0
 1099 002e 4B1E     		subs	r3, r1, #1
 1100              	.LVL123:
 1101 0030 5B1B     		subs	r3, r3, r5
 1102 0032 9BB2     		uxth	r3, r3
 1103              	.LVL124:
 1104              	.L98:
  94:MakiseGUI/MakiseGUI/makise_primitives.c **** 	h = b->height - y - 1;
 1105              		.loc 1 94 0
 1106 0034 0119     		adds	r1, r0, r4
 1107 0036 8A42     		cmp	r2, r1
 1108 0038 02DC     		bgt	.L99
  95:MakiseGUI/MakiseGUI/makise_primitives.c ****     
 1109              		.loc 1 95 0
 1110 003a 013A     		subs	r2, r2, #1
 1111 003c D21B     		subs	r2, r2, r7
 1112 003e 90B2     		uxth	r0, r2
 1113              	.LVL125:
 1114              	.L99:
  97:MakiseGUI/MakiseGUI/makise_primitives.c **** 	return;
 1115              		.loc 1 97 0
 1116 0040 002B     		cmp	r3, #0
 1117 0042 4FD0     		beq	.L93
  97:MakiseGUI/MakiseGUI/makise_primitives.c **** 	return;
 1118              		.loc 1 97 0 is_stmt 0 discriminator 1
 1119 0044 0028     		cmp	r0, #0
 1120 0046 4DD0     		beq	.L93
 111:MakiseGUI/MakiseGUI/makise_primitives.c ****     makise_d_line(b, x, y + h, x + w, y + h, c);
 1121              		.loc 1 111 0 is_stmt 1
 1122 0048 1FFA85F9 		uxth	r9, r5
 1123 004c 09F1FF32 		add	r2, r9, #-1
 1124 0050 1344     		add	r3, r3, r2
 1125              	.LVL126:
 1126 0052 9BB2     		uxth	r3, r3
 1127 0054 0393     		str	r3, [sp, #12]
 1128 0056 BDF90CB0 		ldrsh	fp, [sp, #12]
 1129 005a 0097     		str	r7, [sp]
 108:MakiseGUI/MakiseGUI/makise_primitives.c ****     w -= 1;
 1130              		.loc 1 108 0
ARM GAS  /tmp/cczvO81Q.s 			page 28


 1131 005c 421E     		subs	r2, r0, #1
 1132 005e 1FFA82F8 		uxth	r8, r2
 1133              	.LVL127:
 111:MakiseGUI/MakiseGUI/makise_primitives.c ****     makise_d_line(b, x, y + h, x + w, y + h, c);
 1134              		.loc 1 111 0
 1135 0062 0F9A     		ldr	r2, [sp, #60]
 1136 0064 0192     		str	r2, [sp, #4]
 1137 0066 5B46     		mov	r3, fp
 1138 0068 3A46     		mov	r2, r7
 1139 006a 2946     		mov	r1, r5
 1140 006c 3046     		mov	r0, r6
 112:MakiseGUI/MakiseGUI/makise_primitives.c ****     makise_d_line(b, x, y, x, y + h, c);
 1141              		.loc 1 112 0
 1142 006e 08EB070A 		add	r10, r8, r7
 111:MakiseGUI/MakiseGUI/makise_primitives.c ****     makise_d_line(b, x, y + h, x + w, y + h, c);
 1143              		.loc 1 111 0
 1144 0072 FFF7FEFF 		bl	makise_d_line
 1145              	.LVL128:
 112:MakiseGUI/MakiseGUI/makise_primitives.c ****     makise_d_line(b, x, y, x, y + h, c);
 1146              		.loc 1 112 0
 1147 0076 0FFA8AFA 		sxth	r10, r10
 1148 007a 0F9A     		ldr	r2, [sp, #60]
 1149 007c 0192     		str	r2, [sp, #4]
 1150 007e 5B46     		mov	r3, fp
 1151 0080 5246     		mov	r2, r10
 1152 0082 2946     		mov	r1, r5
 1153 0084 3046     		mov	r0, r6
 1154 0086 CDF800A0 		str	r10, [sp]
 1155 008a FFF7FEFF 		bl	makise_d_line
 1156              	.LVL129:
 113:MakiseGUI/MakiseGUI/makise_primitives.c ****     makise_d_line(b, x + w, y, x + w, y + h, c);
 1157              		.loc 1 113 0
 1158 008e 0F9A     		ldr	r2, [sp, #60]
 1159 0090 0192     		str	r2, [sp, #4]
 1160 0092 2B46     		mov	r3, r5
 1161 0094 2946     		mov	r1, r5
 1162 0096 3A46     		mov	r2, r7
 1163 0098 3046     		mov	r0, r6
 1164 009a CDF800A0 		str	r10, [sp]
 1165 009e FFF7FEFF 		bl	makise_d_line
 1166              	.LVL130:
 114:MakiseGUI/MakiseGUI/makise_primitives.c ****     /*
 1167              		.loc 1 114 0
 1168 00a2 0F9A     		ldr	r2, [sp, #60]
 1169 00a4 0192     		str	r2, [sp, #4]
 1170              	.LBB11:
 121:MakiseGUI/MakiseGUI/makise_primitives.c **** 	makise_d_line(b, x + 1, i, x+w - 1, i, fill_c);
 1171              		.loc 1 121 0
 1172 00a6 A044     		add	r8, r8, r4
 1173              	.LVL131:
 1174              	.LBE11:
 114:MakiseGUI/MakiseGUI/makise_primitives.c ****     /*
 1175              		.loc 1 114 0
 1176 00a8 CDF800A0 		str	r10, [sp]
 1177              	.LBB12:
 121:MakiseGUI/MakiseGUI/makise_primitives.c **** 	makise_d_line(b, x + 1, i, x+w - 1, i, fill_c);
 1178              		.loc 1 121 0
ARM GAS  /tmp/cczvO81Q.s 			page 29


 1179 00ac 0134     		adds	r4, r4, #1
 1180              	.LBE12:
 114:MakiseGUI/MakiseGUI/makise_primitives.c ****     /*
 1181              		.loc 1 114 0
 1182 00ae 3A46     		mov	r2, r7
 1183 00b0 5B46     		mov	r3, fp
 1184 00b2 5946     		mov	r1, fp
 1185 00b4 3046     		mov	r0, r6
 1186 00b6 FFF7FEFF 		bl	makise_d_line
 1187              	.LVL132:
 1188              	.LBB13:
 121:MakiseGUI/MakiseGUI/makise_primitives.c **** 	makise_d_line(b, x + 1, i, x+w - 1, i, fill_c);
 1189              		.loc 1 121 0
 1190 00ba 4445     		cmp	r4, r8
 1191 00bc 12DA     		bge	.L93
 1192 00be 039B     		ldr	r3, [sp, #12]
 1193 00c0 09F10109 		add	r9, r9, #1
 1194 00c4 5D1E     		subs	r5, r3, #1
 1195              	.LVL133:
 1196 00c6 0FFA89F9 		sxth	r9, r9
 1197              	.LVL134:
 1198 00ca 2DB2     		sxth	r5, r5
 1199              	.L100:
 122:MakiseGUI/MakiseGUI/makise_primitives.c ****     }    
 1200              		.loc 1 122 0 discriminator 3
 1201 00cc 109B     		ldr	r3, [sp, #64]
 1202 00ce 22B2     		sxth	r2, r4
 1203 00d0 8DE80C00 		stm	sp, {r2, r3}
 121:MakiseGUI/MakiseGUI/makise_primitives.c **** 	makise_d_line(b, x + 1, i, x+w - 1, i, fill_c);
 1204              		.loc 1 121 0 discriminator 3
 1205 00d4 0134     		adds	r4, r4, #1
 1206              	.LVL135:
 122:MakiseGUI/MakiseGUI/makise_primitives.c ****     }    
 1207              		.loc 1 122 0 discriminator 3
 1208 00d6 2B46     		mov	r3, r5
 1209 00d8 4946     		mov	r1, r9
 1210 00da 3046     		mov	r0, r6
 1211 00dc FFF7FEFF 		bl	makise_d_line
 1212              	.LVL136:
 121:MakiseGUI/MakiseGUI/makise_primitives.c **** 	makise_d_line(b, x + 1, i, x+w - 1, i, fill_c);
 1213              		.loc 1 121 0 discriminator 3
 1214 00e0 4445     		cmp	r4, r8
 1215 00e2 F3D1     		bne	.L100
 1216              	.LVL137:
 1217              	.L93:
 1218              	.LBE13:
 124:MakiseGUI/MakiseGUI/makise_primitives.c **** void makise_d_circle(MakiseBuffer* b, uint16_t xc, uint16_t yc, uint16_t r, uint32_t c)
 1219              		.loc 1 124 0
 1220 00e4 05B0     		add	sp, sp, #20
 1221              	.LCFI20:
 1222              		.cfi_remember_state
 1223              		.cfi_def_cfa_offset 36
 1224              		@ sp needed
 1225 00e6 BDE8F08F 		pop	{r4, r5, r6, r7, r8, r9, r10, fp, pc}
 1226              	.LVL138:
 1227              	.L109:
 1228              	.LCFI21:
ARM GAS  /tmp/cczvO81Q.s 			page 30


 1229              		.cfi_restore_state
  80:MakiseGUI/MakiseGUI/makise_primitives.c **** 	    return;
 1230              		.loc 1 80 0
 1231 00ea C5F1000E 		rsb	lr, r5, #0
 1232 00ee 9E45     		cmp	lr, r3
 1233 00f0 F8DC     		bgt	.L93
  82:MakiseGUI/MakiseGUI/makise_primitives.c **** 	x = 0;
 1234              		.loc 1 82 0
 1235 00f2 2B44     		add	r3, r3, r5
 1236              	.LVL139:
 1237 00f4 0025     		movs	r5, #0
 1238 00f6 9BB2     		uxth	r3, r3
 1239              	.LVL140:
  83:MakiseGUI/MakiseGUI/makise_primitives.c ****     }
 1240              		.loc 1 83 0
 1241 00f8 AE46     		mov	lr, r5
 1242 00fa 93E7     		b	.L96
 1243              	.LVL141:
 1244              	.L110:
  87:MakiseGUI/MakiseGUI/makise_primitives.c **** 	    return;
 1245              		.loc 1 87 0
 1246 00fc 7C42     		negs	r4, r7
 1247 00fe 8442     		cmp	r4, r0
 1248 0100 F0DC     		bgt	.L93
  89:MakiseGUI/MakiseGUI/makise_primitives.c **** 	y = 0;
 1249              		.loc 1 89 0
 1250 0102 3844     		add	r0, r0, r7
 1251 0104 0027     		movs	r7, #0
 1252 0106 80B2     		uxth	r0, r0
 1253              	.LVL142:
  90:MakiseGUI/MakiseGUI/makise_primitives.c ****     }
 1254              		.loc 1 90 0
 1255 0108 3C46     		mov	r4, r7
 1256 010a 8DE7     		b	.L97
 1257              		.cfi_endproc
 1258              	.LFE129:
 1260              		.section	.text.makise_d_circle_filled,"ax",%progbits
 1261              		.align	1
 1262              		.p2align 2,,3
 1263              		.global	makise_d_circle_filled
 1264              		.syntax unified
 1265              		.thumb
 1266              		.thumb_func
 1267              		.fpu fpv4-sp-d16
 1269              	makise_d_circle_filled:
 1270              	.LFB131:
 165:MakiseGUI/MakiseGUI/makise_primitives.c ****     //middle point algorythm
 1271              		.loc 1 165 0
 1272              		.cfi_startproc
 1273              		@ args = 8, pretend = 0, frame = 56
 1274              		@ frame_needed = 0, uses_anonymous_args = 0
 1275              	.LVL143:
 1276 0000 2DE9F04F 		push	{r4, r5, r6, r7, r8, r9, r10, fp, lr}
 1277              	.LCFI22:
 1278              		.cfi_def_cfa_offset 36
 1279              		.cfi_offset 4, -36
 1280              		.cfi_offset 5, -32
ARM GAS  /tmp/cczvO81Q.s 			page 31


 1281              		.cfi_offset 6, -28
 1282              		.cfi_offset 7, -24
 1283              		.cfi_offset 8, -20
 1284              		.cfi_offset 9, -16
 1285              		.cfi_offset 10, -12
 1286              		.cfi_offset 11, -8
 1287              		.cfi_offset 14, -4
 1288 0004 91B0     		sub	sp, sp, #68
 1289              	.LCFI23:
 1290              		.cfi_def_cfa_offset 104
 173:MakiseGUI/MakiseGUI/makise_primitives.c ****     makise_pset(b, xc, yc + r, c);
 1291              		.loc 1 173 0
 1292 0006 CC1A     		subs	r4, r1, r3
 169:MakiseGUI/MakiseGUI/makise_primitives.c ****     int16_t x = 0;
 1293              		.loc 1 169 0
 1294 0008 C3EBC336 		rsb	r6, r3, r3, lsl #15
 165:MakiseGUI/MakiseGUI/makise_primitives.c ****     //middle point algorythm
 1295              		.loc 1 165 0
 1296 000c 1F46     		mov	r7, r3
 173:MakiseGUI/MakiseGUI/makise_primitives.c ****     makise_pset(b, xc, yc + r, c);
 1297              		.loc 1 173 0
 1298 000e 5D18     		adds	r5, r3, r1
 1299 0010 1FFA84FB 		uxth	fp, r4
 169:MakiseGUI/MakiseGUI/makise_primitives.c ****     int16_t x = 0;
 1300              		.loc 1 169 0
 1301 0014 7600     		lsls	r6, r6, #1
 173:MakiseGUI/MakiseGUI/makise_primitives.c ****     makise_pset(b, xc, yc + r, c);
 1302              		.loc 1 173 0
 1303 0016 1B9C     		ldr	r4, [sp, #108]
 165:MakiseGUI/MakiseGUI/makise_primitives.c ****     //middle point algorythm
 1304              		.loc 1 165 0
 1305 0018 0C92     		str	r2, [sp, #48]
 1306 001a 9146     		mov	r9, r2
 173:MakiseGUI/MakiseGUI/makise_primitives.c ****     makise_pset(b, xc, yc + r, c);
 1307              		.loc 1 173 0
 1308 001c ADB2     		uxth	r5, r5
 1309 001e 12B2     		sxth	r2, r2
 167:MakiseGUI/MakiseGUI/makise_primitives.c ****     int16_t ddF_x = 1;
 1310              		.loc 1 167 0
 1311 0020 0797     		str	r7, [sp, #28]
 173:MakiseGUI/MakiseGUI/makise_primitives.c ****     makise_pset(b, xc, yc + r, c);
 1312              		.loc 1 173 0
 1313 0022 0194     		str	r4, [sp, #4]
 167:MakiseGUI/MakiseGUI/makise_primitives.c ****     int16_t ddF_x = 1;
 1314              		.loc 1 167 0
 1315 0024 C7F10107 		rsb	r7, r7, #1
 169:MakiseGUI/MakiseGUI/makise_primitives.c ****     int16_t x = 0;
 1316              		.loc 1 169 0
 1317 0028 34B2     		sxth	r4, r6
 173:MakiseGUI/MakiseGUI/makise_primitives.c ****     makise_pset(b, xc, yc + r, c);
 1318              		.loc 1 173 0
 1319 002a 0891     		str	r1, [sp, #32]
 1320 002c 0092     		str	r2, [sp]
 1321 002e 0FFA8BF1 		sxth	r1, fp
 1322              	.LVL144:
 1323 0032 2BB2     		sxth	r3, r5
 1324              	.LVL145:
ARM GAS  /tmp/cczvO81Q.s 			page 32


 169:MakiseGUI/MakiseGUI/makise_primitives.c ****     int16_t x = 0;
 1325              		.loc 1 169 0
 1326 0034 0B94     		str	r4, [sp, #44]
 167:MakiseGUI/MakiseGUI/makise_primitives.c ****     int16_t ddF_x = 1;
 1327              		.loc 1 167 0
 1328 0036 3CB2     		sxth	r4, r7
 165:MakiseGUI/MakiseGUI/makise_primitives.c ****     //middle point algorythm
 1329              		.loc 1 165 0
 1330 0038 DDF86880 		ldr	r8, [sp, #104]
 167:MakiseGUI/MakiseGUI/makise_primitives.c ****     int16_t ddF_x = 1;
 1331              		.loc 1 167 0
 1332 003c 0394     		str	r4, [sp, #12]
 1333              	.LVL146:
 165:MakiseGUI/MakiseGUI/makise_primitives.c ****     //middle point algorythm
 1334              		.loc 1 165 0
 1335 003e 8246     		mov	r10, r0
 173:MakiseGUI/MakiseGUI/makise_primitives.c ****     makise_pset(b, xc, yc + r, c);
 1336              		.loc 1 173 0
 1337 0040 FFF7FEFF 		bl	makise_d_line
 1338              	.LVL147:
 174:MakiseGUI/MakiseGUI/makise_primitives.c ****     makise_pset(b, xc, yc - r, c);
 1339              		.loc 1 174 0
 1340 0044 079F     		ldr	r7, [sp, #28]
 1341 0046 4E46     		mov	r6, r9
 1342 0048 DDF82090 		ldr	r9, [sp, #32]
 1343 004c BA19     		adds	r2, r7, r6
 1344 004e 92B2     		uxth	r2, r2
 1345 0050 4346     		mov	r3, r8
 1346 0052 4946     		mov	r1, r9
 1347 0054 5046     		mov	r0, r10
 1348 0056 FFF7FEFF 		bl	makise_pset
 1349              	.LVL148:
 175:MakiseGUI/MakiseGUI/makise_primitives.c ****     makise_pset(b, xc + r, yc, c);
 1350              		.loc 1 175 0
 1351 005a F21B     		subs	r2, r6, r7
 1352 005c 92B2     		uxth	r2, r2
 1353 005e 4346     		mov	r3, r8
 1354 0060 4946     		mov	r1, r9
 1355 0062 5046     		mov	r0, r10
 1356 0064 FFF7FEFF 		bl	makise_pset
 1357              	.LVL149:
 176:MakiseGUI/MakiseGUI/makise_primitives.c ****     makise_pset(b, xc - r, yc, c);
 1358              		.loc 1 176 0
 1359 0068 4346     		mov	r3, r8
 1360 006a 3246     		mov	r2, r6
 1361 006c 2946     		mov	r1, r5
 1362 006e 5046     		mov	r0, r10
 1363 0070 FFF7FEFF 		bl	makise_pset
 1364              	.LVL150:
 171:MakiseGUI/MakiseGUI/makise_primitives.c ****     int16_t dd;
 1365              		.loc 1 171 0
 1366 0074 3CB2     		sxth	r4, r7
 177:MakiseGUI/MakiseGUI/makise_primitives.c **** 
 1367              		.loc 1 177 0
 1368 0076 4346     		mov	r3, r8
 1369 0078 3246     		mov	r2, r6
 1370 007a 5946     		mov	r1, fp
ARM GAS  /tmp/cczvO81Q.s 			page 33


 1371 007c 5046     		mov	r0, r10
 171:MakiseGUI/MakiseGUI/makise_primitives.c ****     int16_t dd;
 1372              		.loc 1 171 0
 1373 007e 0294     		str	r4, [sp, #8]
 1374              	.LVL151:
 177:MakiseGUI/MakiseGUI/makise_primitives.c **** 
 1375              		.loc 1 177 0
 1376 0080 FFF7FEFF 		bl	makise_pset
 1377              	.LVL152:
 179:MakiseGUI/MakiseGUI/makise_primitives.c ****     {
 1378              		.loc 1 179 0
 1379 0084 002C     		cmp	r4, #0
 1380 0086 40F3D080 		ble	.L111
 1381 008a 731C     		adds	r3, r6, #1
 1382 008c 0E93     		str	r3, [sp, #56]
 1383 008e 4946     		mov	r1, r9
 1384 0090 731E     		subs	r3, r6, #1
 1385 0092 0D93     		str	r3, [sp, #52]
 1386 0094 4B1C     		adds	r3, r1, #1
 1387 0096 0022     		movs	r2, #0
 1388 0098 0A93     		str	r3, [sp, #40]
 1389 009a 09F1FF33 		add	r3, r9, #-1
 1390 009e 0492     		str	r2, [sp, #16]
 1391 00a0 0993     		str	r3, [sp, #36]
 1392 00a2 5BE0     		b	.L118
 1393              	.LVL153:
 1394              	.L122:
 1395 00a4 1FFA82FB 		uxth	fp, r2
 1396 00a8 0C9A     		ldr	r2, [sp, #48]
 1397 00aa 1346     		mov	r3, r2
 1398 00ac 5B44     		add	r3, r3, fp
 1399 00ae 9BB2     		uxth	r3, r3
 1400 00b0 0693     		str	r3, [sp, #24]
 199:MakiseGUI/MakiseGUI/makise_primitives.c **** 	{
 1401              		.loc 1 199 0
 1402 00b2 059B     		ldr	r3, [sp, #20]
 1403 00b4 A2EB0B07 		sub	r7, r2, fp
 1404 00b8 0A46     		mov	r2, r1
 1405 00ba 9342     		cmp	r3, r2
 1406 00bc 0E9B     		ldr	r3, [sp, #56]
 1407 00be BFB2     		uxth	r7, r7
 1408 00c0 04EB0306 		add	r6, r4, r3
 1409 00c4 40F09280 		bne	.L116
 1410              	.L123:
 1411 00c8 0D9B     		ldr	r3, [sp, #52]
 1412 00ca 1D1B     		subs	r5, r3, r4
 1413 00cc B6B2     		uxth	r6, r6
 1414 00ce ADB2     		uxth	r5, r5
 1415              	.L117:
 1416 00d0 0A9B     		ldr	r3, [sp, #40]
 204:MakiseGUI/MakiseGUI/makise_primitives.c **** 	makise_pset(b, xc - x, yc + y, c);
 1417              		.loc 1 204 0
 1418 00d2 069A     		ldr	r2, [sp, #24]
 1419 00d4 04EB0309 		add	r9, r4, r3
 1420 00d8 1FFA89F9 		uxth	r9, r9
 1421 00dc 4946     		mov	r1, r9
 1422 00de 4346     		mov	r3, r8
ARM GAS  /tmp/cczvO81Q.s 			page 34


 1423 00e0 5046     		mov	r0, r10
 1424 00e2 FFF7FEFF 		bl	makise_pset
 1425              	.LVL154:
 1426 00e6 099B     		ldr	r3, [sp, #36]
 205:MakiseGUI/MakiseGUI/makise_primitives.c **** 	makise_pset(b, xc + x, yc - y, c);
 1427              		.loc 1 205 0
 1428 00e8 069A     		ldr	r2, [sp, #24]
 1429 00ea 1C1B     		subs	r4, r3, r4
 1430 00ec A4B2     		uxth	r4, r4
 1431 00ee 2146     		mov	r1, r4
 1432 00f0 4346     		mov	r3, r8
 1433 00f2 5046     		mov	r0, r10
 1434 00f4 FFF7FEFF 		bl	makise_pset
 1435              	.LVL155:
 206:MakiseGUI/MakiseGUI/makise_primitives.c **** 	makise_pset(b, xc - x, yc - y, c);
 1436              		.loc 1 206 0
 1437 00f8 3A46     		mov	r2, r7
 1438 00fa 4346     		mov	r3, r8
 1439 00fc 4946     		mov	r1, r9
 1440 00fe 5046     		mov	r0, r10
 1441 0100 FFF7FEFF 		bl	makise_pset
 1442              	.LVL156:
 207:MakiseGUI/MakiseGUI/makise_primitives.c **** 	makise_pset(b, xc + y, yc + x, c);
 1443              		.loc 1 207 0
 1444 0104 3A46     		mov	r2, r7
 1445 0106 2146     		mov	r1, r4
 1446 0108 4346     		mov	r3, r8
 1447 010a 5046     		mov	r0, r10
 1448 010c FFF7FEFF 		bl	makise_pset
 1449              	.LVL157:
 208:MakiseGUI/MakiseGUI/makise_primitives.c **** 	makise_pset(b, xc - y, yc + x, c);
 1450              		.loc 1 208 0
 1451 0110 089F     		ldr	r7, [sp, #32]
 1452 0112 07EB0B04 		add	r4, r7, fp
 1453 0116 A4B2     		uxth	r4, r4
 209:MakiseGUI/MakiseGUI/makise_primitives.c **** 	makise_pset(b, xc + y, yc - x, c);
 1454              		.loc 1 209 0
 1455 0118 A7EB0B07 		sub	r7, r7, fp
 208:MakiseGUI/MakiseGUI/makise_primitives.c **** 	makise_pset(b, xc - y, yc + x, c);
 1456              		.loc 1 208 0
 1457 011c 2146     		mov	r1, r4
 1458 011e 4346     		mov	r3, r8
 1459 0120 3246     		mov	r2, r6
 1460 0122 5046     		mov	r0, r10
 209:MakiseGUI/MakiseGUI/makise_primitives.c **** 	makise_pset(b, xc + y, yc - x, c);
 1461              		.loc 1 209 0
 1462 0124 BFB2     		uxth	r7, r7
 208:MakiseGUI/MakiseGUI/makise_primitives.c **** 	makise_pset(b, xc - y, yc + x, c);
 1463              		.loc 1 208 0
 1464 0126 FFF7FEFF 		bl	makise_pset
 1465              	.LVL158:
 209:MakiseGUI/MakiseGUI/makise_primitives.c **** 	makise_pset(b, xc + y, yc - x, c);
 1466              		.loc 1 209 0
 1467 012a 3246     		mov	r2, r6
 1468 012c 3946     		mov	r1, r7
 1469 012e 4346     		mov	r3, r8
 1470 0130 5046     		mov	r0, r10
ARM GAS  /tmp/cczvO81Q.s 			page 35


 1471 0132 FFF7FEFF 		bl	makise_pset
 1472              	.LVL159:
 210:MakiseGUI/MakiseGUI/makise_primitives.c **** 	makise_pset(b, xc - y, yc - x, c);
 1473              		.loc 1 210 0
 1474 0136 2146     		mov	r1, r4
 1475 0138 4346     		mov	r3, r8
 1476 013a 2A46     		mov	r2, r5
 1477 013c 5046     		mov	r0, r10
 1478 013e FFF7FEFF 		bl	makise_pset
 1479              	.LVL160:
 1480 0142 049C     		ldr	r4, [sp, #16]
 211:MakiseGUI/MakiseGUI/makise_primitives.c ****     }
 1481              		.loc 1 211 0
 1482 0144 4346     		mov	r3, r8
 1483 0146 2A46     		mov	r2, r5
 1484 0148 3946     		mov	r1, r7
 1485 014a 5046     		mov	r0, r10
 1486 014c 0134     		adds	r4, r4, #1
 1487 014e 0494     		str	r4, [sp, #16]
 1488              	.LVL161:
 1489 0150 FFF7FEFF 		bl	makise_pset
 1490              	.LVL162:
 179:MakiseGUI/MakiseGUI/makise_primitives.c ****     {
 1491              		.loc 1 179 0
 1492 0154 029B     		ldr	r3, [sp, #8]
 1493 0156 059A     		ldr	r2, [sp, #20]
 1494 0158 9342     		cmp	r3, r2
 1495 015a 66DD     		ble	.L111
 1496              	.LVL163:
 1497              	.L118:
 184:MakiseGUI/MakiseGUI/makise_primitives.c **** 	{
 1498              		.loc 1 184 0
 1499 015c 039A     		ldr	r2, [sp, #12]
 1500 015e 002A     		cmp	r2, #0
 1501 0160 0CDB     		blt	.L113
 187:MakiseGUI/MakiseGUI/makise_primitives.c **** 	    f += ddF_y;
 1502              		.loc 1 187 0
 1503 0162 0B9B     		ldr	r3, [sp, #44]
 1504 0164 0233     		adds	r3, r3, #2
 1505 0166 9BB2     		uxth	r3, r3
 188:MakiseGUI/MakiseGUI/makise_primitives.c **** 	}
 1506              		.loc 1 188 0
 1507 0168 1A44     		add	r2, r2, r3
 1508 016a 1146     		mov	r1, r2
 186:MakiseGUI/MakiseGUI/makise_primitives.c **** 	    ddF_y += 2;
 1509              		.loc 1 186 0
 1510 016c 029A     		ldr	r2, [sp, #8]
 187:MakiseGUI/MakiseGUI/makise_primitives.c **** 	    f += ddF_y;
 1511              		.loc 1 187 0
 1512 016e 1BB2     		sxth	r3, r3
 186:MakiseGUI/MakiseGUI/makise_primitives.c **** 	    ddF_y += 2;
 1513              		.loc 1 186 0
 1514 0170 013A     		subs	r2, r2, #1
 188:MakiseGUI/MakiseGUI/makise_primitives.c **** 	}
 1515              		.loc 1 188 0
 1516 0172 09B2     		sxth	r1, r1
 187:MakiseGUI/MakiseGUI/makise_primitives.c **** 	    f += ddF_y;
ARM GAS  /tmp/cczvO81Q.s 			page 36


 1517              		.loc 1 187 0
 1518 0174 0B93     		str	r3, [sp, #44]
 1519              	.LVL164:
 186:MakiseGUI/MakiseGUI/makise_primitives.c **** 	    ddF_y += 2;
 1520              		.loc 1 186 0
 1521 0176 13B2     		sxth	r3, r2
 188:MakiseGUI/MakiseGUI/makise_primitives.c **** 	}
 1522              		.loc 1 188 0
 1523 0178 0391     		str	r1, [sp, #12]
 1524              	.LVL165:
 186:MakiseGUI/MakiseGUI/makise_primitives.c **** 	    ddF_y += 2;
 1525              		.loc 1 186 0
 1526 017a 0293     		str	r3, [sp, #8]
 1527              	.LVL166:
 1528              	.L113:
 1529 017c BDF81040 		ldrh	r4, [sp, #16]
 192:MakiseGUI/MakiseGUI/makise_primitives.c **** 
 1530              		.loc 1 192 0
 1531 0180 039B     		ldr	r3, [sp, #12]
 194:MakiseGUI/MakiseGUI/makise_primitives.c **** 	{
 1532              		.loc 1 194 0
 1533 0182 0799     		ldr	r1, [sp, #28]
 192:MakiseGUI/MakiseGUI/makise_primitives.c **** 
 1534              		.loc 1 192 0
 1535 0184 03EB4403 		add	r3, r3, r4, lsl #1
 1536 0188 0333     		adds	r3, r3, #3
 1537 018a 621C     		adds	r2, r4, #1
 1538 018c 1BB2     		sxth	r3, r3
 1539 018e 0393     		str	r3, [sp, #12]
 1540              	.LVL167:
 1541 0190 13B2     		sxth	r3, r2
 194:MakiseGUI/MakiseGUI/makise_primitives.c **** 	{
 1542              		.loc 1 194 0
 1543 0192 029A     		ldr	r2, [sp, #8]
 1544 0194 0593     		str	r3, [sp, #20]
 1545              	.LVL168:
 1546 0196 8A42     		cmp	r2, r1
 1547 0198 84D0     		beq	.L122
 196:MakiseGUI/MakiseGUI/makise_primitives.c **** 	    makise_d_line(b, xc - x + 1, yc - y, xc + x - 1, yc - y, fill_c);
 1548              		.loc 1 196 0
 1549 019a 0C9F     		ldr	r7, [sp, #48]
 1550 019c BDF808B0 		ldrh	fp, [sp, #8]
 1551 01a0 089A     		ldr	r2, [sp, #32]
 1552 01a2 3B46     		mov	r3, r7
 1553 01a4 5B44     		add	r3, r3, fp
 1554 01a6 9BB2     		uxth	r3, r3
 1555 01a8 0693     		str	r3, [sp, #24]
 1556 01aa 151B     		subs	r5, r2, r4
 1557 01ac 1619     		adds	r6, r2, r4
 1558 01ae 1AB2     		sxth	r2, r3
 1559 01b0 1B9B     		ldr	r3, [sp, #108]
 1560 01b2 36B2     		sxth	r6, r6
 1561 01b4 2DB2     		sxth	r5, r5
 197:MakiseGUI/MakiseGUI/makise_primitives.c **** 	}
 1562              		.loc 1 197 0
 1563 01b6 A7EB0B07 		sub	r7, r7, fp
 196:MakiseGUI/MakiseGUI/makise_primitives.c **** 	    makise_d_line(b, xc - x + 1, yc - y, xc + x - 1, yc - y, fill_c);
ARM GAS  /tmp/cczvO81Q.s 			page 37


 1564              		.loc 1 196 0
 1565 01ba 8DE80C00 		stm	sp, {r2, r3}
 1566 01be 2946     		mov	r1, r5
 1567 01c0 3346     		mov	r3, r6
 1568 01c2 5046     		mov	r0, r10
 197:MakiseGUI/MakiseGUI/makise_primitives.c **** 	}
 1569              		.loc 1 197 0
 1570 01c4 BFB2     		uxth	r7, r7
 196:MakiseGUI/MakiseGUI/makise_primitives.c **** 	    makise_d_line(b, xc - x + 1, yc - y, xc + x - 1, yc - y, fill_c);
 1571              		.loc 1 196 0
 1572 01c6 FFF7FEFF 		bl	makise_d_line
 1573              	.LVL169:
 197:MakiseGUI/MakiseGUI/makise_primitives.c **** 	}
 1574              		.loc 1 197 0
 1575 01ca 3AB2     		sxth	r2, r7
 1576 01cc 1B98     		ldr	r0, [sp, #108]
 1577 01ce 0190     		str	r0, [sp, #4]
 1578 01d0 3346     		mov	r3, r6
 1579 01d2 0092     		str	r2, [sp]
 1580 01d4 2946     		mov	r1, r5
 1581 01d6 5046     		mov	r0, r10
 1582 01d8 FFF7FEFF 		bl	makise_d_line
 1583              	.LVL170:
 199:MakiseGUI/MakiseGUI/makise_primitives.c **** 	{
 1584              		.loc 1 199 0
 1585 01dc 059B     		ldr	r3, [sp, #20]
 1586 01de 079A     		ldr	r2, [sp, #28]
 1587 01e0 9342     		cmp	r3, r2
 1588 01e2 0E9B     		ldr	r3, [sp, #56]
 1589 01e4 04EB0306 		add	r6, r4, r3
 1590 01e8 3FF46EAF 		beq	.L123
 1591              	.L116:
 201:MakiseGUI/MakiseGUI/makise_primitives.c **** 	    makise_d_line(b, xc - y + 1, yc - x, xc + y - 1, yc - x, fill_c);
 1592              		.loc 1 201 0
 1593 01ec 0A9B     		ldr	r3, [sp, #40]
 1594 01ee 1B99     		ldr	r1, [sp, #108]
 1595 01f0 0191     		str	r1, [sp, #4]
 1596 01f2 A3EB0B09 		sub	r9, r3, fp
 1597 01f6 099B     		ldr	r3, [sp, #36]
 1598 01f8 B6B2     		uxth	r6, r6
 1599 01fa 32B2     		sxth	r2, r6
 1600 01fc 0FFA89F9 		sxth	r9, r9
 1601 0200 5B44     		add	r3, fp, r3
 1602 0202 1BB2     		sxth	r3, r3
 1603 0204 0092     		str	r2, [sp]
 1604 0206 4946     		mov	r1, r9
 1605 0208 5046     		mov	r0, r10
 1606 020a 0F93     		str	r3, [sp, #60]
 1607 020c FFF7FEFF 		bl	makise_d_line
 1608              	.LVL171:
 1609 0210 0D9A     		ldr	r2, [sp, #52]
 202:MakiseGUI/MakiseGUI/makise_primitives.c **** 	}
 1610              		.loc 1 202 0
 1611 0212 1B98     		ldr	r0, [sp, #108]
 1612 0214 0190     		str	r0, [sp, #4]
 1613 0216 151B     		subs	r5, r2, r4
 1614 0218 ADB2     		uxth	r5, r5
ARM GAS  /tmp/cczvO81Q.s 			page 38


 1615 021a 2AB2     		sxth	r2, r5
 1616 021c 0F9B     		ldr	r3, [sp, #60]
 1617 021e 0092     		str	r2, [sp]
 1618 0220 4946     		mov	r1, r9
 1619 0222 5046     		mov	r0, r10
 1620 0224 FFF7FEFF 		bl	makise_d_line
 1621              	.LVL172:
 1622 0228 52E7     		b	.L117
 1623              	.LVL173:
 1624              	.L111:
 214:MakiseGUI/MakiseGUI/makise_primitives.c **** void makise_d_line(MakiseBuffer* b, int16_t x0, int16_t y0,
 1625              		.loc 1 214 0
 1626 022a 11B0     		add	sp, sp, #68
 1627              	.LCFI24:
 1628              		.cfi_def_cfa_offset 36
 1629              		@ sp needed
 1630 022c BDE8F08F 		pop	{r4, r5, r6, r7, r8, r9, r10, fp, pc}
 1631              		.cfi_endproc
 1632              	.LFE131:
 1634              		.section	.text.makise_d_polyline,"ax",%progbits
 1635              		.align	1
 1636              		.p2align 2,,3
 1637              		.global	makise_d_polyline
 1638              		.syntax unified
 1639              		.thumb
 1640              		.thumb_func
 1641              		.fpu fpv4-sp-d16
 1643              	makise_d_polyline:
 1644              	.LFB133:
 284:MakiseGUI/MakiseGUI/makise_primitives.c **** void makise_d_polyline(MakiseBuffer*b, MakisePoint* points, uint32_t count, uint32_t c)
 285:MakiseGUI/MakiseGUI/makise_primitives.c **** {
 1645              		.loc 1 285 0
 1646              		.cfi_startproc
 1647              		@ args = 0, pretend = 0, frame = 40
 1648              		@ frame_needed = 0, uses_anonymous_args = 0
 1649              	.LVL174:
 286:MakiseGUI/MakiseGUI/makise_primitives.c ****     if(count == 0 || points == 0)
 1650              		.loc 1 286 0
 1651 0000 012A     		cmp	r2, #1
 1652 0002 40F20881 		bls	.L168
 1653              		.loc 1 286 0 is_stmt 0 discriminator 1
 1654 0006 0029     		cmp	r1, #0
 1655 0008 00F00581 		beq	.L168
 285:MakiseGUI/MakiseGUI/makise_primitives.c ****     if(count == 0 || points == 0)
 1656              		.loc 1 285 0 is_stmt 1
 1657 000c 2DE9F04F 		push	{r4, r5, r6, r7, r8, r9, r10, fp, lr}
 1658              	.LCFI25:
 1659              		.cfi_def_cfa_offset 36
 1660              		.cfi_offset 4, -36
 1661              		.cfi_offset 5, -32
 1662              		.cfi_offset 6, -28
 1663              		.cfi_offset 7, -24
 1664              		.cfi_offset 8, -20
 1665              		.cfi_offset 9, -16
 1666              		.cfi_offset 10, -12
 1667              		.cfi_offset 11, -8
 1668              		.cfi_offset 14, -4
ARM GAS  /tmp/cczvO81Q.s 			page 39


 1669 0010 8BB0     		sub	sp, sp, #44
 1670              	.LCFI26:
 1671              		.cfi_def_cfa_offset 80
 1672 0012 8346     		mov	fp, r0
 1673 0014 0992     		str	r2, [sp, #36]
 1674              		.loc 1 286 0
 1675 0016 0122     		movs	r2, #1
 1676              	.LVL175:
 1677 0018 0691     		str	r1, [sp, #24]
 1678 001a 0892     		str	r2, [sp, #32]
 1679              	.LBB20:
 1680              	.LBB21:
 1681              	.LBB22:
 1682              	.LBB23:
 1683              	.LBB24:
 1684              	.LBB25:
 245:MakiseGUI/MakiseGUI/makise_primitives.c **** 	{
 1685              		.loc 1 245 0
 1686 001c 9A46     		mov	r10, r3
 1687              	.LVL176:
 1688              	.L151:
 1689              	.LBE25:
 1690              	.LBE24:
 1691              	.LBE23:
 1692              	.LBE22:
 287:MakiseGUI/MakiseGUI/makise_primitives.c **** 	return;
 288:MakiseGUI/MakiseGUI/makise_primitives.c **** 
 289:MakiseGUI/MakiseGUI/makise_primitives.c ****     uint32_t i = 0;
 290:MakiseGUI/MakiseGUI/makise_primitives.c **** 
 291:MakiseGUI/MakiseGUI/makise_primitives.c ****     for(i = 1; i < count; i++)
 292:MakiseGUI/MakiseGUI/makise_primitives.c ****     {
 293:MakiseGUI/MakiseGUI/makise_primitives.c **** 	makise_d_line(b, points[i - 1].x, points[i - 1].y, points[i].x, points[i].y, c);
 1693              		.loc 1 293 0
 1694 001e 069A     		ldr	r2, [sp, #24]
 1695 0020 B2F90450 		ldrsh	r5, [r2, #4]
 1696 0024 B2F90040 		ldrsh	r4, [r2]
 1697              	.LVL177:
 1698              	.LBB33:
 1699              	.LBB30:
 218:MakiseGUI/MakiseGUI/makise_primitives.c **** 	return;
 1700              		.loc 1 218 0
 1701 0028 002D     		cmp	r5, #0
 1702 002a C0F2E780 		blt	.L171
 1703              	.L127:
 220:MakiseGUI/MakiseGUI/makise_primitives.c **** 	return;
 1704              		.loc 1 220 0
 1705 002e BBF806E0 		ldrh	lr, [fp, #6]
 1706 0032 7545     		cmp	r5, lr
 1707 0034 02DB     		blt	.L129
 1708 0036 A645     		cmp	lr, r4
 1709 0038 40F38D80 		ble	.L128
 1710              	.L129:
 1711              	.LBE30:
 1712              	.LBE33:
 1713              		.loc 1 293 0
 1714 003c 069A     		ldr	r2, [sp, #24]
 1715              	.LVL178:
ARM GAS  /tmp/cczvO81Q.s 			page 40


 1716 003e B2F90600 		ldrsh	r0, [r2, #6]
 1717 0042 B2F90290 		ldrsh	r9, [r2, #2]
 1718              	.LBB34:
 1719              	.LBB31:
 222:MakiseGUI/MakiseGUI/makise_primitives.c **** 	return;
 1720              		.loc 1 222 0
 1721 0046 0028     		cmp	r0, #0
 1722 0048 C0F2DC80 		blt	.L172
 1723              	.L130:
 224:MakiseGUI/MakiseGUI/makise_primitives.c **** 	return;
 1724              		.loc 1 224 0
 1725 004c BBF80430 		ldrh	r3, [fp, #4]
 1726 0050 9842     		cmp	r0, r3
 1727 0052 01DB     		blt	.L131
 1728 0054 4B45     		cmp	r3, r9
 1729 0056 7EDD     		ble	.L128
 1730              	.L131:
 1731              	.LVL179:
 233:MakiseGUI/MakiseGUI/makise_primitives.c ****     y1 =  y1 < b->height-1 ? y1 : b->height - 1;
 1732              		.loc 1 233 0
 1733 0058 013B     		subs	r3, r3, #1
 1734 005a 29EAE979 		bic	r9, r9, r9, asr #31
 1735              	.LVL180:
 234:MakiseGUI/MakiseGUI/makise_primitives.c ****     
 1736              		.loc 1 234 0
 1737 005e 20EAE070 		bic	r0, r0, r0, asr #31
 1738              	.LVL181:
 233:MakiseGUI/MakiseGUI/makise_primitives.c ****     y1 =  y1 < b->height-1 ? y1 : b->height - 1;
 1739              		.loc 1 233 0
 1740 0062 9945     		cmp	r9, r3
 1741 0064 A8BF     		it	ge
 1742 0066 9946     		movge	r9, r3
 234:MakiseGUI/MakiseGUI/makise_primitives.c ****     
 1743              		.loc 1 234 0
 1744 0068 9842     		cmp	r0, r3
 1745 006a A8BF     		it	ge
 1746 006c 1846     		movge	r0, r3
 238:MakiseGUI/MakiseGUI/makise_primitives.c ****     
 1747              		.loc 1 238 0
 1748 006e A9EB0006 		sub	r6, r9, r0
 231:MakiseGUI/MakiseGUI/makise_primitives.c ****     x1 =  x1 < b->width-1 ? x1 : b->width - 1;
 1749              		.loc 1 231 0
 1750 0072 0EF1FF33 		add	r3, lr, #-1
 238:MakiseGUI/MakiseGUI/makise_primitives.c ****     
 1751              		.loc 1 238 0
 1752 0076 002E     		cmp	r6, #0
 231:MakiseGUI/MakiseGUI/makise_primitives.c ****     x1 =  x1 < b->width-1 ? x1 : b->width - 1;
 1753              		.loc 1 231 0
 1754 0078 24EAE474 		bic	r4, r4, r4, asr #31
 1755              	.LVL182:
 238:MakiseGUI/MakiseGUI/makise_primitives.c ****     
 1756              		.loc 1 238 0
 1757 007c B8BF     		it	lt
 1758 007e 7642     		rsblt	r6, r6, #0
 232:MakiseGUI/MakiseGUI/makise_primitives.c ****     y0 =  y0 < b->height-1 ? y0 : b->height - 1;
 1759              		.loc 1 232 0
 1760 0080 25EAE575 		bic	r5, r5, r5, asr #31
ARM GAS  /tmp/cczvO81Q.s 			page 41


 1761              	.LVL183:
 231:MakiseGUI/MakiseGUI/makise_primitives.c ****     x1 =  x1 < b->width-1 ? x1 : b->width - 1;
 1762              		.loc 1 231 0
 1763 0084 9C42     		cmp	r4, r3
 1764 0086 A8BF     		it	ge
 1765 0088 1C46     		movge	r4, r3
 1766              	.LVL184:
 238:MakiseGUI/MakiseGUI/makise_primitives.c ****     
 1767              		.loc 1 238 0
 1768 008a 36B2     		sxth	r6, r6
 232:MakiseGUI/MakiseGUI/makise_primitives.c ****     y0 =  y0 < b->height-1 ? y0 : b->height - 1;
 1769              		.loc 1 232 0
 1770 008c 9D42     		cmp	r5, r3
 1771 008e A8BF     		it	ge
 1772 0090 1D46     		movge	r5, r3
 1773              	.LVL185:
 240:MakiseGUI/MakiseGUI/makise_primitives.c ****     {
 1774              		.loc 1 240 0
 1775 0092 002E     		cmp	r6, #0
 1776 0094 6CD1     		bne	.L132
 1777              	.LVL186:
 1778              	.LBB28:
 1779              	.LBB26:
 245:MakiseGUI/MakiseGUI/makise_primitives.c **** 	{
 1780              		.loc 1 245 0
 1781 0096 BBF80820 		ldrh	r2, [fp, #8]
 1782 009a 2023     		movs	r3, #32
 1783 009c 93FBF2F3 		sdiv	r3, r3, r2
 1784 00a0 002B     		cmp	r3, #0
 1785 00a2 00F0B680 		beq	.L152
 1786 00a6 9BF80A80 		ldrb	r8, [fp, #10]	@ zero_extendqisi2
 1787 00aa 3746     		mov	r7, r6
 1788 00ac 3146     		mov	r1, r6
 1789 00ae 08EA0A08 		and	r8, r8, r10
 1790              	.LVL187:
 1791              	.L134:
 1792 00b2 0131     		adds	r1, r1, #1
 1793              	.LVL188:
 247:MakiseGUI/MakiseGUI/makise_primitives.c **** 	}
 1794              		.loc 1 247 0
 1795 00b4 08FA06FC 		lsl	ip, r8, r6
 245:MakiseGUI/MakiseGUI/makise_primitives.c **** 	{
 1796              		.loc 1 245 0
 1797 00b8 9942     		cmp	r1, r3
 247:MakiseGUI/MakiseGUI/makise_primitives.c **** 	}
 1798              		.loc 1 247 0
 1799 00ba 47EA0C07 		orr	r7, r7, ip
 1800              	.LVL189:
 1801 00be 1644     		add	r6, r6, r2
 245:MakiseGUI/MakiseGUI/makise_primitives.c **** 	{
 1802              		.loc 1 245 0
 1803 00c0 F7D1     		bne	.L134
 1804              	.LVL190:
 1805              	.L133:
 1806              	.LBE26:
 251:MakiseGUI/MakiseGUI/makise_primitives.c **** 	    makise_pset(b, j, y1, c);
 1807              		.loc 1 251 0
ARM GAS  /tmp/cczvO81Q.s 			page 42


 1808 00c2 B4FBF3F1 		udiv	r1, r4, r3
 1809 00c6 03FB1141 		mls	r1, r3, r1, r4
 1810 00ca C9B1     		cbz	r1, .L138
 1811 00cc AC42     		cmp	r4, r5
 1812 00ce 34D8     		bhi	.L140
 1813 00d0 86B2     		uxth	r6, r0
 1814 00d2 01E0     		b	.L139
 1815              	.LVL191:
 1816              	.L137:
 1817 00d4 AC42     		cmp	r4, r5
 1818 00d6 30D8     		bhi	.L140
 1819              	.L139:
 252:MakiseGUI/MakiseGUI/makise_primitives.c **** 	    j++;
 1820              		.loc 1 252 0
 1821 00d8 A1B2     		uxth	r1, r4
 1822 00da 5346     		mov	r3, r10
 1823 00dc 3246     		mov	r2, r6
 253:MakiseGUI/MakiseGUI/makise_primitives.c **** 	}
 1824              		.loc 1 253 0
 1825 00de 0134     		adds	r4, r4, #1
 252:MakiseGUI/MakiseGUI/makise_primitives.c **** 	    j++;
 1826              		.loc 1 252 0
 1827 00e0 5846     		mov	r0, fp
 1828 00e2 FFF7FEFF 		bl	makise_pset
 1829              	.LVL192:
 251:MakiseGUI/MakiseGUI/makise_primitives.c **** 	    makise_pset(b, j, y1, c);
 1830              		.loc 1 251 0
 1831 00e6 BBF80820 		ldrh	r2, [fp, #8]
 1832 00ea 2023     		movs	r3, #32
 1833 00ec 93FBF2F3 		sdiv	r3, r3, r2
 1834 00f0 B4FBF3F1 		udiv	r1, r4, r3
 1835 00f4 03FB1141 		mls	r1, r3, r1, r4
 1836 00f8 0029     		cmp	r1, #0
 1837 00fa EBD1     		bne	.L137
 1838 00fc BBF806E0 		ldrh	lr, [fp, #6]
 1839              	.LVL193:
 1840              	.L138:
 257:MakiseGUI/MakiseGUI/makise_primitives.c **** 	while(j <= x1 && x1 - j >= 32/b->pixeldepth)
 1841              		.loc 1 257 0
 1842 0100 0EFB0941 		mla	r1, lr, r9, r4
 1843 0104 02FB01F2 		mul	r2, r2, r1
 258:MakiseGUI/MakiseGUI/makise_primitives.c **** 	{
 1844              		.loc 1 258 0
 1845 0108 AC42     		cmp	r4, r5
 257:MakiseGUI/MakiseGUI/makise_primitives.c **** 	while(j <= x1 && x1 - j >= 32/b->pixeldepth)
 1846              		.loc 1 257 0
 1847 010a 4FEA5211 		lsr	r1, r2, #5
 1848              	.LVL194:
 258:MakiseGUI/MakiseGUI/makise_primitives.c **** 	{
 1849              		.loc 1 258 0
 1850 010e 14D8     		bhi	.L140
 1851 0110 2A1B     		subs	r2, r5, r4
 1852 0112 9A42     		cmp	r2, r3
 1853 0114 11D3     		bcc	.L140
 1854 0116 DBF80C00 		ldr	r0, [fp, #12]
 1855 011a 1A19     		adds	r2, r3, r4
 1856 011c AE1A     		subs	r6, r5, r2
ARM GAS  /tmp/cczvO81Q.s 			page 43


 1857 011e 00EB8101 		add	r1, r0, r1, lsl #2
 1858              	.LVL195:
 1859 0122 03E0     		b	.L141
 1860              	.LVL196:
 1861              	.L173:
 1862 0124 9E42     		cmp	r6, r3
 1863 0126 08D3     		bcc	.L140
 1864 0128 0646     		mov	r6, r0
 1865 012a 1A44     		add	r2, r2, r3
 1866              	.LVL197:
 1867              	.L141:
 1868 012c AA42     		cmp	r2, r5
 260:MakiseGUI/MakiseGUI/makise_primitives.c **** 	    kb += 1;
 1869              		.loc 1 260 0
 1870 012e 41F8047B 		str	r7, [r1], #4
 1871              	.LVL198:
 262:MakiseGUI/MakiseGUI/makise_primitives.c **** 	}
 1872              		.loc 1 262 0
 1873 0132 1446     		mov	r4, r2
 1874 0134 A6EB0300 		sub	r0, r6, r3
 258:MakiseGUI/MakiseGUI/makise_primitives.c **** 	{
 1875              		.loc 1 258 0
 1876 0138 F4D9     		bls	.L173
 1877              	.LVL199:
 1878              	.L140:
 264:MakiseGUI/MakiseGUI/makise_primitives.c **** 	while (j <= x1) {
 1879              		.loc 1 264 0
 1880 013a 013C     		subs	r4, r4, #1
 1881              	.LVL200:
 265:MakiseGUI/MakiseGUI/makise_primitives.c **** 	    makise_pset(b, j, y0, c);
 1882              		.loc 1 265 0
 1883 013c AC42     		cmp	r4, r5
 1884 013e 0AD8     		bhi	.L128
 1885 0140 1FFA89F9 		uxth	r9, r9
 1886              	.L142:
 266:MakiseGUI/MakiseGUI/makise_primitives.c **** 	    j++;
 1887              		.loc 1 266 0
 1888 0144 A1B2     		uxth	r1, r4
 1889 0146 5346     		mov	r3, r10
 1890 0148 4A46     		mov	r2, r9
 1891 014a 5846     		mov	r0, fp
 267:MakiseGUI/MakiseGUI/makise_primitives.c **** 	}
 1892              		.loc 1 267 0
 1893 014c 0134     		adds	r4, r4, #1
 1894              	.LVL201:
 266:MakiseGUI/MakiseGUI/makise_primitives.c **** 	    j++;
 1895              		.loc 1 266 0
 1896 014e FFF7FEFF 		bl	makise_pset
 1897              	.LVL202:
 265:MakiseGUI/MakiseGUI/makise_primitives.c **** 	    makise_pset(b, j, y0, c);
 1898              		.loc 1 265 0
 1899 0152 AC42     		cmp	r4, r5
 1900 0154 F6D9     		bls	.L142
 1901              	.LVL203:
 1902              	.L128:
 1903 0156 069A     		ldr	r2, [sp, #24]
 1904              	.LBE28:
ARM GAS  /tmp/cczvO81Q.s 			page 44


 1905              	.LBE31:
 1906              	.LBE34:
 291:MakiseGUI/MakiseGUI/makise_primitives.c ****     {
 1907              		.loc 1 291 0
 1908 0158 089B     		ldr	r3, [sp, #32]
 1909 015a 0432     		adds	r2, r2, #4
 1910 015c 0692     		str	r2, [sp, #24]
 1911 015e 099A     		ldr	r2, [sp, #36]
 1912 0160 0133     		adds	r3, r3, #1
 1913 0162 9A42     		cmp	r2, r3
 1914 0164 0893     		str	r3, [sp, #32]
 1915              	.LVL204:
 1916 0166 7FF45AAF 		bne	.L151
 1917              	.LBE21:
 1918              	.LBE20:
 294:MakiseGUI/MakiseGUI/makise_primitives.c ****     }
 295:MakiseGUI/MakiseGUI/makise_primitives.c **** }
 1919              		.loc 1 295 0
 1920 016a 0BB0     		add	sp, sp, #44
 1921              	.LCFI27:
 1922              		.cfi_remember_state
 1923              		.cfi_def_cfa_offset 36
 1924              		@ sp needed
 1925 016c BDE8F08F 		pop	{r4, r5, r6, r7, r8, r9, r10, fp, pc}
 1926              	.LVL205:
 1927              	.L132:
 1928              	.LCFI28:
 1929              		.cfi_restore_state
 1930              	.LBB37:
 1931              	.LBB36:
 1932              	.LBB35:
 1933              	.LBB32:
 272:MakiseGUI/MakiseGUI/makise_primitives.c ****     int sy = y0<y1 ? 1 : -1; 
 1934              		.loc 1 272 0
 1935 0170 2B1B     		subs	r3, r5, r4
 234:MakiseGUI/MakiseGUI/makise_primitives.c ****     
 1936              		.loc 1 234 0
 1937 0172 02B2     		sxth	r2, r0
 272:MakiseGUI/MakiseGUI/makise_primitives.c ****     int sy = y0<y1 ? 1 : -1; 
 1938              		.loc 1 272 0
 1939 0174 002B     		cmp	r3, #0
 233:MakiseGUI/MakiseGUI/makise_primitives.c ****     y1 =  y1 < b->height-1 ? y1 : b->height - 1;
 1940              		.loc 1 233 0
 1941 0176 0FFA89F9 		sxth	r9, r9
 273:MakiseGUI/MakiseGUI/makise_primitives.c ****     int err = (dx>dy ? dx : -dy)/2, e2;
 1942              		.loc 1 273 0
 1943 017a 4FF6FF70 		movw	r0, #65535
 1944              	.LVL206:
 272:MakiseGUI/MakiseGUI/makise_primitives.c ****     int sy = y0<y1 ? 1 : -1; 
 1945              		.loc 1 272 0
 1946 017e B8BF     		it	lt
 1947 0180 5B42     		rsblt	r3, r3, #0
 232:MakiseGUI/MakiseGUI/makise_primitives.c ****     y0 =  y0 < b->height-1 ? y0 : b->height - 1;
 1948              		.loc 1 232 0
 1949 0182 29B2     		sxth	r1, r5
 273:MakiseGUI/MakiseGUI/makise_primitives.c ****     int err = (dx>dy ? dx : -dy)/2, e2;
 1950              		.loc 1 273 0
ARM GAS  /tmp/cczvO81Q.s 			page 45


 1951 0184 9145     		cmp	r9, r2
 1952 0186 B8BF     		it	lt
 1953 0188 0120     		movlt	r0, #1
 234:MakiseGUI/MakiseGUI/makise_primitives.c ****     
 1954              		.loc 1 234 0
 1955 018a 0792     		str	r2, [sp, #28]
 231:MakiseGUI/MakiseGUI/makise_primitives.c ****     x1 =  x1 < b->width-1 ? x1 : b->width - 1;
 1956              		.loc 1 231 0
 1957 018c 24B2     		sxth	r4, r4
 272:MakiseGUI/MakiseGUI/makise_primitives.c ****     int sy = y0<y1 ? 1 : -1; 
 1958              		.loc 1 272 0
 1959 018e 4FF6FF72 		movw	r2, #65535
 1960              	.LVL207:
 1961 0192 8C42     		cmp	r4, r1
 1962 0194 B8BF     		it	lt
 1963 0196 0122     		movlt	r2, #1
 274:MakiseGUI/MakiseGUI/makise_primitives.c ****  
 1964              		.loc 1 274 0
 1965 0198 B342     		cmp	r3, r6
 272:MakiseGUI/MakiseGUI/makise_primitives.c ****     int sy = y0<y1 ? 1 : -1; 
 1966              		.loc 1 272 0
 1967 019a 0593     		str	r3, [sp, #20]
 1968              	.LVL208:
 232:MakiseGUI/MakiseGUI/makise_primitives.c ****     y0 =  y0 < b->height-1 ? y0 : b->height - 1;
 1969              		.loc 1 232 0
 1970 019c 0191     		str	r1, [sp, #4]
 273:MakiseGUI/MakiseGUI/makise_primitives.c ****     int err = (dx>dy ? dx : -dy)/2, e2;
 1971              		.loc 1 273 0
 1972 019e 0390     		str	r0, [sp, #12]
 272:MakiseGUI/MakiseGUI/makise_primitives.c ****     int sy = y0<y1 ? 1 : -1; 
 1973              		.loc 1 272 0
 1974 01a0 0292     		str	r2, [sp, #8]
 274:MakiseGUI/MakiseGUI/makise_primitives.c ****  
 1975              		.loc 1 274 0
 1976 01a2 34DC     		bgt	.L145
 1977 01a4 06EBD675 		add	r5, r6, r6, lsr #31
 1978              	.LVL209:
 1979 01a8 6D10     		asrs	r5, r5, #1
 1980 01aa 6D42     		negs	r5, r5
 1981              	.L147:
 280:MakiseGUI/MakiseGUI/makise_primitives.c **** 	if (e2 < dy) { err += dx; y0 += sy; }
 1982              		.loc 1 280 0
 1983 01ac 5B42     		negs	r3, r3
 1984              	.LVL210:
 1985 01ae A7B2     		uxth	r7, r4
 1986 01b0 1FFA89F8 		uxth	r8, r9
 1987 01b4 0493     		str	r3, [sp, #16]
 1988              	.LVL211:
 1989              	.L146:
 277:MakiseGUI/MakiseGUI/makise_primitives.c **** 	if (x0==x1 && y0==y1) break;
 1990              		.loc 1 277 0
 1991 01b6 5346     		mov	r3, r10
 1992 01b8 4246     		mov	r2, r8
 1993 01ba 3946     		mov	r1, r7
 1994 01bc 5846     		mov	r0, fp
 1995 01be FFF7FEFF 		bl	makise_pset
 1996              	.LVL212:
ARM GAS  /tmp/cczvO81Q.s 			page 46


 278:MakiseGUI/MakiseGUI/makise_primitives.c **** 	e2 = err;
 1997              		.loc 1 278 0
 1998 01c2 019A     		ldr	r2, [sp, #4]
 280:MakiseGUI/MakiseGUI/makise_primitives.c **** 	if (e2 < dy) { err += dx; y0 += sy; }
 1999              		.loc 1 280 0
 2000 01c4 029B     		ldr	r3, [sp, #8]
 278:MakiseGUI/MakiseGUI/makise_primitives.c **** 	e2 = err;
 2001              		.loc 1 278 0
 2002 01c6 A242     		cmp	r2, r4
 280:MakiseGUI/MakiseGUI/makise_primitives.c **** 	if (e2 < dy) { err += dx; y0 += sy; }
 2003              		.loc 1 280 0
 2004 01c8 3B44     		add	r3, r7, r3
 278:MakiseGUI/MakiseGUI/makise_primitives.c **** 	e2 = err;
 2005              		.loc 1 278 0
 2006 01ca 13D0     		beq	.L174
 2007              	.L148:
 280:MakiseGUI/MakiseGUI/makise_primitives.c **** 	if (e2 < dy) { err += dx; y0 += sy; }
 2008              		.loc 1 280 0
 2009 01cc 049A     		ldr	r2, [sp, #16]
 2010 01ce AA42     		cmp	r2, r5
 2011 01d0 B8BF     		it	lt
 2012 01d2 1CB2     		sxthlt	r4, r3
 2013              	.LVL213:
 281:MakiseGUI/MakiseGUI/makise_primitives.c ****     }
 2014              		.loc 1 281 0
 2015 01d4 039A     		ldr	r2, [sp, #12]
 2016 01d6 BABF     		itte	lt
 2017 01d8 A7B2     		uxthlt	r7, r4
 280:MakiseGUI/MakiseGUI/makise_primitives.c **** 	if (e2 < dy) { err += dx; y0 += sy; }
 2018              		.loc 1 280 0
 2019 01da AB1B     		sublt	r3, r5, r6
 2020              	.LVL214:
 2021 01dc 2B46     		movge	r3, r5
 2022              	.LVL215:
 281:MakiseGUI/MakiseGUI/makise_primitives.c ****     }
 2023              		.loc 1 281 0
 2024 01de AE42     		cmp	r6, r5
 2025 01e0 4244     		add	r2, r8, r2
 2026 01e2 05DD     		ble	.L150
 2027 01e4 0FFA82F9 		sxth	r9, r2
 2028              	.LVL216:
 2029 01e8 059A     		ldr	r2, [sp, #20]
 2030 01ea 1FFA89F8 		uxth	r8, r9
 2031 01ee 1344     		add	r3, r3, r2
 2032              	.LVL217:
 2033              	.L150:
 273:MakiseGUI/MakiseGUI/makise_primitives.c ****     int err = (dx>dy ? dx : -dy)/2, e2;
 2034              		.loc 1 273 0
 2035 01f0 1D46     		mov	r5, r3
 2036              	.LVL218:
 2037 01f2 E0E7     		b	.L146
 2038              	.LVL219:
 2039              	.L174:
 278:MakiseGUI/MakiseGUI/makise_primitives.c **** 	e2 = err;
 2040              		.loc 1 278 0
 2041 01f4 079A     		ldr	r2, [sp, #28]
 2042 01f6 4A45     		cmp	r2, r9
ARM GAS  /tmp/cczvO81Q.s 			page 47


 2043 01f8 E8D1     		bne	.L148
 2044 01fa ACE7     		b	.L128
 2045              	.LVL220:
 2046              	.L171:
 218:MakiseGUI/MakiseGUI/makise_primitives.c **** 	return;
 2047              		.loc 1 218 0
 2048 01fc 002C     		cmp	r4, #0
 2049 01fe BFF616AF 		bge	.L127
 2050 0202 A8E7     		b	.L128
 2051              	.LVL221:
 2052              	.L172:
 222:MakiseGUI/MakiseGUI/makise_primitives.c **** 	return;
 2053              		.loc 1 222 0
 2054 0204 B9F1000F 		cmp	r9, #0
 2055 0208 BFF620AF 		bge	.L130
 2056 020c A3E7     		b	.L128
 2057              	.LVL222:
 2058              	.L145:
 274:MakiseGUI/MakiseGUI/makise_primitives.c ****  
 2059              		.loc 1 274 0
 2060 020e 5D10     		asrs	r5, r3, #1
 2061              	.LVL223:
 2062 0210 CCE7     		b	.L147
 2063              	.LVL224:
 2064              	.L152:
 2065              	.LBB29:
 2066              	.LBB27:
 245:MakiseGUI/MakiseGUI/makise_primitives.c **** 	{
 2067              		.loc 1 245 0
 2068 0212 1F46     		mov	r7, r3
 2069 0214 55E7     		b	.L133
 2070              	.LVL225:
 2071              	.L168:
 2072              	.LCFI29:
 2073              		.cfi_def_cfa_offset 0
 2074              		.cfi_restore 4
 2075              		.cfi_restore 5
 2076              		.cfi_restore 6
 2077              		.cfi_restore 7
 2078              		.cfi_restore 8
 2079              		.cfi_restore 9
 2080              		.cfi_restore 10
 2081              		.cfi_restore 11
 2082              		.cfi_restore 14
 2083 0216 7047     		bx	lr
 2084              	.LBE27:
 2085              	.LBE29:
 2086              	.LBE32:
 2087              	.LBE35:
 2088              	.LBE36:
 2089              	.LBE37:
 2090              		.cfi_endproc
 2091              	.LFE133:
 2093              		.global	__aeabi_d2f
 2094              		.global	__aeabi_dcmpeq
 2095              		.section	.text.makise_dex_polyline,"ax",%progbits
 2096              		.align	1
ARM GAS  /tmp/cczvO81Q.s 			page 48


 2097              		.p2align 2,,3
 2098              		.global	makise_dex_polyline
 2099              		.syntax unified
 2100              		.thumb
 2101              		.thumb_func
 2102              		.fpu fpv4-sp-d16
 2104              	makise_dex_polyline:
 2105              	.LFB134:
 296:MakiseGUI/MakiseGUI/makise_primitives.c **** 
 297:MakiseGUI/MakiseGUI/makise_primitives.c **** void makise_dex_polyline(MakiseBuffer*b, int32_t x, int32_t y, double rot, MakisePoint* points, uin
 298:MakiseGUI/MakiseGUI/makise_primitives.c **** {
 2106              		.loc 1 298 0
 2107              		.cfi_startproc
 2108              		@ args = 8, pretend = 0, frame = 16
 2109              		@ frame_needed = 0, uses_anonymous_args = 0
 2110              	.LVL226:
 2111 0000 2DE9F04F 		push	{r4, r5, r6, r7, r8, r9, r10, fp, lr}
 2112              	.LCFI30:
 2113              		.cfi_def_cfa_offset 36
 2114              		.cfi_offset 4, -36
 2115              		.cfi_offset 5, -32
 2116              		.cfi_offset 6, -28
 2117              		.cfi_offset 7, -24
 2118              		.cfi_offset 8, -20
 2119              		.cfi_offset 9, -16
 2120              		.cfi_offset 10, -12
 2121              		.cfi_offset 11, -8
 2122              		.cfi_offset 14, -4
 2123 0004 2DED088B 		vpush.64	{d8, d9, d10, d11}
 2124              	.LCFI31:
 2125              		.cfi_def_cfa_offset 68
 2126              		.cfi_offset 80, -68
 2127              		.cfi_offset 81, -64
 2128              		.cfi_offset 82, -60
 2129              		.cfi_offset 83, -56
 2130              		.cfi_offset 84, -52
 2131              		.cfi_offset 85, -48
 2132              		.cfi_offset 86, -44
 2133              		.cfi_offset 87, -40
 2134 0008 87B0     		sub	sp, sp, #28
 2135              	.LCFI32:
 2136              		.cfi_def_cfa_offset 96
 2137              		.loc 1 298 0
 2138 000a 189D     		ldr	r5, [sp, #96]
 2139 000c 199F     		ldr	r7, [sp, #100]
 299:MakiseGUI/MakiseGUI/makise_primitives.c ****     if(count == 0 || points == 0)
 2140              		.loc 1 299 0
 2141 000e 002D     		cmp	r5, #0
 2142 0010 00F08B80 		beq	.L175
 2143              		.loc 1 299 0 is_stmt 0 discriminator 1
 2144 0014 002B     		cmp	r3, #0
 2145 0016 00F08880 		beq	.L175
 2146 001a 1C46     		mov	r4, r3
 2147 001c 59EC108B 		vmov	r8, r9, d0
 2148 0020 09EE902A 		vmov	s19, r2	@ int
 2149 0024 09EE101A 		vmov	s18, r1	@ int
 2150 0028 0646     		mov	r6, r0
ARM GAS  /tmp/cczvO81Q.s 			page 49


 300:MakiseGUI/MakiseGUI/makise_primitives.c **** 	return;
 301:MakiseGUI/MakiseGUI/makise_primitives.c **** 
 302:MakiseGUI/MakiseGUI/makise_primitives.c ****     if(x == 0 && y == 0 && rot == 0)
 2151              		.loc 1 302 0 is_stmt 1
 2152 002a 49B9     		cbnz	r1, .L180
 2153              		.loc 1 302 0 is_stmt 0 discriminator 1
 2154 002c 42B9     		cbnz	r2, .L180
 2155              		.loc 1 302 0 discriminator 2
 2156 002e 0022     		movs	r2, #0
 2157              	.LVL227:
 2158 0030 0023     		movs	r3, #0
 2159              	.LVL228:
 2160 0032 10EE100A 		vmov	r0, s0	@ int
 2161              	.LVL229:
 2162 0036 4946     		mov	r1, r9
 2163              	.LVL230:
 2164 0038 FFF7FEFF 		bl	__aeabi_dcmpeq
 2165              	.LVL231:
 2166 003c 0028     		cmp	r0, #0
 2167 003e 79D1     		bne	.L191
 2168              	.L180:
 2169              	.LVL232:
 303:MakiseGUI/MakiseGUI/makise_primitives.c **** 	makise_d_polyline(b, points, count, c);
 304:MakiseGUI/MakiseGUI/makise_primitives.c ****     
 305:MakiseGUI/MakiseGUI/makise_primitives.c ****     uint32_t i = 0;
 306:MakiseGUI/MakiseGUI/makise_primitives.c ****     float co = cos(rot), si = sin(rot);
 2170              		.loc 1 306 0 is_stmt 1
 2171 0040 49EC108B 		vmov	d0, r8, r9
 2172 0044 FFF7FEFF 		bl	cos
 2173              	.LVL233:
 2174 0048 51EC100B 		vmov	r0, r1, d0
 2175 004c FFF7FEFF 		bl	__aeabi_d2f
 2176              	.LVL234:
 2177 0050 49EC108B 		vmov	d0, r8, r9
 2178 0054 0BEE100A 		vmov	s22, r0
 2179              	.LVL235:
 2180 0058 FFF7FEFF 		bl	sin
 2181              	.LVL236:
 2182 005c 51EC100B 		vmov	r0, r1, d0
 2183 0060 FFF7FEFF 		bl	__aeabi_d2f
 2184              	.LVL237:
 307:MakiseGUI/MakiseGUI/makise_primitives.c ****     float lx, ly, cx, cy;
 308:MakiseGUI/MakiseGUI/makise_primitives.c **** 
 309:MakiseGUI/MakiseGUI/makise_primitives.c ****     lx = (points[0].x) * co - (points[0].y) * si + x;
 2185              		.loc 1 309 0
 2186 0064 B4F90230 		ldrsh	r3, [r4, #2]
 2187 0068 07EE903A 		vmov	s15, r3	@ int
 2188 006c B4F90030 		ldrsh	r3, [r4]
 2189 0070 F8EEE77A 		vcvt.f32.s32	s15, s15
 2190 0074 07EE103A 		vmov	s14, r3	@ int
 2191 0078 B8EEC99A 		vcvt.f32.s32	s18, s18
 2192              	.LVL238:
 306:MakiseGUI/MakiseGUI/makise_primitives.c ****     float lx, ly, cx, cy;
 2193              		.loc 1 306 0
 2194 007c 0AEE100A 		vmov	s20, r0
 2195              	.LVL239:
 2196              		.loc 1 309 0
ARM GAS  /tmp/cczvO81Q.s 			page 50


 2197 0080 B8EEC77A 		vcvt.f32.s32	s14, s14
 310:MakiseGUI/MakiseGUI/makise_primitives.c ****     ly = (points[0].x) * si + (points[0].y) * co + y;
 2198              		.loc 1 310 0
 2199 0084 6BEE276A 		vmul.f32	s13, s22, s15
 309:MakiseGUI/MakiseGUI/makise_primitives.c ****     ly = (points[0].x) * si + (points[0].y) * co + y;
 2200              		.loc 1 309 0
 2201 0088 B0EE496A 		vmov.f32	s12, s18
 2202              		.loc 1 310 0
 2203 008c EAEE076A 		vfma.f32	s13, s20, s14
 311:MakiseGUI/MakiseGUI/makise_primitives.c ****     for(i = 1; i < count; i++)
 2204              		.loc 1 311 0
 2205 0090 012D     		cmp	r5, #1
 2206 0092 88BF     		it	hi
 2207 0094 4FF00108 		movhi	r8, #1
 2208              	.LVL240:
 309:MakiseGUI/MakiseGUI/makise_primitives.c ****     ly = (points[0].x) * si + (points[0].y) * co + y;
 2209              		.loc 1 309 0
 2210 0098 ABEE076A 		vfma.f32	s12, s22, s14
 310:MakiseGUI/MakiseGUI/makise_primitives.c ****     ly = (points[0].x) * si + (points[0].y) * co + y;
 2211              		.loc 1 310 0
 2212 009c F8EEE99A 		vcvt.f32.s32	s19, s19
 2213              	.LVL241:
 309:MakiseGUI/MakiseGUI/makise_primitives.c ****     ly = (points[0].x) * si + (points[0].y) * co + y;
 2214              		.loc 1 309 0
 2215 00a0 F1EE4AAA 		vneg.f32	s21, s20
 2216 00a4 AAEEA76A 		vfma.f32	s12, s21, s15
 2217              	.LVL242:
 310:MakiseGUI/MakiseGUI/makise_primitives.c ****     ly = (points[0].x) * si + (points[0].y) * co + y;
 2218              		.loc 1 310 0
 2219 00a8 76EEA96A 		vadd.f32	s13, s13, s19
 2220              	.LVL243:
 2221              		.loc 1 311 0
 2222 00ac 3DD9     		bls	.L175
 2223              	.LVL244:
 2224              	.L183:
 312:MakiseGUI/MakiseGUI/makise_primitives.c ****     {
 313:MakiseGUI/MakiseGUI/makise_primitives.c **** 	cx = (points[i].x) * co - (points[i].y) * si + x;
 2225              		.loc 1 313 0 discriminator 3
 2226 00ae B4F90630 		ldrsh	r3, [r4, #6]
 2227 00b2 07EE903A 		vmov	s15, r3	@ int
 2228 00b6 B4F90430 		ldrsh	r3, [r4, #4]
 314:MakiseGUI/MakiseGUI/makise_primitives.c **** 	cy = (points[i].x) * si + (points[i].y) * co + y;
 315:MakiseGUI/MakiseGUI/makise_primitives.c **** 
 316:MakiseGUI/MakiseGUI/makise_primitives.c **** 	makise_d_line(b, lx , ly, cx, cy, c);
 2229              		.loc 1 316 0 discriminator 3
 2230 00ba 0197     		str	r7, [sp, #4]
 313:MakiseGUI/MakiseGUI/makise_primitives.c **** 	cy = (points[i].x) * si + (points[i].y) * co + y;
 2231              		.loc 1 313 0 discriminator 3
 2232 00bc F8EEE77A 		vcvt.f32.s32	s15, s15
 2233 00c0 07EE103A 		vmov	s14, r3	@ int
 314:MakiseGUI/MakiseGUI/makise_primitives.c **** 	cy = (points[i].x) * si + (points[i].y) * co + y;
 2234              		.loc 1 314 0 discriminator 3
 2235 00c4 2BEE278A 		vmul.f32	s16, s22, s15
 313:MakiseGUI/MakiseGUI/makise_primitives.c **** 	cy = (points[i].x) * si + (points[i].y) * co + y;
 2236              		.loc 1 313 0 discriminator 3
 2237 00c8 B8EEC77A 		vcvt.f32.s32	s14, s14
 2238 00cc F0EE498A 		vmov.f32	s17, s18
ARM GAS  /tmp/cczvO81Q.s 			page 51


 2239 00d0 EBEE078A 		vfma.f32	s17, s22, s14
 311:MakiseGUI/MakiseGUI/makise_primitives.c ****     {
 2240              		.loc 1 311 0 discriminator 3
 2241 00d4 08F10108 		add	r8, r8, #1
 2242              	.LVL245:
 2243              		.loc 1 316 0 discriminator 3
 2244 00d8 3046     		mov	r0, r6
 314:MakiseGUI/MakiseGUI/makise_primitives.c **** 	cy = (points[i].x) * si + (points[i].y) * co + y;
 2245              		.loc 1 314 0 discriminator 3
 2246 00da AAEE078A 		vfma.f32	s16, s20, s14
 2247 00de 0434     		adds	r4, r4, #4
 313:MakiseGUI/MakiseGUI/makise_primitives.c **** 	cy = (points[i].x) * si + (points[i].y) * co + y;
 2248              		.loc 1 313 0 discriminator 3
 2249 00e0 EAEEA78A 		vfma.f32	s17, s21, s15
 2250              	.LVL246:
 314:MakiseGUI/MakiseGUI/makise_primitives.c **** 	cy = (points[i].x) * si + (points[i].y) * co + y;
 2251              		.loc 1 314 0 discriminator 3
 2252 00e4 38EE298A 		vadd.f32	s16, s16, s19
 2253              	.LVL247:
 2254              		.loc 1 316 0 discriminator 3
 2255 00e8 FDEEE67A 		vcvt.s32.f32	s15, s13
 2256 00ec CDED037A 		vstr.32	s15, [sp, #12]	@ int
 2257 00f0 FDEEC87A 		vcvt.s32.f32	s15, s16
 2258 00f4 BDF90C20 		ldrsh	r2, [sp, #12]
 2259 00f8 CDED057A 		vstr.32	s15, [sp, #20]	@ int
 2260 00fc FDEEC67A 		vcvt.s32.f32	s15, s12
 2261 0100 BDF91430 		ldrsh	r3, [sp, #20]
 2262 0104 CDED047A 		vstr.32	s15, [sp, #16]	@ int
 2263 0108 FDEEE87A 		vcvt.s32.f32	s15, s17
 2264 010c 0093     		str	r3, [sp]
 2265 010e CDED027A 		vstr.32	s15, [sp, #8]	@ int
 2266 0112 BDF90830 		ldrsh	r3, [sp, #8]
 2267 0116 BDF91010 		ldrsh	r1, [sp, #16]
 2268 011a FFF7FEFF 		bl	makise_d_line
 2269              	.LVL248:
 311:MakiseGUI/MakiseGUI/makise_primitives.c ****     {
 2270              		.loc 1 311 0 discriminator 3
 2271 011e 4545     		cmp	r5, r8
 317:MakiseGUI/MakiseGUI/makise_primitives.c **** 	lx = cx;
 318:MakiseGUI/MakiseGUI/makise_primitives.c **** 	ly = cy;
 2272              		.loc 1 318 0 discriminator 3
 2273 0120 F0EE486A 		vmov.f32	s13, s16
 317:MakiseGUI/MakiseGUI/makise_primitives.c **** 	lx = cx;
 2274              		.loc 1 317 0 discriminator 3
 2275 0124 B0EE686A 		vmov.f32	s12, s17
 311:MakiseGUI/MakiseGUI/makise_primitives.c ****     {
 2276              		.loc 1 311 0 discriminator 3
 2277 0128 C1D1     		bne	.L183
 2278              	.LVL249:
 2279              	.L175:
 319:MakiseGUI/MakiseGUI/makise_primitives.c ****     }
 320:MakiseGUI/MakiseGUI/makise_primitives.c ****     
 321:MakiseGUI/MakiseGUI/makise_primitives.c **** }
 2280              		.loc 1 321 0
 2281 012a 07B0     		add	sp, sp, #28
 2282              	.LCFI33:
 2283              		.cfi_remember_state
ARM GAS  /tmp/cczvO81Q.s 			page 52


 2284              		.cfi_def_cfa_offset 68
 2285              		@ sp needed
 2286 012c BDEC088B 		vldm	sp!, {d8-d11}
 2287              	.LCFI34:
 2288              		.cfi_restore 86
 2289              		.cfi_restore 87
 2290              		.cfi_restore 84
 2291              		.cfi_restore 85
 2292              		.cfi_restore 82
 2293              		.cfi_restore 83
 2294              		.cfi_restore 80
 2295              		.cfi_restore 81
 2296              		.cfi_def_cfa_offset 36
 2297 0130 BDE8F08F 		pop	{r4, r5, r6, r7, r8, r9, r10, fp, pc}
 2298              	.LVL250:
 2299              	.L191:
 2300              	.LCFI35:
 2301              		.cfi_restore_state
 2302              	.LBB42:
 2303              	.LBB43:
 2304              	.LBB44:
 2305              	.LBB45:
 291:MakiseGUI/MakiseGUI/makise_primitives.c ****     {
 2306              		.loc 1 291 0
 2307 0134 012D     		cmp	r5, #1
 2308 0136 83D9     		bls	.L180
 2309 0138 A246     		mov	r10, r4
 2310 013a 4FF0010B 		mov	fp, #1
 2311              	.LVL251:
 2312              	.L182:
 293:MakiseGUI/MakiseGUI/makise_primitives.c ****     }
 2313              		.loc 1 293 0
 2314 013e BAF90430 		ldrsh	r3, [r10, #4]
 2315 0142 BAF90220 		ldrsh	r2, [r10, #2]
 2316 0146 BAF90010 		ldrsh	r1, [r10]
 2317 014a 0197     		str	r7, [sp, #4]
 2318 014c BAF90600 		ldrsh	r0, [r10, #6]
 2319 0150 0090     		str	r0, [sp]
 291:MakiseGUI/MakiseGUI/makise_primitives.c ****     {
 2320              		.loc 1 291 0
 2321 0152 0BF1010B 		add	fp, fp, #1
 2322              	.LVL252:
 293:MakiseGUI/MakiseGUI/makise_primitives.c ****     }
 2323              		.loc 1 293 0
 2324 0156 3046     		mov	r0, r6
 2325 0158 FFF7FEFF 		bl	makise_d_line
 2326              	.LVL253:
 291:MakiseGUI/MakiseGUI/makise_primitives.c ****     {
 2327              		.loc 1 291 0
 2328 015c 5D45     		cmp	r5, fp
 2329 015e 0AF1040A 		add	r10, r10, #4
 2330 0162 ECD1     		bne	.L182
 2331 0164 6CE7     		b	.L180
 2332              	.LBE45:
 2333              	.LBE44:
 2334              	.LBE43:
 2335              	.LBE42:
ARM GAS  /tmp/cczvO81Q.s 			page 53


 2336              		.cfi_endproc
 2337              	.LFE134:
 2339 0166 00BF     		.text
 2340              	.Letext0:
 2341              		.file 2 "MakiseGUI/MakiseGUI/makise.h"
 2342              		.file 3 "/usr/arm-none-eabi/include/machine/_default_types.h"
 2343              		.file 4 "/usr/arm-none-eabi/include/sys/lock.h"
 2344              		.file 5 "/usr/arm-none-eabi/include/sys/_types.h"
 2345              		.file 6 "/usr/lib/gcc/arm-none-eabi/6.3.0/include/stddef.h"
 2346              		.file 7 "/usr/arm-none-eabi/include/sys/reent.h"
 2347              		.file 8 "/usr/arm-none-eabi/include/sys/_stdint.h"
 2348              		.file 9 "Drivers/CMSIS/Include/core_cm4.h"
 2349              		.file 10 "Drivers/CMSIS/Device/ST/STM32F4xx/Include/system_stm32f4xx.h"
 2350              		.file 11 "Drivers/CMSIS/Device/ST/STM32F4xx/Include/stm32f401xe.h"
 2351              		.file 12 "Drivers/STM32F4xx_HAL_Driver/Inc/stm32f4xx_hal_def.h"
 2352              		.file 13 "Drivers/STM32F4xx_HAL_Driver/Inc/stm32f4xx_hal_dma.h"
 2353              		.file 14 "Drivers/STM32F4xx_HAL_Driver/Inc/stm32f4xx_hal_spi.h"
 2354              		.file 15 "Drivers/STM32F4xx_HAL_Driver/Inc/stm32f4xx_hal_tim.h"
 2355              		.file 16 "Inc/spi.h"
 2356              		.file 17 "Inc/tim.h"
 2357              		.file 18 "MakiseGUI/MakiseGUI/ILI9340C/ili9340.h"
 2358              		.file 19 "MakiseGUI/MakiseGUI/makise_text.h"
 2359              		.file 20 "MakiseGUI/MakiseGUI/fonts/fonts.h"
 2360              		.file 21 "MakiseGUI/MakiseGUI/makise_primitives.h"
 2361              		.file 22 "/usr/arm-none-eabi/include/math.h"
 2362              		.file 23 "/usr/arm-none-eabi/include/string.h"
ARM GAS  /tmp/cczvO81Q.s 			page 54


DEFINED SYMBOLS
                            *ABS*:0000000000000000 makise_primitives.c
     /tmp/cczvO81Q.s:16     .text.makise_d_clear:0000000000000000 $t
     /tmp/cczvO81Q.s:24     .text.makise_d_clear:0000000000000000 makise_d_clear
     /tmp/cczvO81Q.s:156    .text.makise_d_point:0000000000000000 $t
     /tmp/cczvO81Q.s:164    .text.makise_d_point:0000000000000000 makise_d_point
     /tmp/cczvO81Q.s:179    .text.makise_d_circle:0000000000000000 $t
     /tmp/cczvO81Q.s:187    .text.makise_d_circle:0000000000000000 makise_d_circle
     /tmp/cczvO81Q.s:439    .text.makise_d_line:0000000000000000 $t
     /tmp/cczvO81Q.s:447    .text.makise_d_line:0000000000000000 makise_d_line
     /tmp/cczvO81Q.s:840    .text.makise_d_rect:0000000000000000 $t
     /tmp/cczvO81Q.s:848    .text.makise_d_rect:0000000000000000 makise_d_rect
     /tmp/cczvO81Q.s:1033   .text.makise_d_rect_filled:0000000000000000 $t
     /tmp/cczvO81Q.s:1041   .text.makise_d_rect_filled:0000000000000000 makise_d_rect_filled
     /tmp/cczvO81Q.s:1261   .text.makise_d_circle_filled:0000000000000000 $t
     /tmp/cczvO81Q.s:1269   .text.makise_d_circle_filled:0000000000000000 makise_d_circle_filled
     /tmp/cczvO81Q.s:1635   .text.makise_d_polyline:0000000000000000 $t
     /tmp/cczvO81Q.s:1643   .text.makise_d_polyline:0000000000000000 makise_d_polyline
     /tmp/cczvO81Q.s:2096   .text.makise_dex_polyline:0000000000000000 $t
     /tmp/cczvO81Q.s:2104   .text.makise_dex_polyline:0000000000000000 makise_dex_polyline
                     .debug_frame:0000000000000010 $d

UNDEFINED SYMBOLS
memset
makise_pset
__aeabi_d2f
__aeabi_dcmpeq
cos
sin
