ARM GAS  /tmp/ccbq1EWD.s 			page 1


   1              		.cpu cortex-m4
   2              		.eabi_attribute 27, 1
   3              		.eabi_attribute 28, 1
   4              		.eabi_attribute 23, 1
   5              		.eabi_attribute 24, 1
   6              		.eabi_attribute 25, 1
   7              		.eabi_attribute 26, 1
   8              		.eabi_attribute 30, 2
   9              		.eabi_attribute 34, 1
  10              		.eabi_attribute 18, 4
  11              		.file	"makise_e_slist.c"
  12              		.text
  13              	.Ltext0:
  14              		.cfi_sections	.debug_frame
  15              		.section	.text._m_slist_focus,"ax",%progbits
  16              		.align	1
  17              		.p2align 2,,3
  18              		.global	_m_slist_focus
  19              		.syntax unified
  20              		.thumb
  21              		.thumb_func
  22              		.fpu fpv4-sp-d16
  24              	_m_slist_focus:
  25              	.LFB129:
  26              		.file 1 "MakiseGUI/MakiseGUI/gui/elements/makise_e_slist.c"
   1:MakiseGUI/MakiseGUI/gui/elements/makise_e_slist.c **** #include "makise_e.h"
   2:MakiseGUI/MakiseGUI/gui/elements/makise_e_slist.c **** 
   3:MakiseGUI/MakiseGUI/gui/elements/makise_e_slist.c **** uint8_t _m_slist_draw   (MElement* b);
   4:MakiseGUI/MakiseGUI/gui/elements/makise_e_slist.c **** MFocusEnum _m_slist_focus(MElement* b,  MFocusEnum act);
   5:MakiseGUI/MakiseGUI/gui/elements/makise_e_slist.c **** MInputResultEnum _m_slist_input  (MElement* b, MInputData data);
   6:MakiseGUI/MakiseGUI/gui/elements/makise_e_slist.c **** 
   7:MakiseGUI/MakiseGUI/gui/elements/makise_e_slist.c **** void m_create_slist(MSList* b, MContainer *c,
   8:MakiseGUI/MakiseGUI/gui/elements/makise_e_slist.c **** 		    int32_t x, int32_t y, uint32_t w, uint32_t h,
   9:MakiseGUI/MakiseGUI/gui/elements/makise_e_slist.c **** 		    char* text,
  10:MakiseGUI/MakiseGUI/gui/elements/makise_e_slist.c **** 		    void (*onselection)(MSList *l, MSList_Item selected),
  11:MakiseGUI/MakiseGUI/gui/elements/makise_e_slist.c **** 		    void (*click)(MSList *l, MSList_Item selected),
  12:MakiseGUI/MakiseGUI/gui/elements/makise_e_slist.c **** 		    MakiseStyle *style,
  13:MakiseGUI/MakiseGUI/gui/elements/makise_e_slist.c **** 		    MakiseStyle *item_style)
  14:MakiseGUI/MakiseGUI/gui/elements/makise_e_slist.c **** {
  15:MakiseGUI/MakiseGUI/gui/elements/makise_e_slist.c ****     MElement *e = &b->el;
  16:MakiseGUI/MakiseGUI/gui/elements/makise_e_slist.c ****     e->gui = c->gui;
  17:MakiseGUI/MakiseGUI/gui/elements/makise_e_slist.c **** 
  18:MakiseGUI/MakiseGUI/gui/elements/makise_e_slist.c ****     e->data = b;
  19:MakiseGUI/MakiseGUI/gui/elements/makise_e_slist.c ****     
  20:MakiseGUI/MakiseGUI/gui/elements/makise_e_slist.c ****     makise_g_cont_add(c, e);
  21:MakiseGUI/MakiseGUI/gui/elements/makise_e_slist.c **** 
  22:MakiseGUI/MakiseGUI/gui/elements/makise_e_slist.c ****     e->draw = &_m_slist_draw;
  23:MakiseGUI/MakiseGUI/gui/elements/makise_e_slist.c ****     e->predraw = 0;
  24:MakiseGUI/MakiseGUI/gui/elements/makise_e_slist.c ****     e->update = 0;
  25:MakiseGUI/MakiseGUI/gui/elements/makise_e_slist.c ****     e->input = &_m_slist_input;
  26:MakiseGUI/MakiseGUI/gui/elements/makise_e_slist.c ****     e->focus = &_m_slist_focus;
  27:MakiseGUI/MakiseGUI/gui/elements/makise_e_slist.c ****     e->free =  0;
  28:MakiseGUI/MakiseGUI/gui/elements/makise_e_slist.c **** 	
  29:MakiseGUI/MakiseGUI/gui/elements/makise_e_slist.c ****     e->position.x = x;
  30:MakiseGUI/MakiseGUI/gui/elements/makise_e_slist.c ****     e->position.y = y;
  31:MakiseGUI/MakiseGUI/gui/elements/makise_e_slist.c ****     e->position.width = w;
  32:MakiseGUI/MakiseGUI/gui/elements/makise_e_slist.c ****     e->position.height = h;
ARM GAS  /tmp/ccbq1EWD.s 			page 2


  33:MakiseGUI/MakiseGUI/gui/elements/makise_e_slist.c **** 
  34:MakiseGUI/MakiseGUI/gui/elements/makise_e_slist.c ****     e->enabled = 1;
  35:MakiseGUI/MakiseGUI/gui/elements/makise_e_slist.c ****     e->id = makise_g_newid();
  36:MakiseGUI/MakiseGUI/gui/elements/makise_e_slist.c ****     e->focus_prior = 1;
  37:MakiseGUI/MakiseGUI/gui/elements/makise_e_slist.c ****     
  38:MakiseGUI/MakiseGUI/gui/elements/makise_e_slist.c ****     b->text = text;
  39:MakiseGUI/MakiseGUI/gui/elements/makise_e_slist.c **** 
  40:MakiseGUI/MakiseGUI/gui/elements/makise_e_slist.c ****     b->onselection = onselection;
  41:MakiseGUI/MakiseGUI/gui/elements/makise_e_slist.c ****     b->click = click;
  42:MakiseGUI/MakiseGUI/gui/elements/makise_e_slist.c **** 
  43:MakiseGUI/MakiseGUI/gui/elements/makise_e_slist.c ****     b->items = 0;
  44:MakiseGUI/MakiseGUI/gui/elements/makise_e_slist.c ****     b->is_array = 0;
  45:MakiseGUI/MakiseGUI/gui/elements/makise_e_slist.c ****     b->len = 0;
  46:MakiseGUI/MakiseGUI/gui/elements/makise_e_slist.c ****     b->selected = 0;
  47:MakiseGUI/MakiseGUI/gui/elements/makise_e_slist.c ****     
  48:MakiseGUI/MakiseGUI/gui/elements/makise_e_slist.c ****     b->style = style;
  49:MakiseGUI/MakiseGUI/gui/elements/makise_e_slist.c ****     b->item_style = item_style;
  50:MakiseGUI/MakiseGUI/gui/elements/makise_e_slist.c ****     
  51:MakiseGUI/MakiseGUI/gui/elements/makise_e_slist.c ****     printf("Slist %d created\n", e->id);
  52:MakiseGUI/MakiseGUI/gui/elements/makise_e_slist.c **** }
  53:MakiseGUI/MakiseGUI/gui/elements/makise_e_slist.c **** 
  54:MakiseGUI/MakiseGUI/gui/elements/makise_e_slist.c **** uint8_t _m_slist_draw   (MElement* b)
  55:MakiseGUI/MakiseGUI/gui/elements/makise_e_slist.c **** {
  56:MakiseGUI/MakiseGUI/gui/elements/makise_e_slist.c ****     MSList *l = (MSList*)b->data;
  57:MakiseGUI/MakiseGUI/gui/elements/makise_e_slist.c ****     MakiseStyleTheme *th = l->state ? &l->style->focused : &l->style->normal;
  58:MakiseGUI/MakiseGUI/gui/elements/makise_e_slist.c ****     MakiseStyleTheme *i_foc =l->state ? &l->item_style->focused : &l->item_style->active;
  59:MakiseGUI/MakiseGUI/gui/elements/makise_e_slist.c ****     MakiseStyleTheme *i_nom = &l->item_style->normal,
  60:MakiseGUI/MakiseGUI/gui/elements/makise_e_slist.c **** 	*c_th = 0;
  61:MakiseGUI/MakiseGUI/gui/elements/makise_e_slist.c ****     
  62:MakiseGUI/MakiseGUI/gui/elements/makise_e_slist.c ****     
  63:MakiseGUI/MakiseGUI/gui/elements/makise_e_slist.c ****     _m_e_helper_draw_box(b->gui->buffer, &b->position, th);
  64:MakiseGUI/MakiseGUI/gui/elements/makise_e_slist.c **** 
  65:MakiseGUI/MakiseGUI/gui/elements/makise_e_slist.c ****     uint32_t i = 0, start = 0, end = 0;
  66:MakiseGUI/MakiseGUI/gui/elements/makise_e_slist.c ****     int16_t y = b->position.real_y + 2,
  67:MakiseGUI/MakiseGUI/gui/elements/makise_e_slist.c **** 	x = b->position.real_x + 2;
  68:MakiseGUI/MakiseGUI/gui/elements/makise_e_slist.c ****     uint32_t
  69:MakiseGUI/MakiseGUI/gui/elements/makise_e_slist.c **** 	w = b->position.width - 5,
  70:MakiseGUI/MakiseGUI/gui/elements/makise_e_slist.c **** 	h = b->position.height - 4,
  71:MakiseGUI/MakiseGUI/gui/elements/makise_e_slist.c **** 	eh = l->item_style->font->height + l->item_style->font_line_spacing + 3,
  72:MakiseGUI/MakiseGUI/gui/elements/makise_e_slist.c **** 	ec = h / (eh + 1), //count of elements on the screen
  73:MakiseGUI/MakiseGUI/gui/elements/makise_e_slist.c **** 	sh = 0,   //scroll line height
  74:MakiseGUI/MakiseGUI/gui/elements/makise_e_slist.c **** 	cuid = 0, //current id
  75:MakiseGUI/MakiseGUI/gui/elements/makise_e_slist.c **** 	len = 0;  //count of items
  76:MakiseGUI/MakiseGUI/gui/elements/makise_e_slist.c **** 
  77:MakiseGUI/MakiseGUI/gui/elements/makise_e_slist.c ****     MSList_Item *ci = 0;
  78:MakiseGUI/MakiseGUI/gui/elements/makise_e_slist.c **** 
  79:MakiseGUI/MakiseGUI/gui/elements/makise_e_slist.c ****     if(ec == 0)
  80:MakiseGUI/MakiseGUI/gui/elements/makise_e_slist.c **** 	return M_ERROR;
  81:MakiseGUI/MakiseGUI/gui/elements/makise_e_slist.c ****     
  82:MakiseGUI/MakiseGUI/gui/elements/makise_e_slist.c ****     if(l->is_array)
  83:MakiseGUI/MakiseGUI/gui/elements/makise_e_slist.c ****     {
  84:MakiseGUI/MakiseGUI/gui/elements/makise_e_slist.c **** 	len = l->len;
  85:MakiseGUI/MakiseGUI/gui/elements/makise_e_slist.c **** 	
  86:MakiseGUI/MakiseGUI/gui/elements/makise_e_slist.c **** 	i = l->selected->id;
  87:MakiseGUI/MakiseGUI/gui/elements/makise_e_slist.c **** 	if(ec >= len)
  88:MakiseGUI/MakiseGUI/gui/elements/makise_e_slist.c **** 	{
  89:MakiseGUI/MakiseGUI/gui/elements/makise_e_slist.c **** 	    start = 0;
ARM GAS  /tmp/ccbq1EWD.s 			page 3


  90:MakiseGUI/MakiseGUI/gui/elements/makise_e_slist.c **** 	    end = len;
  91:MakiseGUI/MakiseGUI/gui/elements/makise_e_slist.c **** 	}
  92:MakiseGUI/MakiseGUI/gui/elements/makise_e_slist.c **** 	else if ((i >= (ec / 2)) && ((len - i) > (ec - 1) / 2))
  93:MakiseGUI/MakiseGUI/gui/elements/makise_e_slist.c **** 	{
  94:MakiseGUI/MakiseGUI/gui/elements/makise_e_slist.c **** 	    start = i - (ec / 2);
  95:MakiseGUI/MakiseGUI/gui/elements/makise_e_slist.c **** 	    end = start + ec;
  96:MakiseGUI/MakiseGUI/gui/elements/makise_e_slist.c **** 	}
  97:MakiseGUI/MakiseGUI/gui/elements/makise_e_slist.c **** 	else if ((i > (ec / 2) && (len - i) <= (ec - 1) / 2))
  98:MakiseGUI/MakiseGUI/gui/elements/makise_e_slist.c **** 	{
  99:MakiseGUI/MakiseGUI/gui/elements/makise_e_slist.c **** 	    end = len;
 100:MakiseGUI/MakiseGUI/gui/elements/makise_e_slist.c **** 	    start = len - ec;
 101:MakiseGUI/MakiseGUI/gui/elements/makise_e_slist.c **** 	}
 102:MakiseGUI/MakiseGUI/gui/elements/makise_e_slist.c **** 	else if (i < (ec / 2) && (len - i) > (ec - 1) / 2)
 103:MakiseGUI/MakiseGUI/gui/elements/makise_e_slist.c **** 	{
 104:MakiseGUI/MakiseGUI/gui/elements/makise_e_slist.c **** 	    start = 0;
 105:MakiseGUI/MakiseGUI/gui/elements/makise_e_slist.c **** 	    end = ec;
 106:MakiseGUI/MakiseGUI/gui/elements/makise_e_slist.c **** 	}
 107:MakiseGUI/MakiseGUI/gui/elements/makise_e_slist.c **** 	
 108:MakiseGUI/MakiseGUI/gui/elements/makise_e_slist.c **** 	for (i = start; i < end; i++)
 109:MakiseGUI/MakiseGUI/gui/elements/makise_e_slist.c **** 	{
 110:MakiseGUI/MakiseGUI/gui/elements/makise_e_slist.c **** 	    ci = &l->items[i];
 111:MakiseGUI/MakiseGUI/gui/elements/makise_e_slist.c **** 	    ci->id = i;
 112:MakiseGUI/MakiseGUI/gui/elements/makise_e_slist.c **** 	    c_th = (ci == l->selected) ? i_foc : i_nom;
 113:MakiseGUI/MakiseGUI/gui/elements/makise_e_slist.c **** 	    if(ci == l->selected)
 114:MakiseGUI/MakiseGUI/gui/elements/makise_e_slist.c **** 		cuid = i;
 115:MakiseGUI/MakiseGUI/gui/elements/makise_e_slist.c **** 	    makise_d_rect_filled(b->gui->buffer,
 116:MakiseGUI/MakiseGUI/gui/elements/makise_e_slist.c **** 				 x, y, w, eh,
 117:MakiseGUI/MakiseGUI/gui/elements/makise_e_slist.c **** 				 c_th->border_c, c_th->bg_color);
 118:MakiseGUI/MakiseGUI/gui/elements/makise_e_slist.c **** 	    makise_d_string_frame(b->gui->buffer, ci->text, MDTextAll,
 119:MakiseGUI/MakiseGUI/gui/elements/makise_e_slist.c **** 				  x + 1,
 120:MakiseGUI/MakiseGUI/gui/elements/makise_e_slist.c **** 				  y,
 121:MakiseGUI/MakiseGUI/gui/elements/makise_e_slist.c **** 				  w - 2, eh,
 122:MakiseGUI/MakiseGUI/gui/elements/makise_e_slist.c **** 				  l->item_style->font,
 123:MakiseGUI/MakiseGUI/gui/elements/makise_e_slist.c **** 				  l->item_style->font_line_spacing,
 124:MakiseGUI/MakiseGUI/gui/elements/makise_e_slist.c **** 				  c_th->font_col);
 125:MakiseGUI/MakiseGUI/gui/elements/makise_e_slist.c **** 
 126:MakiseGUI/MakiseGUI/gui/elements/makise_e_slist.c **** 	    y += eh + 1;
 127:MakiseGUI/MakiseGUI/gui/elements/makise_e_slist.c **** 	}
 128:MakiseGUI/MakiseGUI/gui/elements/makise_e_slist.c ****     }
 129:MakiseGUI/MakiseGUI/gui/elements/makise_e_slist.c ****     h = b->position.height - 2;
 130:MakiseGUI/MakiseGUI/gui/elements/makise_e_slist.c ****     sh = h / len;
 131:MakiseGUI/MakiseGUI/gui/elements/makise_e_slist.c ****     if(sh < 5)
 132:MakiseGUI/MakiseGUI/gui/elements/makise_e_slist.c ****     {
 133:MakiseGUI/MakiseGUI/gui/elements/makise_e_slist.c **** 	y = cuid * (h + sh - 5) / len;
 134:MakiseGUI/MakiseGUI/gui/elements/makise_e_slist.c **** 	sh = 5;
 135:MakiseGUI/MakiseGUI/gui/elements/makise_e_slist.c ****     }
 136:MakiseGUI/MakiseGUI/gui/elements/makise_e_slist.c ****     else
 137:MakiseGUI/MakiseGUI/gui/elements/makise_e_slist.c **** 	y = cuid * (h) / len;
 138:MakiseGUI/MakiseGUI/gui/elements/makise_e_slist.c ****     y += b->position.real_y + 1;
 139:MakiseGUI/MakiseGUI/gui/elements/makise_e_slist.c ****     
 140:MakiseGUI/MakiseGUI/gui/elements/makise_e_slist.c ****     makise_d_line(b->gui->buffer,
 141:MakiseGUI/MakiseGUI/gui/elements/makise_e_slist.c **** 		  x + w - 1, b->position.real_y,
 142:MakiseGUI/MakiseGUI/gui/elements/makise_e_slist.c **** 		  x + w - 1, b->position.real_y + b->position.height - 1,
 143:MakiseGUI/MakiseGUI/gui/elements/makise_e_slist.c **** 		  th->border_c);
 144:MakiseGUI/MakiseGUI/gui/elements/makise_e_slist.c ****     makise_d_line(b->gui->buffer,
 145:MakiseGUI/MakiseGUI/gui/elements/makise_e_slist.c **** 		  x + w    , y,
 146:MakiseGUI/MakiseGUI/gui/elements/makise_e_slist.c **** 		  x + w    , y + sh,
ARM GAS  /tmp/ccbq1EWD.s 			page 4


 147:MakiseGUI/MakiseGUI/gui/elements/makise_e_slist.c **** 		  th->font_col);
 148:MakiseGUI/MakiseGUI/gui/elements/makise_e_slist.c ****     makise_d_line(b->gui->buffer,
 149:MakiseGUI/MakiseGUI/gui/elements/makise_e_slist.c **** 		  x + w + 1, y,
 150:MakiseGUI/MakiseGUI/gui/elements/makise_e_slist.c **** 		  x + w + 1, y + sh,
 151:MakiseGUI/MakiseGUI/gui/elements/makise_e_slist.c **** 		  th->font_col);
 152:MakiseGUI/MakiseGUI/gui/elements/makise_e_slist.c ****     return M_OK;
 153:MakiseGUI/MakiseGUI/gui/elements/makise_e_slist.c **** }
 154:MakiseGUI/MakiseGUI/gui/elements/makise_e_slist.c **** 
 155:MakiseGUI/MakiseGUI/gui/elements/makise_e_slist.c **** void m_slist_add(MSList *l, MSList_Item *item); //add one item to the list at the end. Only if NOT 
 156:MakiseGUI/MakiseGUI/gui/elements/makise_e_slist.c **** void m_slist_clear(MSList *l); //clear all pointers
 157:MakiseGUI/MakiseGUI/gui/elements/makise_e_slist.c **** void m_slist_remove(MSList *l, MSList_Item *item); //remove item from linked list. Only if NOT is_a
 158:MakiseGUI/MakiseGUI/gui/elements/makise_e_slist.c **** void m_slist_set_array(MSList *l, MSList_Item *array, uint32_t len)
 159:MakiseGUI/MakiseGUI/gui/elements/makise_e_slist.c **** {
 160:MakiseGUI/MakiseGUI/gui/elements/makise_e_slist.c ****     l->items = array;
 161:MakiseGUI/MakiseGUI/gui/elements/makise_e_slist.c ****     l->len = len;
 162:MakiseGUI/MakiseGUI/gui/elements/makise_e_slist.c ****     l->selected = array;
 163:MakiseGUI/MakiseGUI/gui/elements/makise_e_slist.c ****     l->is_array = 1;
 164:MakiseGUI/MakiseGUI/gui/elements/makise_e_slist.c ****     MSList_Item *lst = 0;
 165:MakiseGUI/MakiseGUI/gui/elements/makise_e_slist.c ****     for (uint32_t i = 0; i < len; i++)
 166:MakiseGUI/MakiseGUI/gui/elements/makise_e_slist.c ****     {
 167:MakiseGUI/MakiseGUI/gui/elements/makise_e_slist.c **** 	array[i].prev = lst;
 168:MakiseGUI/MakiseGUI/gui/elements/makise_e_slist.c **** 	array[i].next = ((i + 1) < len) ? &array[i+1] : 0;
 169:MakiseGUI/MakiseGUI/gui/elements/makise_e_slist.c **** 
 170:MakiseGUI/MakiseGUI/gui/elements/makise_e_slist.c **** 	array[i].id = i;
 171:MakiseGUI/MakiseGUI/gui/elements/makise_e_slist.c **** 	
 172:MakiseGUI/MakiseGUI/gui/elements/makise_e_slist.c **** 	lst = &array[i];
 173:MakiseGUI/MakiseGUI/gui/elements/makise_e_slist.c ****     }
 174:MakiseGUI/MakiseGUI/gui/elements/makise_e_slist.c **** }
 175:MakiseGUI/MakiseGUI/gui/elements/makise_e_slist.c **** void m_slist_set_list(MSList *l, MSList_Item *first); //set linked list as new data source.
 176:MakiseGUI/MakiseGUI/gui/elements/makise_e_slist.c **** 
 177:MakiseGUI/MakiseGUI/gui/elements/makise_e_slist.c **** MFocusEnum _m_slist_focus   (MElement* b,  MFocusEnum act)
 178:MakiseGUI/MakiseGUI/gui/elements/makise_e_slist.c **** {
  27              		.loc 1 178 0
  28              		.cfi_startproc
  29              		@ args = 0, pretend = 0, frame = 0
  30              		@ frame_needed = 0, uses_anonymous_args = 0
  31              		@ link register save eliminated.
  32              	.LVL0:
 179:MakiseGUI/MakiseGUI/gui/elements/makise_e_slist.c ****     MSList *e = ((MSList*)b->data);
 180:MakiseGUI/MakiseGUI/gui/elements/makise_e_slist.c ****     if(act & M_G_FOCUS_GET)
  33              		.loc 1 180 0
  34 0000 11F00802 		ands	r2, r1, #8
 179:MakiseGUI/MakiseGUI/gui/elements/makise_e_slist.c ****     MSList *e = ((MSList*)b->data);
  35              		.loc 1 179 0
  36 0004 436B     		ldr	r3, [r0, #52]
  37              	.LVL1:
  38              		.loc 1 180 0
  39 0006 05D0     		beq	.L2
 181:MakiseGUI/MakiseGUI/gui/elements/makise_e_slist.c ****     {
 182:MakiseGUI/MakiseGUI/gui/elements/makise_e_slist.c **** 	((MSList*)b->data)->state = 1;
  40              		.loc 1 182 0
  41 0008 0122     		movs	r2, #1
  42 000a 9A67     		str	r2, [r3, #120]
  43              	.L3:
 183:MakiseGUI/MakiseGUI/gui/elements/makise_e_slist.c ****     }
 184:MakiseGUI/MakiseGUI/gui/elements/makise_e_slist.c ****     if(act == M_G_FOCUS_LEAVE)
 185:MakiseGUI/MakiseGUI/gui/elements/makise_e_slist.c ****     {
ARM GAS  /tmp/ccbq1EWD.s 			page 5


 186:MakiseGUI/MakiseGUI/gui/elements/makise_e_slist.c **** 	((MSList*)b->data)->state = 0;
 187:MakiseGUI/MakiseGUI/gui/elements/makise_e_slist.c ****     }
 188:MakiseGUI/MakiseGUI/gui/elements/makise_e_slist.c **** 
 189:MakiseGUI/MakiseGUI/gui/elements/makise_e_slist.c ****     return (act == M_G_FOCUS_PREV || act == M_G_FOCUS_NEXT)
 190:MakiseGUI/MakiseGUI/gui/elements/makise_e_slist.c **** 	? M_G_FOCUS_NOT_NEEDED
 191:MakiseGUI/MakiseGUI/gui/elements/makise_e_slist.c **** 	: M_G_FOCUS_OK;
  44              		.loc 1 191 0
  45 000c 2029     		cmp	r1, #32
  46 000e 06D1     		bne	.L8
  47 0010 0220     		movs	r0, #2
  48              	.LVL2:
 192:MakiseGUI/MakiseGUI/gui/elements/makise_e_slist.c **** 
 193:MakiseGUI/MakiseGUI/gui/elements/makise_e_slist.c **** }
  49              		.loc 1 193 0
  50 0012 7047     		bx	lr
  51              	.LVL3:
  52              	.L2:
 184:MakiseGUI/MakiseGUI/gui/elements/makise_e_slist.c ****     {
  53              		.loc 1 184 0
  54 0014 0429     		cmp	r1, #4
  55 0016 F9D1     		bne	.L3
 186:MakiseGUI/MakiseGUI/gui/elements/makise_e_slist.c ****     }
  56              		.loc 1 186 0
  57 0018 9A67     		str	r2, [r3, #120]
 191:MakiseGUI/MakiseGUI/gui/elements/makise_e_slist.c **** 
  58              		.loc 1 191 0
  59 001a 0120     		movs	r0, #1
  60              	.LVL4:
  61 001c 7047     		bx	lr
  62              	.LVL5:
  63              	.L8:
 189:MakiseGUI/MakiseGUI/gui/elements/makise_e_slist.c **** 	? M_G_FOCUS_NOT_NEEDED
  64              		.loc 1 189 0
  65 001e 1029     		cmp	r1, #16
 191:MakiseGUI/MakiseGUI/gui/elements/makise_e_slist.c **** 
  66              		.loc 1 191 0
  67 0020 0CBF     		ite	eq
  68 0022 0220     		moveq	r0, #2
  69              	.LVL6:
  70 0024 0120     		movne	r0, #1
  71 0026 7047     		bx	lr
  72              		.cfi_endproc
  73              	.LFE129:
  75              		.section	.text._m_slist_input,"ax",%progbits
  76              		.align	1
  77              		.p2align 2,,3
  78              		.global	_m_slist_input
  79              		.syntax unified
  80              		.thumb
  81              		.thumb_func
  82              		.fpu fpv4-sp-d16
  84              	_m_slist_input:
  85              	.LFB130:
 194:MakiseGUI/MakiseGUI/gui/elements/makise_e_slist.c **** MInputResultEnum _m_slist_input  (MElement* b, MInputData data)
 195:MakiseGUI/MakiseGUI/gui/elements/makise_e_slist.c **** {
  86              		.loc 1 195 0
  87              		.cfi_startproc
ARM GAS  /tmp/ccbq1EWD.s 			page 6


  88              		@ args = 0, pretend = 0, frame = 16
  89              		@ frame_needed = 0, uses_anonymous_args = 0
  90              	.LVL7:
  91 0000 F0B5     		push	{r4, r5, r6, r7, lr}
  92              	.LCFI0:
  93              		.cfi_def_cfa_offset 20
  94              		.cfi_offset 4, -20
  95              		.cfi_offset 5, -16
  96              		.cfi_offset 6, -12
  97              		.cfi_offset 7, -8
  98              		.cfi_offset 14, -4
  99 0002 87B0     		sub	sp, sp, #28
 100              	.LCFI1:
 101              		.cfi_def_cfa_offset 48
 102              		.loc 1 195 0
 103 0004 06AC     		add	r4, sp, #24
 104 0006 04E90E00 		stmdb	r4, {r1, r2, r3}
 196:MakiseGUI/MakiseGUI/gui/elements/makise_e_slist.c ****     MSList *e = ((MSList*)b->data);
 105              		.loc 1 196 0
 106 000a 446B     		ldr	r4, [r0, #52]
 107 000c 9DF80C00 		ldrb	r0, [sp, #12]	@ zero_extendqisi2
 108              	.LVL8:
 197:MakiseGUI/MakiseGUI/gui/elements/makise_e_slist.c **** 
 198:MakiseGUI/MakiseGUI/gui/elements/makise_e_slist.c ****     if(e->items == 0)
 109              		.loc 1 198 0
 110 0010 A16D     		ldr	r1, [r4, #88]
 111 0012 31B1     		cbz	r1, .L13
 199:MakiseGUI/MakiseGUI/gui/elements/makise_e_slist.c **** 	return M_INPUT_NOT_HANDLED;
 200:MakiseGUI/MakiseGUI/gui/elements/makise_e_slist.c ****     if(e->selected == 0)
 112              		.loc 1 200 0
 113 0014 636E     		ldr	r3, [r4, #100]
 114 0016 002B     		cmp	r3, #0
 115 0018 34D0     		beq	.L37
 116              	.L12:
 201:MakiseGUI/MakiseGUI/gui/elements/makise_e_slist.c ****     {
 202:MakiseGUI/MakiseGUI/gui/elements/makise_e_slist.c **** 	e->selected = e->items;
 203:MakiseGUI/MakiseGUI/gui/elements/makise_e_slist.c ****     }
 204:MakiseGUI/MakiseGUI/gui/elements/makise_e_slist.c ****     
 205:MakiseGUI/MakiseGUI/gui/elements/makise_e_slist.c ****     if(data.event == M_INPUT_CLICK)
 117              		.loc 1 205 0
 118 001a 9DF80D20 		ldrb	r2, [sp, #13]	@ zero_extendqisi2
 119 001e 012A     		cmp	r2, #1
 120 0020 02D0     		beq	.L38
 121              	.L13:
 199:MakiseGUI/MakiseGUI/gui/elements/makise_e_slist.c **** 	return M_INPUT_NOT_HANDLED;
 122              		.loc 1 199 0
 123 0022 0120     		movs	r0, #1
 124              	.LVL9:
 206:MakiseGUI/MakiseGUI/gui/elements/makise_e_slist.c ****     {
 207:MakiseGUI/MakiseGUI/gui/elements/makise_e_slist.c **** 	if(data.key == M_KEY_DOWN)
 208:MakiseGUI/MakiseGUI/gui/elements/makise_e_slist.c **** 	{
 209:MakiseGUI/MakiseGUI/gui/elements/makise_e_slist.c **** 	    if(e->is_array)
 210:MakiseGUI/MakiseGUI/gui/elements/makise_e_slist.c **** 	    {
 211:MakiseGUI/MakiseGUI/gui/elements/makise_e_slist.c **** 		MSList_Item *n = 0;
 212:MakiseGUI/MakiseGUI/gui/elements/makise_e_slist.c **** 		for (uint32_t i = 0; i < e->len; i++)
 213:MakiseGUI/MakiseGUI/gui/elements/makise_e_slist.c **** 		{
 214:MakiseGUI/MakiseGUI/gui/elements/makise_e_slist.c **** 		    e->items[i].id = i;
ARM GAS  /tmp/ccbq1EWD.s 			page 7


 215:MakiseGUI/MakiseGUI/gui/elements/makise_e_slist.c **** 		    if(i == (e->selected->id + 1))
 216:MakiseGUI/MakiseGUI/gui/elements/makise_e_slist.c **** 		    {
 217:MakiseGUI/MakiseGUI/gui/elements/makise_e_slist.c **** 			n = &e->items[i];
 218:MakiseGUI/MakiseGUI/gui/elements/makise_e_slist.c **** 		    }
 219:MakiseGUI/MakiseGUI/gui/elements/makise_e_slist.c **** 		}
 220:MakiseGUI/MakiseGUI/gui/elements/makise_e_slist.c **** 		if(n != 0)
 221:MakiseGUI/MakiseGUI/gui/elements/makise_e_slist.c **** 		    e->selected = n;
 222:MakiseGUI/MakiseGUI/gui/elements/makise_e_slist.c **** 		else
 223:MakiseGUI/MakiseGUI/gui/elements/makise_e_slist.c **** 		    e->selected = e->items;
 224:MakiseGUI/MakiseGUI/gui/elements/makise_e_slist.c **** 	    }
 225:MakiseGUI/MakiseGUI/gui/elements/makise_e_slist.c **** 	} else if(data.key == M_KEY_UP)
 226:MakiseGUI/MakiseGUI/gui/elements/makise_e_slist.c **** 	{
 227:MakiseGUI/MakiseGUI/gui/elements/makise_e_slist.c **** 	    if(e->is_array)
 228:MakiseGUI/MakiseGUI/gui/elements/makise_e_slist.c **** 	    {
 229:MakiseGUI/MakiseGUI/gui/elements/makise_e_slist.c **** 		MSList_Item *n = 0;
 230:MakiseGUI/MakiseGUI/gui/elements/makise_e_slist.c **** 		for (uint32_t i = 0; i < e->len; i++)
 231:MakiseGUI/MakiseGUI/gui/elements/makise_e_slist.c **** 		{
 232:MakiseGUI/MakiseGUI/gui/elements/makise_e_slist.c **** 		    e->items[i].id = i;
 233:MakiseGUI/MakiseGUI/gui/elements/makise_e_slist.c **** 		    if(i == (e->selected->id - 1))
 234:MakiseGUI/MakiseGUI/gui/elements/makise_e_slist.c **** 		    {
 235:MakiseGUI/MakiseGUI/gui/elements/makise_e_slist.c **** 			n = &e->items[i];
 236:MakiseGUI/MakiseGUI/gui/elements/makise_e_slist.c **** 		    }
 237:MakiseGUI/MakiseGUI/gui/elements/makise_e_slist.c **** 		}
 238:MakiseGUI/MakiseGUI/gui/elements/makise_e_slist.c **** 		if(n != 0)
 239:MakiseGUI/MakiseGUI/gui/elements/makise_e_slist.c **** 		    e->selected = n;
 240:MakiseGUI/MakiseGUI/gui/elements/makise_e_slist.c **** 		else
 241:MakiseGUI/MakiseGUI/gui/elements/makise_e_slist.c **** 		    e->selected = &e->items[e->len - 1];
 242:MakiseGUI/MakiseGUI/gui/elements/makise_e_slist.c **** 	    }
 243:MakiseGUI/MakiseGUI/gui/elements/makise_e_slist.c **** 	}
 244:MakiseGUI/MakiseGUI/gui/elements/makise_e_slist.c **** 	
 245:MakiseGUI/MakiseGUI/gui/elements/makise_e_slist.c **** 	e->onselection(e, *e->selected);
 246:MakiseGUI/MakiseGUI/gui/elements/makise_e_slist.c **** 	return M_INPUT_HANDLED;
 247:MakiseGUI/MakiseGUI/gui/elements/makise_e_slist.c ****     }
 248:MakiseGUI/MakiseGUI/gui/elements/makise_e_slist.c ****     
 249:MakiseGUI/MakiseGUI/gui/elements/makise_e_slist.c ****     return M_INPUT_NOT_HANDLED;
 250:MakiseGUI/MakiseGUI/gui/elements/makise_e_slist.c **** 
 251:MakiseGUI/MakiseGUI/gui/elements/makise_e_slist.c **** }
 125              		.loc 1 251 0
 126 0024 07B0     		add	sp, sp, #28
 127              	.LCFI2:
 128              		.cfi_remember_state
 129              		.cfi_def_cfa_offset 20
 130              		@ sp needed
 131 0026 F0BD     		pop	{r4, r5, r6, r7, pc}
 132              	.LVL10:
 133              	.L38:
 134              	.LCFI3:
 135              		.cfi_restore_state
 207:MakiseGUI/MakiseGUI/gui/elements/makise_e_slist.c **** 	{
 136              		.loc 1 207 0
 137 0028 0528     		cmp	r0, #5
 138 002a 2ED0     		beq	.L39
 225:MakiseGUI/MakiseGUI/gui/elements/makise_e_slist.c **** 	{
 139              		.loc 1 225 0
 140 002c 0428     		cmp	r0, #4
 141 002e 0CD0     		beq	.L40
 142              	.LVL11:
ARM GAS  /tmp/ccbq1EWD.s 			page 8


 143              	.L15:
 245:MakiseGUI/MakiseGUI/gui/elements/makise_e_slist.c **** 	return M_INPUT_HANDLED;
 144              		.loc 1 245 0
 145 0030 03F10C02 		add	r2, r3, #12
 146 0034 92E80300 		ldm	r2, {r0, r1}
 147 0038 8DE80300 		stm	sp, {r0, r1}
 148 003c 2046     		mov	r0, r4
 149 003e 0ECB     		ldm	r3, {r1, r2, r3}
 150 0040 A46E     		ldr	r4, [r4, #104]
 151              	.LVL12:
 152 0042 A047     		blx	r4
 153              	.LVL13:
 246:MakiseGUI/MakiseGUI/gui/elements/makise_e_slist.c ****     }
 154              		.loc 1 246 0
 155 0044 0020     		movs	r0, #0
 156              		.loc 1 251 0
 157 0046 07B0     		add	sp, sp, #28
 158              	.LCFI4:
 159              		.cfi_remember_state
 160              		.cfi_def_cfa_offset 20
 161              		@ sp needed
 162 0048 F0BD     		pop	{r4, r5, r6, r7, pc}
 163              	.LVL14:
 164              	.L40:
 165              	.LCFI5:
 166              		.cfi_restore_state
 227:MakiseGUI/MakiseGUI/gui/elements/makise_e_slist.c **** 	    {
 167              		.loc 1 227 0
 168 004a 94F85C20 		ldrb	r2, [r4, #92]	@ zero_extendqisi2
 169 004e 002A     		cmp	r2, #0
 170 0050 EED0     		beq	.L15
 171              	.LVL15:
 172              	.LBB2:
 173              	.LBB3:
 230:MakiseGUI/MakiseGUI/gui/elements/makise_e_slist.c **** 		{
 174              		.loc 1 230 0 discriminator 1
 175 0052 276E     		ldr	r7, [r4, #96]
 176 0054 002F     		cmp	r7, #0
 177 0056 33D0     		beq	.L21
 230:MakiseGUI/MakiseGUI/gui/elements/makise_e_slist.c **** 		{
 178              		.loc 1 230 0 is_stmt 0
 179 0058 0022     		movs	r2, #0
 180 005a 1646     		mov	r6, r2
 181 005c 0846     		mov	r0, r1
 182              	.LVL16:
 183              	.L19:
 232:MakiseGUI/MakiseGUI/gui/elements/makise_e_slist.c **** 		    if(i == (e->selected->id - 1))
 184              		.loc 1 232 0 is_stmt 1
 185 005e 8260     		str	r2, [r0, #8]
 233:MakiseGUI/MakiseGUI/gui/elements/makise_e_slist.c **** 		    {
 186              		.loc 1 233 0
 187 0060 9D68     		ldr	r5, [r3, #8]
 188 0062 013D     		subs	r5, r5, #1
 189 0064 9542     		cmp	r5, r2
 190 0066 08BF     		it	eq
 191 0068 0646     		moveq	r6, r0
 192              	.LVL17:
ARM GAS  /tmp/ccbq1EWD.s 			page 9


 230:MakiseGUI/MakiseGUI/gui/elements/makise_e_slist.c **** 		{
 193              		.loc 1 230 0
 194 006a 0132     		adds	r2, r2, #1
 195              	.LVL18:
 196 006c BA42     		cmp	r2, r7
 197 006e 00F11400 		add	r0, r0, #20
 198 0072 F4D1     		bne	.L19
 199              	.LBE3:
 238:MakiseGUI/MakiseGUI/gui/elements/makise_e_slist.c **** 		    e->selected = n;
 200              		.loc 1 238 0
 201 0074 F6B9     		cbnz	r6, .L20
 202 0076 02EB8203 		add	r3, r2, r2, lsl #2
 203 007a 9B00     		lsls	r3, r3, #2
 204 007c 143B     		subs	r3, r3, #20
 205              	.LVL19:
 206              	.L18:
 241:MakiseGUI/MakiseGUI/gui/elements/makise_e_slist.c **** 	    }
 207              		.loc 1 241 0
 208 007e 0B44     		add	r3, r3, r1
 209 0080 6366     		str	r3, [r4, #100]
 210 0082 D5E7     		b	.L15
 211              	.LVL20:
 212              	.L37:
 213              	.LBE2:
 202:MakiseGUI/MakiseGUI/gui/elements/makise_e_slist.c ****     }
 214              		.loc 1 202 0
 215 0084 6166     		str	r1, [r4, #100]
 216 0086 0B46     		mov	r3, r1
 217 0088 C7E7     		b	.L12
 218              	.L39:
 209:MakiseGUI/MakiseGUI/gui/elements/makise_e_slist.c **** 	    {
 219              		.loc 1 209 0
 220 008a 94F85C20 		ldrb	r2, [r4, #92]	@ zero_extendqisi2
 221 008e 002A     		cmp	r2, #0
 222 0090 CED0     		beq	.L15
 223              	.LVL21:
 224              	.LBB5:
 225              	.LBB6:
 212:MakiseGUI/MakiseGUI/gui/elements/makise_e_slist.c **** 		{
 226              		.loc 1 212 0 discriminator 1
 227 0092 276E     		ldr	r7, [r4, #96]
 228 0094 8FB1     		cbz	r7, .L16
 212:MakiseGUI/MakiseGUI/gui/elements/makise_e_slist.c **** 		{
 229              		.loc 1 212 0 is_stmt 0
 230 0096 0022     		movs	r2, #0
 231 0098 1646     		mov	r6, r2
 232 009a 0846     		mov	r0, r1
 233              	.LVL22:
 234              	.L17:
 214:MakiseGUI/MakiseGUI/gui/elements/makise_e_slist.c **** 		    if(i == (e->selected->id + 1))
 235              		.loc 1 214 0 is_stmt 1
 236 009c 8260     		str	r2, [r0, #8]
 215:MakiseGUI/MakiseGUI/gui/elements/makise_e_slist.c **** 		    {
 237              		.loc 1 215 0
 238 009e 9D68     		ldr	r5, [r3, #8]
 239 00a0 0135     		adds	r5, r5, #1
 240 00a2 9542     		cmp	r5, r2
ARM GAS  /tmp/ccbq1EWD.s 			page 10


 241 00a4 08BF     		it	eq
 242 00a6 0646     		moveq	r6, r0
 243              	.LVL23:
 212:MakiseGUI/MakiseGUI/gui/elements/makise_e_slist.c **** 		{
 244              		.loc 1 212 0
 245 00a8 0132     		adds	r2, r2, #1
 246              	.LVL24:
 247 00aa BA42     		cmp	r2, r7
 248 00ac 00F11400 		add	r0, r0, #20
 249 00b0 F4D1     		bne	.L17
 250              	.LBE6:
 220:MakiseGUI/MakiseGUI/gui/elements/makise_e_slist.c **** 		    e->selected = n;
 251              		.loc 1 220 0
 252 00b2 16B1     		cbz	r6, .L16
 253              	.LVL25:
 254              	.L20:
 255              	.LBE5:
 256              	.LBB7:
 239:MakiseGUI/MakiseGUI/gui/elements/makise_e_slist.c **** 		else
 257              		.loc 1 239 0
 258 00b4 6666     		str	r6, [r4, #100]
 259 00b6 3346     		mov	r3, r6
 260 00b8 BAE7     		b	.L15
 261              	.L16:
 262              	.LBE7:
 263              	.LBB8:
 223:MakiseGUI/MakiseGUI/gui/elements/makise_e_slist.c **** 	    }
 264              		.loc 1 223 0
 265 00ba 6166     		str	r1, [r4, #100]
 266 00bc 0B46     		mov	r3, r1
 267 00be B7E7     		b	.L15
 268              	.LVL26:
 269              	.L21:
 270              	.LBE8:
 271              	.LBB9:
 272              	.LBB4:
 230:MakiseGUI/MakiseGUI/gui/elements/makise_e_slist.c **** 		{
 273              		.loc 1 230 0
 274 00c0 6FF01303 		mvn	r3, #19
 275 00c4 DBE7     		b	.L18
 276              	.LBE4:
 277              	.LBE9:
 278              		.cfi_endproc
 279              	.LFE130:
 281 00c6 00BF     		.section	.text._m_slist_draw,"ax",%progbits
 282              		.align	1
 283              		.p2align 2,,3
 284              		.global	_m_slist_draw
 285              		.syntax unified
 286              		.thumb
 287              		.thumb_func
 288              		.fpu fpv4-sp-d16
 290              	_m_slist_draw:
 291              	.LFB127:
  55:MakiseGUI/MakiseGUI/gui/elements/makise_e_slist.c ****     MSList *l = (MSList*)b->data;
 292              		.loc 1 55 0
 293              		.cfi_startproc
ARM GAS  /tmp/ccbq1EWD.s 			page 11


 294              		@ args = 0, pretend = 0, frame = 56
 295              		@ frame_needed = 0, uses_anonymous_args = 0
 296              	.LVL27:
 297 0000 2DE9F04F 		push	{r4, r5, r6, r7, r8, r9, r10, fp, lr}
 298              	.LCFI6:
 299              		.cfi_def_cfa_offset 36
 300              		.cfi_offset 4, -36
 301              		.cfi_offset 5, -32
 302              		.cfi_offset 6, -28
 303              		.cfi_offset 7, -24
 304              		.cfi_offset 8, -20
 305              		.cfi_offset 9, -16
 306              		.cfi_offset 10, -12
 307              		.cfi_offset 11, -8
 308              		.cfi_offset 14, -4
  56:MakiseGUI/MakiseGUI/gui/elements/makise_e_slist.c ****     MakiseStyleTheme *th = l->state ? &l->style->focused : &l->style->normal;
 309              		.loc 1 56 0
 310 0004 466B     		ldr	r6, [r0, #52]
 311              	.LVL28:
  57:MakiseGUI/MakiseGUI/gui/elements/makise_e_slist.c ****     MakiseStyleTheme *i_foc =l->state ? &l->item_style->focused : &l->item_style->active;
 312              		.loc 1 57 0
 313 0006 B36F     		ldr	r3, [r6, #120]
  55:MakiseGUI/MakiseGUI/gui/elements/makise_e_slist.c ****     MSList *l = (MSList*)b->data;
 314              		.loc 1 55 0
 315 0008 95B0     		sub	sp, sp, #84
 316              	.LCFI7:
 317              		.cfi_def_cfa_offset 120
  55:MakiseGUI/MakiseGUI/gui/elements/makise_e_slist.c ****     MSList *l = (MSList*)b->data;
 318              		.loc 1 55 0
 319 000a 0546     		mov	r5, r0
  57:MakiseGUI/MakiseGUI/gui/elements/makise_e_slist.c ****     MakiseStyleTheme *i_foc =l->state ? &l->item_style->focused : &l->item_style->active;
 320              		.loc 1 57 0
 321 000c FBB1     		cbz	r3, .L42
  57:MakiseGUI/MakiseGUI/gui/elements/makise_e_slist.c ****     MakiseStyleTheme *i_foc =l->state ? &l->item_style->focused : &l->item_style->active;
 322              		.loc 1 57 0 is_stmt 0 discriminator 1
 323 000e 336F     		ldr	r3, [r6, #112]
  58:MakiseGUI/MakiseGUI/gui/elements/makise_e_slist.c ****     MakiseStyleTheme *i_nom = &l->item_style->normal,
 324              		.loc 1 58 0 is_stmt 1 discriminator 1
 325 0010 776F     		ldr	r7, [r6, #116]
  57:MakiseGUI/MakiseGUI/gui/elements/makise_e_slist.c ****     MakiseStyleTheme *i_foc =l->state ? &l->item_style->focused : &l->item_style->active;
 326              		.loc 1 57 0 discriminator 1
 327 0012 2C33     		adds	r3, r3, #44
 328 0014 0893     		str	r3, [sp, #32]
 329              	.LVL29:
  58:MakiseGUI/MakiseGUI/gui/elements/makise_e_slist.c ****     MakiseStyleTheme *i_nom = &l->item_style->normal,
 330              		.loc 1 58 0 discriminator 1
 331 0016 07F12C03 		add	r3, r7, #44
 332              	.LVL30:
 333 001a 0F93     		str	r3, [sp, #60]
 334              	.L43:
 335              	.LVL31:
  63:MakiseGUI/MakiseGUI/gui/elements/makise_e_slist.c **** 
 336              		.loc 1 63 0 discriminator 4
 337 001c 2B68     		ldr	r3, [r5]
 338 001e 089A     		ldr	r2, [sp, #32]
 339 0020 1868     		ldr	r0, [r3]
 340              	.LVL32:
ARM GAS  /tmp/ccbq1EWD.s 			page 12


 341 0022 05F11801 		add	r1, r5, #24
 342 0026 FFF7FEFF 		bl	_m_e_helper_draw_box
 343              	.LVL33:
  71:MakiseGUI/MakiseGUI/gui/elements/makise_e_slist.c **** 	ec = h / (eh + 1), //count of elements on the screen
 344              		.loc 1 71 0 discriminator 4
 345 002a 736F     		ldr	r3, [r6, #116]
  70:MakiseGUI/MakiseGUI/gui/elements/makise_e_slist.c **** 	eh = l->item_style->font->height + l->item_style->font_line_spacing + 3,
 346              		.loc 1 70 0 discriminator 4
 347 002c 686A     		ldr	r0, [r5, #36]
 348              	.LVL34:
  71:MakiseGUI/MakiseGUI/gui/elements/makise_e_slist.c **** 	ec = h / (eh + 1), //count of elements on the screen
 349              		.loc 1 71 0 discriminator 4
 350 002e 5A68     		ldr	r2, [r3, #4]
 351 0030 9B68     		ldr	r3, [r3, #8]
 352 0032 B2F80680 		ldrh	r8, [r2, #6]
 353 0036 9844     		add	r8, r8, r3
 354              	.LVL35:
  72:MakiseGUI/MakiseGUI/gui/elements/makise_e_slist.c **** 	sh = 0,   //scroll line height
 355              		.loc 1 72 0 discriminator 4
 356 0038 08F10403 		add	r3, r8, #4
  70:MakiseGUI/MakiseGUI/gui/elements/makise_e_slist.c **** 	eh = l->item_style->font->height + l->item_style->font_line_spacing + 3,
 357              		.loc 1 70 0 discriminator 4
 358 003c 021F     		subs	r2, r0, #4
 359              	.LVL36:
  72:MakiseGUI/MakiseGUI/gui/elements/makise_e_slist.c **** 	sh = 0,   //scroll line height
 360              		.loc 1 72 0 discriminator 4
 361 003e B2FBF3F3 		udiv	r3, r2, r3
 362 0042 0793     		str	r3, [sp, #28]
 363              	.LVL37:
  79:MakiseGUI/MakiseGUI/gui/elements/makise_e_slist.c **** 	return M_ERROR;
 364              		.loc 1 79 0 discriminator 4
 365 0044 5BB9     		cbnz	r3, .L70
  80:MakiseGUI/MakiseGUI/gui/elements/makise_e_slist.c ****     
 366              		.loc 1 80 0
 367 0046 0220     		movs	r0, #2
 153:MakiseGUI/MakiseGUI/gui/elements/makise_e_slist.c **** 
 368              		.loc 1 153 0
 369 0048 15B0     		add	sp, sp, #84
 370              	.LCFI8:
 371              		.cfi_remember_state
 372              		.cfi_def_cfa_offset 36
 373              		@ sp needed
 374 004a BDE8F08F 		pop	{r4, r5, r6, r7, r8, r9, r10, fp, pc}
 375              	.LVL38:
 376              	.L42:
 377              	.LCFI9:
 378              		.cfi_restore_state
  57:MakiseGUI/MakiseGUI/gui/elements/makise_e_slist.c ****     MakiseStyleTheme *i_foc =l->state ? &l->item_style->focused : &l->item_style->active;
 379              		.loc 1 57 0 discriminator 2
 380 004e 336F     		ldr	r3, [r6, #112]
  58:MakiseGUI/MakiseGUI/gui/elements/makise_e_slist.c ****     MakiseStyleTheme *i_nom = &l->item_style->normal,
 381              		.loc 1 58 0 discriminator 2
 382 0050 776F     		ldr	r7, [r6, #116]
  57:MakiseGUI/MakiseGUI/gui/elements/makise_e_slist.c ****     MakiseStyleTheme *i_foc =l->state ? &l->item_style->focused : &l->item_style->active;
 383              		.loc 1 57 0 discriminator 2
 384 0052 1C33     		adds	r3, r3, #28
 385 0054 0893     		str	r3, [sp, #32]
ARM GAS  /tmp/ccbq1EWD.s 			page 13


 386              	.LVL39:
  58:MakiseGUI/MakiseGUI/gui/elements/makise_e_slist.c ****     MakiseStyleTheme *i_nom = &l->item_style->normal,
 387              		.loc 1 58 0 discriminator 2
 388 0056 07F13C03 		add	r3, r7, #60
 389              	.LVL40:
 390 005a 0F93     		str	r3, [sp, #60]
 391 005c DEE7     		b	.L43
 392              	.LVL41:
 393              	.L70:
  67:MakiseGUI/MakiseGUI/gui/elements/makise_e_slist.c ****     uint32_t
 394              		.loc 1 67 0
 395 005e 298D     		ldrh	r1, [r5, #40]
 396 0060 0A91     		str	r1, [sp, #40]
 397 0062 8C1C     		adds	r4, r1, #2
  66:MakiseGUI/MakiseGUI/gui/elements/makise_e_slist.c **** 	x = b->position.real_x + 2;
 398              		.loc 1 66 0
 399 0064 EA6A     		ldr	r2, [r5, #44]
 400              	.LVL42:
  69:MakiseGUI/MakiseGUI/gui/elements/makise_e_slist.c **** 	h = b->position.height - 4,
 401              		.loc 1 69 0
 402 0066 296A     		ldr	r1, [r5, #32]
  82:MakiseGUI/MakiseGUI/gui/elements/makise_e_slist.c ****     {
 403              		.loc 1 82 0
 404 0068 96F85C30 		ldrb	r3, [r6, #92]	@ zero_extendqisi2
 405              	.LVL43:
  67:MakiseGUI/MakiseGUI/gui/elements/makise_e_slist.c ****     uint32_t
 406              		.loc 1 67 0
 407 006c A4B2     		uxth	r4, r4
 408 006e 1294     		str	r4, [sp, #72]
  69:MakiseGUI/MakiseGUI/gui/elements/makise_e_slist.c **** 	h = b->position.height - 4,
 409              		.loc 1 69 0
 410 0070 A1F1050A 		sub	r10, r1, #5
  66:MakiseGUI/MakiseGUI/gui/elements/makise_e_slist.c **** 	x = b->position.real_x + 2;
 411              		.loc 1 66 0
 412 0074 94B2     		uxth	r4, r2
  82:MakiseGUI/MakiseGUI/gui/elements/makise_e_slist.c ****     {
 413              		.loc 1 82 0
 414 0076 002B     		cmp	r3, #0
 415 0078 4DD1     		bne	.L45
 416 007a 1FFA8AF1 		uxth	r1, r10
 417 007e 0991     		str	r1, [sp, #36]
  75:MakiseGUI/MakiseGUI/gui/elements/makise_e_slist.c **** 
 418              		.loc 1 75 0
 419 0080 1093     		str	r3, [sp, #64]
  74:MakiseGUI/MakiseGUI/gui/elements/makise_e_slist.c **** 	len = 0;  //count of items
 420              		.loc 1 74 0
 421 0082 1193     		str	r3, [sp, #68]
 422 0084 1946     		mov	r1, r3
 423              	.LVL44:
 424              	.L46:
 129:MakiseGUI/MakiseGUI/gui/elements/makise_e_slist.c ****     sh = h / len;
 425              		.loc 1 129 0
 426 0086 A0F1020E 		sub	lr, r0, #2
 427              	.LVL45:
 130:MakiseGUI/MakiseGUI/gui/elements/makise_e_slist.c ****     if(sh < 5)
 428              		.loc 1 130 0
 429 008a BEFBF1F6 		udiv	r6, lr, r1
ARM GAS  /tmp/ccbq1EWD.s 			page 14


 430              	.LVL46:
 131:MakiseGUI/MakiseGUI/gui/elements/makise_e_slist.c ****     {
 431              		.loc 1 131 0
 432 008e 042E     		cmp	r6, #4
 433 0090 61D8     		bhi	.L54
 133:MakiseGUI/MakiseGUI/gui/elements/makise_e_slist.c **** 	sh = 5;
 434              		.loc 1 133 0
 435 0092 A0F1070E 		sub	lr, r0, #7
 436              	.LVL47:
 437 0096 119B     		ldr	r3, [sp, #68]
 438 0098 B644     		add	lr, lr, r6
 439 009a 03FB0EFE 		mul	lr, r3, lr
 440 009e 0526     		movs	r6, #5
 441              	.LVL48:
 442 00a0 BEFBF1FE 		udiv	lr, lr, r1
 443 00a4 0FFA8EFE 		sxth	lr, lr
 444              	.LVL49:
 445              	.L55:
 141:MakiseGUI/MakiseGUI/gui/elements/makise_e_slist.c **** 		  x + w - 1, b->position.real_y + b->position.height - 1,
 446              		.loc 1 141 0
 447 00a8 0999     		ldr	r1, [sp, #36]
 448 00aa 129B     		ldr	r3, [sp, #72]
 449 00ac 0B44     		add	r3, r3, r1
 140:MakiseGUI/MakiseGUI/gui/elements/makise_e_slist.c **** 		  x + w - 1, b->position.real_y,
 450              		.loc 1 140 0
 451 00ae 2968     		ldr	r1, [r5]
 142:MakiseGUI/MakiseGUI/gui/elements/makise_e_slist.c **** 		  th->border_c);
 452              		.loc 1 142 0
 453 00b0 04F1FF3C 		add	ip, r4, #-1
 141:MakiseGUI/MakiseGUI/gui/elements/makise_e_slist.c **** 		  x + w - 1, b->position.real_y + b->position.height - 1,
 454              		.loc 1 141 0
 455 00b4 9FB2     		uxth	r7, r3
 142:MakiseGUI/MakiseGUI/gui/elements/makise_e_slist.c **** 		  th->border_c);
 456              		.loc 1 142 0
 457 00b6 8444     		add	ip, ip, r0
 140:MakiseGUI/MakiseGUI/gui/elements/makise_e_slist.c **** 		  x + w - 1, b->position.real_y,
 458              		.loc 1 140 0
 459 00b8 0868     		ldr	r0, [r1]
 460              	.LVL50:
 461 00ba 0899     		ldr	r1, [sp, #32]
 141:MakiseGUI/MakiseGUI/gui/elements/makise_e_slist.c **** 		  x + w - 1, b->position.real_y + b->position.height - 1,
 462              		.loc 1 141 0
 463 00bc 7B1E     		subs	r3, r7, #1
 140:MakiseGUI/MakiseGUI/gui/elements/makise_e_slist.c **** 		  x + w - 1, b->position.real_y,
 464              		.loc 1 140 0
 465 00be 0FFA8CFC 		sxth	ip, ip
 466 00c2 8968     		ldr	r1, [r1, #8]
 467 00c4 0191     		str	r1, [sp, #4]
 468 00c6 1BB2     		sxth	r3, r3
 469 00c8 CDF800C0 		str	ip, [sp]
 470 00cc 1946     		mov	r1, r3
 471 00ce 12B2     		sxth	r2, r2
 138:MakiseGUI/MakiseGUI/gui/elements/makise_e_slist.c ****     
 472              		.loc 1 138 0
 473 00d0 0134     		adds	r4, r4, #1
 474 00d2 7444     		add	r4, r4, lr
 140:MakiseGUI/MakiseGUI/gui/elements/makise_e_slist.c **** 		  x + w - 1, b->position.real_y,
ARM GAS  /tmp/ccbq1EWD.s 			page 15


 475              		.loc 1 140 0
 476 00d4 FFF7FEFF 		bl	makise_d_line
 477              	.LVL51:
 144:MakiseGUI/MakiseGUI/gui/elements/makise_e_slist.c **** 		  x + w    , y,
 478              		.loc 1 144 0
 479 00d8 089B     		ldr	r3, [sp, #32]
 480 00da 2A68     		ldr	r2, [r5]
 481 00dc 5B68     		ldr	r3, [r3, #4]
 482 00de 1068     		ldr	r0, [r2]
 483 00e0 0193     		str	r3, [sp, #4]
 138:MakiseGUI/MakiseGUI/gui/elements/makise_e_slist.c ****     
 484              		.loc 1 138 0
 485 00e2 A4B2     		uxth	r4, r4
 146:MakiseGUI/MakiseGUI/gui/elements/makise_e_slist.c **** 		  th->font_col);
 486              		.loc 1 146 0
 487 00e4 2644     		add	r6, r6, r4
 144:MakiseGUI/MakiseGUI/gui/elements/makise_e_slist.c **** 		  x + w    , y,
 488              		.loc 1 144 0
 489 00e6 3BB2     		sxth	r3, r7
 490 00e8 36B2     		sxth	r6, r6
 138:MakiseGUI/MakiseGUI/gui/elements/makise_e_slist.c ****     
 491              		.loc 1 138 0
 492 00ea 24B2     		sxth	r4, r4
 493              	.LVL52:
 144:MakiseGUI/MakiseGUI/gui/elements/makise_e_slist.c **** 		  x + w    , y,
 494              		.loc 1 144 0
 495 00ec 2246     		mov	r2, r4
 496 00ee 1946     		mov	r1, r3
 497 00f0 0096     		str	r6, [sp]
 498 00f2 FFF7FEFF 		bl	makise_d_line
 499              	.LVL53:
 148:MakiseGUI/MakiseGUI/gui/elements/makise_e_slist.c **** 		  x + w + 1, y,
 500              		.loc 1 148 0
 501 00f6 2B68     		ldr	r3, [r5]
 502 00f8 0899     		ldr	r1, [sp, #32]
 503 00fa 1868     		ldr	r0, [r3]
 504 00fc 4968     		ldr	r1, [r1, #4]
 505 00fe 0191     		str	r1, [sp, #4]
 149:MakiseGUI/MakiseGUI/gui/elements/makise_e_slist.c **** 		  x + w + 1, y + sh,
 506              		.loc 1 149 0
 507 0100 7B1C     		adds	r3, r7, #1
 148:MakiseGUI/MakiseGUI/gui/elements/makise_e_slist.c **** 		  x + w + 1, y,
 508              		.loc 1 148 0
 509 0102 1BB2     		sxth	r3, r3
 510 0104 0096     		str	r6, [sp]
 511 0106 2246     		mov	r2, r4
 512 0108 1946     		mov	r1, r3
 513 010a FFF7FEFF 		bl	makise_d_line
 514              	.LVL54:
 152:MakiseGUI/MakiseGUI/gui/elements/makise_e_slist.c **** }
 515              		.loc 1 152 0
 516 010e 0120     		movs	r0, #1
 153:MakiseGUI/MakiseGUI/gui/elements/makise_e_slist.c **** 
 517              		.loc 1 153 0
 518 0110 15B0     		add	sp, sp, #84
 519              	.LCFI10:
 520              		.cfi_remember_state
ARM GAS  /tmp/ccbq1EWD.s 			page 16


 521              		.cfi_def_cfa_offset 36
 522              		@ sp needed
 523 0112 BDE8F08F 		pop	{r4, r5, r6, r7, r8, r9, r10, fp, pc}
 524              	.LVL55:
 525              	.L45:
 526              	.LCFI11:
 527              		.cfi_restore_state
  84:MakiseGUI/MakiseGUI/gui/elements/makise_e_slist.c **** 	
 528              		.loc 1 84 0
 529 0116 336E     		ldr	r3, [r6, #96]
 530 0118 1946     		mov	r1, r3
 531              	.LVL56:
  86:MakiseGUI/MakiseGUI/gui/elements/makise_e_slist.c **** 	if(ec >= len)
 532              		.loc 1 86 0
 533 011a 736E     		ldr	r3, [r6, #100]
 534 011c 1393     		str	r3, [sp, #76]
 535              	.LVL57:
  87:MakiseGUI/MakiseGUI/gui/elements/makise_e_slist.c **** 	{
 536              		.loc 1 87 0
 537 011e 079B     		ldr	r3, [sp, #28]
 538 0120 1091     		str	r1, [sp, #64]
 539 0122 8B42     		cmp	r3, r1
 540 0124 21D2     		bcs	.L61
  86:MakiseGUI/MakiseGUI/gui/elements/makise_e_slist.c **** 	if(ec >= len)
 541              		.loc 1 86 0
 542 0126 139B     		ldr	r3, [sp, #76]
 543 0128 D3F80890 		ldr	r9, [r3, #8]
  92:MakiseGUI/MakiseGUI/gui/elements/makise_e_slist.c **** 	{
 544              		.loc 1 92 0
 545 012c 079B     		ldr	r3, [sp, #28]
 546 012e 4FEA530B 		lsr	fp, r3, #1
 547 0132 D945     		cmp	r9, fp
 548 0134 C0F08B80 		bcc	.L65
  92:MakiseGUI/MakiseGUI/gui/elements/makise_e_slist.c **** 	{
 549              		.loc 1 92 0 is_stmt 0 discriminator 1
 550 0138 A1EB090E 		sub	lr, r1, r9
 551 013c 03F1FF3C 		add	ip, r3, #-1
 552 0140 BEEB5C0F 		cmp	lr, ip, lsr #1
 553 0144 1946     		mov	r1, r3
 554              	.LVL58:
 555 0146 40F29480 		bls	.L49
  94:MakiseGUI/MakiseGUI/gui/elements/makise_e_slist.c **** 	    end = start + ec;
 556              		.loc 1 94 0 is_stmt 1
 557 014a A9EB0B09 		sub	r9, r9, fp
 558              	.LVL59:
  95:MakiseGUI/MakiseGUI/gui/elements/makise_e_slist.c **** 	}
 559              		.loc 1 95 0
 560 014e 4944     		add	r1, r1, r9
 561 0150 0791     		str	r1, [sp, #28]
 562              	.LVL60:
 563 0152 0B46     		mov	r3, r1
 564 0154 0DE0     		b	.L47
 565              	.LVL61:
 566              	.L54:
 137:MakiseGUI/MakiseGUI/gui/elements/makise_e_slist.c ****     y += b->position.real_y + 1;
 567              		.loc 1 137 0
 568 0156 119B     		ldr	r3, [sp, #68]
ARM GAS  /tmp/ccbq1EWD.s 			page 17


 569 0158 B6B2     		uxth	r6, r6
 570              	.LVL62:
 571 015a 0EFB03FE 		mul	lr, lr, r3
 572              	.LVL63:
 573 015e 109B     		ldr	r3, [sp, #64]
 574 0160 BEFBF3FE 		udiv	lr, lr, r3
 575 0164 0FFA8EFE 		sxth	lr, lr
 576              	.LVL64:
 577 0168 9EE7     		b	.L55
 578              	.LVL65:
 579              	.L61:
 580 016a 0B46     		mov	r3, r1
 581 016c 0791     		str	r1, [sp, #28]
 582              	.LVL66:
  89:MakiseGUI/MakiseGUI/gui/elements/makise_e_slist.c **** 	    end = len;
 583              		.loc 1 89 0
 584 016e 4FF00009 		mov	r9, #0
 585              	.LVL67:
 586              	.L47:
 108:MakiseGUI/MakiseGUI/gui/elements/makise_e_slist.c **** 	{
 587              		.loc 1 108 0
 588 0172 9945     		cmp	r9, r3
 589 0174 76D2     		bcs	.L69
 590              	.LVL68:
 591              	.L50:
 592 0176 0A9A     		ldr	r2, [sp, #40]
 593 0178 1FFA8AF3 		uxth	r3, r10
 594 017c 0332     		adds	r2, r2, #3
  71:MakiseGUI/MakiseGUI/gui/elements/makise_e_slist.c **** 	ec = h / (eh + 1), //count of elements on the screen
 595              		.loc 1 71 0
 596 017e 08F10308 		add	r8, r8, #3
 597              	.LVL69:
 598 0182 1FFA88F8 		uxth	r8, r8
 599              	.LVL70:
 600 0186 991E     		subs	r1, r3, #2
 601 0188 0993     		str	r3, [sp, #36]
 602 018a 93B2     		uxth	r3, r2
 603 018c 08F10100 		add	r0, r8, #1
 604              	.LVL71:
 605 0190 0C93     		str	r3, [sp, #48]
  59:MakiseGUI/MakiseGUI/gui/elements/makise_e_slist.c **** 	*c_th = 0;
 606              		.loc 1 59 0
 607 0192 07F11C03 		add	r3, r7, #28
 608 0196 0A93     		str	r3, [sp, #40]
 609 0198 83B2     		uxth	r3, r0
 610 019a 0B93     		str	r3, [sp, #44]
 611 019c 8BB2     		uxth	r3, r1
 612 019e 0D93     		str	r3, [sp, #52]
  71:MakiseGUI/MakiseGUI/gui/elements/makise_e_slist.c **** 	ec = h / (eh + 1), //count of elements on the screen
 613              		.loc 1 71 0
 614 01a0 0023     		movs	r3, #0
 615 01a2 2A46     		mov	r2, r5
  66:MakiseGUI/MakiseGUI/gui/elements/makise_e_slist.c **** 	x = b->position.real_x + 2;
 616              		.loc 1 66 0
 617 01a4 0234     		adds	r4, r4, #2
 618 01a6 09EB890B 		add	fp, r9, r9, lsl #2
  71:MakiseGUI/MakiseGUI/gui/elements/makise_e_slist.c **** 	ec = h / (eh + 1), //count of elements on the screen
ARM GAS  /tmp/ccbq1EWD.s 			page 18


 619              		.loc 1 71 0
 620 01aa 1193     		str	r3, [sp, #68]
 621 01ac BDF94830 		ldrsh	r3, [sp, #72]
 622 01b0 0E93     		str	r3, [sp, #56]
 623 01b2 B246     		mov	r10, r6
 624 01b4 4546     		mov	r5, r8
 625              	.LVL72:
  66:MakiseGUI/MakiseGUI/gui/elements/makise_e_slist.c **** 	x = b->position.real_x + 2;
 626              		.loc 1 66 0
 627 01b6 24B2     		sxth	r4, r4
 628 01b8 4FEA8B0B 		lsl	fp, fp, #2
 629 01bc 4E46     		mov	r6, r9
 630              	.LVL73:
 631 01be 139B     		ldr	r3, [sp, #76]
 632 01c0 9046     		mov	r8, r2
 633 01c2 01E0     		b	.L53
 634              	.LVL74:
 635              	.L71:
 636 01c4 DAF86430 		ldr	r3, [r10, #100]
 637              	.LVL75:
 638              	.L53:
 110:MakiseGUI/MakiseGUI/gui/elements/makise_e_slist.c **** 	    ci->id = i;
 639              		.loc 1 110 0
 640 01c8 DAF85870 		ldr	r7, [r10, #88]
 112:MakiseGUI/MakiseGUI/gui/elements/makise_e_slist.c **** 	    if(ci == l->selected)
 641              		.loc 1 112 0
 642 01cc DDF82890 		ldr	r9, [sp, #40]
 115:MakiseGUI/MakiseGUI/gui/elements/makise_e_slist.c **** 				 x, y, w, eh,
 643              		.loc 1 115 0
 644 01d0 D8F80020 		ldr	r2, [r8]
 645 01d4 0E99     		ldr	r1, [sp, #56]
 646 01d6 1068     		ldr	r0, [r2]
 110:MakiseGUI/MakiseGUI/gui/elements/makise_e_slist.c **** 	    ci->id = i;
 647              		.loc 1 110 0
 648 01d8 5F44     		add	r7, r7, fp
 649              	.LVL76:
 112:MakiseGUI/MakiseGUI/gui/elements/makise_e_slist.c **** 	    if(ci == l->selected)
 650              		.loc 1 112 0
 651 01da 9F42     		cmp	r7, r3
 652 01dc 08BF     		it	eq
 653 01de DDF83C90 		ldreq	r9, [sp, #60]
 111:MakiseGUI/MakiseGUI/gui/elements/makise_e_slist.c **** 	    c_th = (ci == l->selected) ? i_foc : i_nom;
 654              		.loc 1 111 0
 655 01e2 BE60     		str	r6, [r7, #8]
 115:MakiseGUI/MakiseGUI/gui/elements/makise_e_slist.c **** 				 x, y, w, eh,
 656              		.loc 1 115 0
 657 01e4 D9F80030 		ldr	r3, [r9]
 658 01e8 0293     		str	r3, [sp, #8]
 659 01ea D9F80830 		ldr	r3, [r9, #8]
 660 01ee 0193     		str	r3, [sp, #4]
 661 01f0 2246     		mov	r2, r4
 662 01f2 099B     		ldr	r3, [sp, #36]
 663 01f4 0095     		str	r5, [sp]
 112:MakiseGUI/MakiseGUI/gui/elements/makise_e_slist.c **** 	    if(ci == l->selected)
 664              		.loc 1 112 0
 665 01f6 08BF     		it	eq
 666 01f8 1196     		streq	r6, [sp, #68]
ARM GAS  /tmp/ccbq1EWD.s 			page 19


 115:MakiseGUI/MakiseGUI/gui/elements/makise_e_slist.c **** 				 x, y, w, eh,
 667              		.loc 1 115 0
 668 01fa FFF7FEFF 		bl	makise_d_rect_filled
 669              	.LVL77:
 118:MakiseGUI/MakiseGUI/gui/elements/makise_e_slist.c **** 				  x + 1,
 670              		.loc 1 118 0
 671 01fe D8F80000 		ldr	r0, [r8]
 122:MakiseGUI/MakiseGUI/gui/elements/makise_e_slist.c **** 				  l->item_style->font_line_spacing,
 672              		.loc 1 122 0
 673 0202 DAF87430 		ldr	r3, [r10, #116]
 118:MakiseGUI/MakiseGUI/gui/elements/makise_e_slist.c **** 				  x + 1,
 674              		.loc 1 118 0
 675 0206 D9F80420 		ldr	r2, [r9, #4]
 676 020a F968     		ldr	r1, [r7, #12]
 677 020c 0068     		ldr	r0, [r0]
 678 020e 0592     		str	r2, [sp, #20]
 679 0210 1A89     		ldrh	r2, [r3, #8]
 680 0212 0492     		str	r2, [sp, #16]
 681 0214 5B68     		ldr	r3, [r3, #4]
 682 0216 0393     		str	r3, [sp, #12]
 683 0218 A4B2     		uxth	r4, r4
 684 021a 0D9B     		ldr	r3, [sp, #52]
 685 021c 0094     		str	r4, [sp]
 686 021e 0193     		str	r3, [sp, #4]
 687 0220 0295     		str	r5, [sp, #8]
 688 0222 0C9B     		ldr	r3, [sp, #48]
 689 0224 4FF0FF32 		mov	r2, #-1
 690 0228 FFF7FEFF 		bl	makise_d_string_frame
 691              	.LVL78:
 692 022c 0B9B     		ldr	r3, [sp, #44]
 693 022e 1C44     		add	r4, r4, r3
 694              	.LVL79:
 108:MakiseGUI/MakiseGUI/gui/elements/makise_e_slist.c **** 	{
 695              		.loc 1 108 0
 696 0230 079B     		ldr	r3, [sp, #28]
 697 0232 0136     		adds	r6, r6, #1
 698              	.LVL80:
 699 0234 9E42     		cmp	r6, r3
 700 0236 0BF1140B 		add	fp, fp, #20
 701 023a 24B2     		sxth	r4, r4
 702              	.LVL81:
 703 023c C2D1     		bne	.L71
 704 023e D8F82C20 		ldr	r2, [r8, #44]
 705 0242 D8F82400 		ldr	r0, [r8, #36]
 706 0246 1099     		ldr	r1, [sp, #64]
 707 0248 4546     		mov	r5, r8
 708 024a 94B2     		uxth	r4, r2
 709              	.LVL82:
 710 024c 1BE7     		b	.L46
 711              	.LVL83:
 712              	.L65:
 102:MakiseGUI/MakiseGUI/gui/elements/makise_e_slist.c **** 	{
 713              		.loc 1 102 0 discriminator 1
 714 024e 079B     		ldr	r3, [sp, #28]
 715 0250 A1EB0909 		sub	r9, r1, r9
 716 0254 03F1FF3E 		add	lr, r3, #-1
 717 0258 B9EB5E0F 		cmp	r9, lr, lsr #1
ARM GAS  /tmp/ccbq1EWD.s 			page 20


 718 025c 02D9     		bls	.L69
 719 025e 4FF00009 		mov	r9, #0
 720 0262 88E7     		b	.L50
 721              	.LVL84:
 722              	.L69:
 723 0264 1FFA8AF3 		uxth	r3, r10
 724 0268 0993     		str	r3, [sp, #36]
  74:MakiseGUI/MakiseGUI/gui/elements/makise_e_slist.c **** 	len = 0;  //count of items
 725              		.loc 1 74 0
 726 026a 0023     		movs	r3, #0
 727 026c 1193     		str	r3, [sp, #68]
 728 026e 1099     		ldr	r1, [sp, #64]
 729 0270 09E7     		b	.L46
 730              	.LVL85:
 731              	.L49:
  97:MakiseGUI/MakiseGUI/gui/elements/makise_e_slist.c **** 	{
 732              		.loc 1 97 0
 733 0272 D945     		cmp	r9, fp
 734 0274 F6D9     		bls	.L69
 735              	.LVL86:
 100:MakiseGUI/MakiseGUI/gui/elements/makise_e_slist.c **** 	}
 736              		.loc 1 100 0
 737 0276 1099     		ldr	r1, [sp, #64]
 738 0278 079B     		ldr	r3, [sp, #28]
 739 027a 0791     		str	r1, [sp, #28]
 740              	.LVL87:
 741 027c A1EB0309 		sub	r9, r1, r3
 742              	.LVL88:
 743 0280 0B46     		mov	r3, r1
 744 0282 76E7     		b	.L47
 745              		.cfi_endproc
 746              	.LFE127:
 748              		.section	.text.m_create_slist,"ax",%progbits
 749              		.align	1
 750              		.p2align 2,,3
 751              		.global	m_create_slist
 752              		.syntax unified
 753              		.thumb
 754              		.thumb_func
 755              		.fpu fpv4-sp-d16
 757              	m_create_slist:
 758              	.LFB126:
  14:MakiseGUI/MakiseGUI/gui/elements/makise_e_slist.c ****     MElement *e = &b->el;
 759              		.loc 1 14 0
 760              		.cfi_startproc
 761              		@ args = 28, pretend = 0, frame = 8
 762              		@ frame_needed = 0, uses_anonymous_args = 0
 763              	.LVL89:
 764 0000 2DE9F04F 		push	{r4, r5, r6, r7, r8, r9, r10, fp, lr}
 765              	.LCFI12:
 766              		.cfi_def_cfa_offset 36
 767              		.cfi_offset 4, -36
 768              		.cfi_offset 5, -32
 769              		.cfi_offset 6, -28
 770              		.cfi_offset 7, -24
 771              		.cfi_offset 8, -20
 772              		.cfi_offset 9, -16
ARM GAS  /tmp/ccbq1EWD.s 			page 21


 773              		.cfi_offset 10, -12
 774              		.cfi_offset 11, -8
 775              		.cfi_offset 14, -4
 776 0004 0446     		mov	r4, r0
 777              	.LVL90:
 778 0006 83B0     		sub	sp, sp, #12
 779              	.LCFI13:
 780              		.cfi_def_cfa_offset 48
  16:MakiseGUI/MakiseGUI/gui/elements/makise_e_slist.c **** 
 781              		.loc 1 16 0
 782 0008 0868     		ldr	r0, [r1]
 783              	.LVL91:
 784 000a 6060     		str	r0, [r4, #4]
  14:MakiseGUI/MakiseGUI/gui/elements/makise_e_slist.c ****     MElement *e = &b->el;
 785              		.loc 1 14 0
 786 000c 9846     		mov	r8, r3
  20:MakiseGUI/MakiseGUI/gui/elements/makise_e_slist.c **** 
 787              		.loc 1 20 0
 788 000e 0846     		mov	r0, r1
  14:MakiseGUI/MakiseGUI/gui/elements/makise_e_slist.c ****     MElement *e = &b->el;
 789              		.loc 1 14 0
 790 0010 0F9B     		ldr	r3, [sp, #60]
 791              	.LVL92:
  18:MakiseGUI/MakiseGUI/gui/elements/makise_e_slist.c ****     
 792              		.loc 1 18 0
 793 0012 A463     		str	r4, [r4, #56]
  20:MakiseGUI/MakiseGUI/gui/elements/makise_e_slist.c **** 
 794              		.loc 1 20 0
 795 0014 211D     		adds	r1, r4, #4
 796              	.LVL93:
  14:MakiseGUI/MakiseGUI/gui/elements/makise_e_slist.c ****     MElement *e = &b->el;
 797              		.loc 1 14 0
 798 0016 0193     		str	r3, [sp, #4]
 799 0018 0092     		str	r2, [sp]
 800 001a DDF830B0 		ldr	fp, [sp, #48]
 801 001e DDF834A0 		ldr	r10, [sp, #52]
 802 0022 DDF83890 		ldr	r9, [sp, #56]
 803 0026 109F     		ldr	r7, [sp, #64]
 804 0028 119E     		ldr	r6, [sp, #68]
 805 002a 129D     		ldr	r5, [sp, #72]
  20:MakiseGUI/MakiseGUI/gui/elements/makise_e_slist.c **** 
 806              		.loc 1 20 0
 807 002c FFF7FEFF 		bl	makise_g_cont_add
 808              	.LVL94:
  29:MakiseGUI/MakiseGUI/gui/elements/makise_e_slist.c ****     e->position.y = y;
 809              		.loc 1 29 0
 810 0030 009A     		ldr	r2, [sp]
  22:MakiseGUI/MakiseGUI/gui/elements/makise_e_slist.c ****     e->predraw = 0;
 811              		.loc 1 22 0
 812 0032 DFF86CE0 		ldr	lr, .L74+12
  29:MakiseGUI/MakiseGUI/gui/elements/makise_e_slist.c ****     e->position.y = y;
 813              		.loc 1 29 0
 814 0036 E261     		str	r2, [r4, #28]
  23:MakiseGUI/MakiseGUI/gui/elements/makise_e_slist.c ****     e->update = 0;
 815              		.loc 1 23 0
 816 0038 0021     		movs	r1, #0
  26:MakiseGUI/MakiseGUI/gui/elements/makise_e_slist.c ****     e->free =  0;
ARM GAS  /tmp/ccbq1EWD.s 			page 22


 817              		.loc 1 26 0
 818 003a 164A     		ldr	r2, .L74
  30:MakiseGUI/MakiseGUI/gui/elements/makise_e_slist.c ****     e->position.width = w;
 819              		.loc 1 30 0
 820 003c C4F82080 		str	r8, [r4, #32]
  25:MakiseGUI/MakiseGUI/gui/elements/makise_e_slist.c ****     e->focus = &_m_slist_focus;
 821              		.loc 1 25 0
 822 0040 1548     		ldr	r0, .L74+4
  23:MakiseGUI/MakiseGUI/gui/elements/makise_e_slist.c ****     e->update = 0;
 823              		.loc 1 23 0
 824 0042 2164     		str	r1, [r4, #64]
  34:MakiseGUI/MakiseGUI/gui/elements/makise_e_slist.c ****     e->id = makise_g_newid();
 825              		.loc 1 34 0
 826 0044 4FF00108 		mov	r8, #1
 827              	.LVL95:
  24:MakiseGUI/MakiseGUI/gui/elements/makise_e_slist.c ****     e->input = &_m_slist_input;
 828              		.loc 1 24 0
 829 0048 6164     		str	r1, [r4, #68]
  27:MakiseGUI/MakiseGUI/gui/elements/makise_e_slist.c **** 	
 830              		.loc 1 27 0
 831 004a 2165     		str	r1, [r4, #80]
  31:MakiseGUI/MakiseGUI/gui/elements/makise_e_slist.c ****     e->position.height = h;
 832              		.loc 1 31 0
 833 004c C4F824B0 		str	fp, [r4, #36]
  32:MakiseGUI/MakiseGUI/gui/elements/makise_e_slist.c **** 
 834              		.loc 1 32 0
 835 0050 C4F828A0 		str	r10, [r4, #40]
  22:MakiseGUI/MakiseGUI/gui/elements/makise_e_slist.c ****     e->predraw = 0;
 836              		.loc 1 22 0
 837 0054 C4F83CE0 		str	lr, [r4, #60]
  25:MakiseGUI/MakiseGUI/gui/elements/makise_e_slist.c ****     e->focus = &_m_slist_focus;
 838              		.loc 1 25 0
 839 0058 A064     		str	r0, [r4, #72]
  26:MakiseGUI/MakiseGUI/gui/elements/makise_e_slist.c ****     e->free =  0;
 840              		.loc 1 26 0
 841 005a E264     		str	r2, [r4, #76]
  34:MakiseGUI/MakiseGUI/gui/elements/makise_e_slist.c ****     e->id = makise_g_newid();
 842              		.loc 1 34 0
 843 005c 84F81880 		strb	r8, [r4, #24]
  27:MakiseGUI/MakiseGUI/gui/elements/makise_e_slist.c **** 	
 844              		.loc 1 27 0
 845 0060 0091     		str	r1, [sp]
 846              	.LVL96:
  35:MakiseGUI/MakiseGUI/gui/elements/makise_e_slist.c ****     e->focus_prior = 1;
 847              		.loc 1 35 0
 848 0062 FFF7FEFF 		bl	makise_g_newid
 849              	.LVL97:
  43:MakiseGUI/MakiseGUI/gui/elements/makise_e_slist.c ****     b->is_array = 0;
 850              		.loc 1 43 0
 851 0066 0099     		ldr	r1, [sp]
  40:MakiseGUI/MakiseGUI/gui/elements/makise_e_slist.c ****     b->click = click;
 852              		.loc 1 40 0
 853 0068 019B     		ldr	r3, [sp, #4]
  43:MakiseGUI/MakiseGUI/gui/elements/makise_e_slist.c ****     b->is_array = 0;
 854              		.loc 1 43 0
 855 006a A165     		str	r1, [r4, #88]
  44:MakiseGUI/MakiseGUI/gui/elements/makise_e_slist.c ****     b->len = 0;
ARM GAS  /tmp/ccbq1EWD.s 			page 23


 856              		.loc 1 44 0
 857 006c 84F85C10 		strb	r1, [r4, #92]
  45:MakiseGUI/MakiseGUI/gui/elements/makise_e_slist.c ****     b->selected = 0;
 858              		.loc 1 45 0
 859 0070 2166     		str	r1, [r4, #96]
  46:MakiseGUI/MakiseGUI/gui/elements/makise_e_slist.c ****     
 860              		.loc 1 46 0
 861 0072 6166     		str	r1, [r4, #100]
  35:MakiseGUI/MakiseGUI/gui/elements/makise_e_slist.c ****     e->focus_prior = 1;
 862              		.loc 1 35 0
 863 0074 A060     		str	r0, [r4, #8]
  51:MakiseGUI/MakiseGUI/gui/elements/makise_e_slist.c **** }
 864              		.loc 1 51 0
 865 0076 0146     		mov	r1, r0
 866 0078 0848     		ldr	r0, .L74+8
  38:MakiseGUI/MakiseGUI/gui/elements/makise_e_slist.c **** 
 867              		.loc 1 38 0
 868 007a C4F85490 		str	r9, [r4, #84]
  36:MakiseGUI/MakiseGUI/gui/elements/makise_e_slist.c ****     
 869              		.loc 1 36 0
 870 007e 84F83480 		strb	r8, [r4, #52]
  40:MakiseGUI/MakiseGUI/gui/elements/makise_e_slist.c ****     b->click = click;
 871              		.loc 1 40 0
 872 0082 A366     		str	r3, [r4, #104]
  41:MakiseGUI/MakiseGUI/gui/elements/makise_e_slist.c **** 
 873              		.loc 1 41 0
 874 0084 E766     		str	r7, [r4, #108]
  48:MakiseGUI/MakiseGUI/gui/elements/makise_e_slist.c ****     b->item_style = item_style;
 875              		.loc 1 48 0
 876 0086 2667     		str	r6, [r4, #112]
  49:MakiseGUI/MakiseGUI/gui/elements/makise_e_slist.c ****     
 877              		.loc 1 49 0
 878 0088 6567     		str	r5, [r4, #116]
  52:MakiseGUI/MakiseGUI/gui/elements/makise_e_slist.c **** 
 879              		.loc 1 52 0
 880 008a 03B0     		add	sp, sp, #12
 881              	.LCFI14:
 882              		.cfi_def_cfa_offset 36
 883              		@ sp needed
 884 008c BDE8F04F 		pop	{r4, r5, r6, r7, r8, r9, r10, fp, lr}
 885              	.LCFI15:
 886              		.cfi_restore 14
 887              		.cfi_restore 11
 888              		.cfi_restore 10
 889              		.cfi_restore 9
 890              		.cfi_restore 8
 891              		.cfi_restore 7
 892              		.cfi_restore 6
 893              		.cfi_restore 5
 894              		.cfi_restore 4
 895              		.cfi_def_cfa_offset 0
 896              	.LVL98:
  51:MakiseGUI/MakiseGUI/gui/elements/makise_e_slist.c **** }
 897              		.loc 1 51 0
 898 0090 FFF7FEBF 		b	printf
 899              	.LVL99:
 900              	.L75:
ARM GAS  /tmp/ccbq1EWD.s 			page 24


 901              		.align	2
 902              	.L74:
 903 0094 00000000 		.word	_m_slist_focus
 904 0098 00000000 		.word	_m_slist_input
 905 009c 00000000 		.word	.LC0
 906 00a0 00000000 		.word	_m_slist_draw
 907              		.cfi_endproc
 908              	.LFE126:
 910              		.section	.text.m_slist_set_array,"ax",%progbits
 911              		.align	1
 912              		.p2align 2,,3
 913              		.global	m_slist_set_array
 914              		.syntax unified
 915              		.thumb
 916              		.thumb_func
 917              		.fpu fpv4-sp-d16
 919              	m_slist_set_array:
 920              	.LFB128:
 159:MakiseGUI/MakiseGUI/gui/elements/makise_e_slist.c ****     l->items = array;
 921              		.loc 1 159 0
 922              		.cfi_startproc
 923              		@ args = 0, pretend = 0, frame = 0
 924              		@ frame_needed = 0, uses_anonymous_args = 0
 925              		@ link register save eliminated.
 926              	.LVL100:
 163:MakiseGUI/MakiseGUI/gui/elements/makise_e_slist.c ****     MSList_Item *lst = 0;
 927              		.loc 1 163 0
 928 0000 0123     		movs	r3, #1
 160:MakiseGUI/MakiseGUI/gui/elements/makise_e_slist.c ****     l->len = len;
 929              		.loc 1 160 0
 930 0002 8165     		str	r1, [r0, #88]
 162:MakiseGUI/MakiseGUI/gui/elements/makise_e_slist.c ****     l->is_array = 1;
 931              		.loc 1 162 0
 932 0004 4166     		str	r1, [r0, #100]
 161:MakiseGUI/MakiseGUI/gui/elements/makise_e_slist.c ****     l->selected = array;
 933              		.loc 1 161 0
 934 0006 0266     		str	r2, [r0, #96]
 163:MakiseGUI/MakiseGUI/gui/elements/makise_e_slist.c ****     MSList_Item *lst = 0;
 935              		.loc 1 163 0
 936 0008 80F85C30 		strb	r3, [r0, #92]
 937              	.LVL101:
 938              	.LBB10:
 165:MakiseGUI/MakiseGUI/gui/elements/makise_e_slist.c ****     {
 939              		.loc 1 165 0
 940 000c D2B1     		cbz	r2, .L88
 941 000e 0020     		movs	r0, #0
 942              	.LVL102:
 943              	.LBE10:
 159:MakiseGUI/MakiseGUI/gui/elements/makise_e_slist.c ****     l->items = array;
 944              		.loc 1 159 0
 945 0010 70B4     		push	{r4, r5, r6}
 946              	.LCFI16:
 947              		.cfi_def_cfa_offset 12
 948              		.cfi_offset 4, -12
 949              		.cfi_offset 5, -8
 950              		.cfi_offset 6, -4
 951 0012 0B46     		mov	r3, r1
ARM GAS  /tmp/ccbq1EWD.s 			page 25


 952              	.LBB11:
 165:MakiseGUI/MakiseGUI/gui/elements/makise_e_slist.c ****     {
 953              		.loc 1 165 0
 954 0014 0546     		mov	r5, r0
 955 0016 05E0     		b	.L79
 956              	.LVL103:
 957              	.L89:
 170:MakiseGUI/MakiseGUI/gui/elements/makise_e_slist.c **** 	
 958              		.loc 1 170 0 discriminator 1
 959 0018 43F80C0C 		str	r0, [r3, #-12]
 960              	.LVL104:
 168:MakiseGUI/MakiseGUI/gui/elements/makise_e_slist.c **** 
 961              		.loc 1 168 0 discriminator 1
 962 001c 43F8103C 		str	r3, [r3, #-16]
 963 0020 3546     		mov	r5, r6
 964 0022 2046     		mov	r0, r4
 965              	.LVL105:
 966              	.L79:
 168:MakiseGUI/MakiseGUI/gui/elements/makise_e_slist.c **** 
 967              		.loc 1 168 0 is_stmt 0
 968 0024 441C     		adds	r4, r0, #1
 969 0026 A242     		cmp	r2, r4
 167:MakiseGUI/MakiseGUI/gui/elements/makise_e_slist.c **** 	array[i].next = ((i + 1) < len) ? &array[i+1] : 0;
 970              		.loc 1 167 0 is_stmt 1
 971 0028 1E46     		mov	r6, r3
 972 002a 43F8145B 		str	r5, [r3], #20
 168:MakiseGUI/MakiseGUI/gui/elements/makise_e_slist.c **** 
 973              		.loc 1 168 0
 974 002e F3D1     		bne	.L89
 975 0030 02EB8202 		add	r2, r2, r2, lsl #2
 976              	.LVL106:
 977              	.LBE11:
 174:MakiseGUI/MakiseGUI/gui/elements/makise_e_slist.c **** void m_slist_set_list(MSList *l, MSList_Item *first); //set linked list as new data source.
 978              		.loc 1 174 0
 979 0034 70BC     		pop	{r4, r5, r6}
 980              	.LCFI17:
 981              		.cfi_restore 6
 982              		.cfi_restore 5
 983              		.cfi_restore 4
 984              		.cfi_def_cfa_offset 0
 985              	.LVL107:
 986 0036 01EB8202 		add	r2, r1, r2, lsl #2
 987 003a A2F11403 		sub	r3, r2, #20
 988              	.LVL108:
 989              	.LBB12:
 168:MakiseGUI/MakiseGUI/gui/elements/makise_e_slist.c **** 
 990              		.loc 1 168 0
 991 003e 0022     		movs	r2, #0
 170:MakiseGUI/MakiseGUI/gui/elements/makise_e_slist.c **** 	
 992              		.loc 1 170 0
 993 0040 9860     		str	r0, [r3, #8]
 994              	.LVL109:
 168:MakiseGUI/MakiseGUI/gui/elements/makise_e_slist.c **** 
 995              		.loc 1 168 0
 996 0042 5A60     		str	r2, [r3, #4]
 997              	.LVL110:
 998              	.L88:
ARM GAS  /tmp/ccbq1EWD.s 			page 26


 999              	.LBE12:
 174:MakiseGUI/MakiseGUI/gui/elements/makise_e_slist.c **** void m_slist_set_list(MSList *l, MSList_Item *first); //set linked list as new data source.
 1000              		.loc 1 174 0
 1001 0044 7047     		bx	lr
 1002              		.cfi_endproc
 1003              	.LFE128:
 1005              		.comm	makise_color_palette,4,4
 1006 0046 00BF     		.section	.rodata.m_create_slist.str1.4,"aMS",%progbits,1
 1007              		.align	2
 1008              	.LC0:
 1009 0000 536C6973 		.ascii	"Slist %d created\012\000"
 1009      74202564 
 1009      20637265 
 1009      61746564 
 1009      0A00
 1010              		.text
 1011              	.Letext0:
 1012              		.file 2 "MakiseGUI/MakiseGUI/gui/makise_gui_elements.h"
 1013              		.file 3 "MakiseGUI/MakiseGUI/gui/makise_gui.h"
 1014              		.file 4 "MakiseGUI/MakiseGUI/makise.h"
 1015              		.file 5 "/usr/arm-none-eabi/include/machine/_default_types.h"
 1016              		.file 6 "/usr/arm-none-eabi/include/sys/lock.h"
 1017              		.file 7 "/usr/arm-none-eabi/include/sys/_types.h"
 1018              		.file 8 "/usr/lib/gcc/arm-none-eabi/6.3.0/include/stddef.h"
 1019              		.file 9 "/usr/arm-none-eabi/include/sys/reent.h"
 1020              		.file 10 "/usr/arm-none-eabi/include/sys/_stdint.h"
 1021              		.file 11 "Drivers/CMSIS/Include/core_cm4.h"
 1022              		.file 12 "Drivers/CMSIS/Device/ST/STM32F4xx/Include/system_stm32f4xx.h"
 1023              		.file 13 "Drivers/CMSIS/Device/ST/STM32F4xx/Include/stm32f401xe.h"
 1024              		.file 14 "Drivers/STM32F4xx_HAL_Driver/Inc/stm32f4xx_hal_def.h"
 1025              		.file 15 "Drivers/STM32F4xx_HAL_Driver/Inc/stm32f4xx_hal_dma.h"
 1026              		.file 16 "Drivers/STM32F4xx_HAL_Driver/Inc/stm32f4xx_hal_spi.h"
 1027              		.file 17 "Drivers/STM32F4xx_HAL_Driver/Inc/stm32f4xx_hal_tim.h"
 1028              		.file 18 "Inc/spi.h"
 1029              		.file 19 "Inc/tim.h"
 1030              		.file 20 "MakiseGUI/MakiseGUI/ILI9340C/ili9340.h"
 1031              		.file 21 "MakiseGUI/MakiseGUI/makise_colors.h"
 1032              		.file 22 "MakiseGUI/MakiseGUI/makise_text.h"
 1033              		.file 23 "MakiseGUI/MakiseGUI/fonts/fonts.h"
 1034              		.file 24 "MakiseGUI/MakiseGUI/gui/styles/makise_style.h"
 1035              		.file 25 "MakiseGUI/MakiseGUI/gui/makise_gui_input.h"
 1036              		.file 26 "MakiseGUI/MakiseGUI/gui/makise_gui_container.h"
 1037              		.file 27 "MakiseGUI/MakiseGUI/gui/elements/makise_e.h"
 1038              		.file 28 "MakiseGUI/MakiseGUI/makise_primitives.h"
 1039              		.file 29 "/usr/arm-none-eabi/include/stdio.h"
ARM GAS  /tmp/ccbq1EWD.s 			page 27


DEFINED SYMBOLS
                            *ABS*:0000000000000000 makise_e_slist.c
     /tmp/ccbq1EWD.s:16     .text._m_slist_focus:0000000000000000 $t
     /tmp/ccbq1EWD.s:24     .text._m_slist_focus:0000000000000000 _m_slist_focus
     /tmp/ccbq1EWD.s:76     .text._m_slist_input:0000000000000000 $t
     /tmp/ccbq1EWD.s:84     .text._m_slist_input:0000000000000000 _m_slist_input
     /tmp/ccbq1EWD.s:282    .text._m_slist_draw:0000000000000000 $t
     /tmp/ccbq1EWD.s:290    .text._m_slist_draw:0000000000000000 _m_slist_draw
     /tmp/ccbq1EWD.s:749    .text.m_create_slist:0000000000000000 $t
     /tmp/ccbq1EWD.s:757    .text.m_create_slist:0000000000000000 m_create_slist
     /tmp/ccbq1EWD.s:903    .text.m_create_slist:0000000000000094 $d
     /tmp/ccbq1EWD.s:911    .text.m_slist_set_array:0000000000000000 $t
     /tmp/ccbq1EWD.s:919    .text.m_slist_set_array:0000000000000000 m_slist_set_array
                            *COM*:0000000000000004 makise_color_palette
     /tmp/ccbq1EWD.s:1007   .rodata.m_create_slist.str1.4:0000000000000000 $d
                     .debug_frame:0000000000000010 $d

UNDEFINED SYMBOLS
_m_e_helper_draw_box
makise_d_line
makise_d_rect_filled
makise_d_string_frame
makise_g_cont_add
makise_g_newid
printf
