ARM GAS  /tmp/ccZP2ay6.s 			page 1


   1              		.cpu cortex-m4
   2              		.eabi_attribute 27, 1
   3              		.eabi_attribute 28, 1
   4              		.eabi_attribute 20, 1
   5              		.eabi_attribute 21, 1
   6              		.eabi_attribute 23, 3
   7              		.eabi_attribute 24, 1
   8              		.eabi_attribute 25, 1
   9              		.eabi_attribute 26, 1
  10              		.eabi_attribute 30, 2
  11              		.eabi_attribute 34, 1
  12              		.eabi_attribute 18, 4
  13              		.file	"makise_test.c"
  14              		.text
  15              	.Ltext0:
  16              		.cfi_sections	.debug_frame
  17              		.section	.text.mt_predraw,"ax",%progbits
  18              		.align	1
  19              		.p2align 2,,3
  20              		.global	mt_predraw
  21              		.syntax unified
  22              		.thumb
  23              		.thumb_func
  24              		.fpu fpv4-sp-d16
  26              	mt_predraw:
  27              	.LFB128:
  28              		.file 1 "Src/makise_test.c"
   1:Src/makise_test.c **** #include "makise_test.h"
   2:Src/makise_test.c **** 
   3:Src/makise_test.c **** MakiseGUI* mGui;
   4:Src/makise_test.c **** MHost *host;
   5:Src/makise_test.c **** 
   6:Src/makise_test.c **** void HAL_SPI_TxHalfCpltCallback(SPI_HandleTypeDef *hspi)
   7:Src/makise_test.c **** {
   8:Src/makise_test.c ****     if(hspi == &ILI9340_SPI)
   9:Src/makise_test.c **** 	ili9340_spi_txhalfcplt(mGui->driver);
  10:Src/makise_test.c **** }
  11:Src/makise_test.c **** void HAL_SPI_TxCpltCallback(SPI_HandleTypeDef *hspi)
  12:Src/makise_test.c **** {
  13:Src/makise_test.c ****     if(hspi == &ILI9340_SPI)
  14:Src/makise_test.c **** 	ili9340_spi_txcplt(mGui->driver);
  15:Src/makise_test.c **** }
  16:Src/makise_test.c **** 
  17:Src/makise_test.c **** MButton butt[3];
  18:Src/makise_test.c **** void mt_predraw(MakiseGUI * g)
  19:Src/makise_test.c **** {
  29              		.loc 1 19 0
  30              		.cfi_startproc
  31              		@ args = 0, pretend = 0, frame = 0
  32              		@ frame_needed = 0, uses_anonymous_args = 0
  33              		@ link register save eliminated.
  34              	.LVL0:
  35 0000 10B4     		push	{r4}
  36              	.LCFI0:
  37              		.cfi_def_cfa_offset 4
  38              		.cfi_offset 4, -4
  20:Src/makise_test.c ****     butt[1].el.position.x = (butt[1].el.position.x+1) %150;
ARM GAS  /tmp/ccZP2ay6.s 			page 2


  39              		.loc 1 20 0
  40 0002 0B4C     		ldr	r4, .L3
  41 0004 0B49     		ldr	r1, .L3+4
  42 0006 D4F88420 		ldr	r2, [r4, #132]
  21:Src/makise_test.c ****     makise_g_host_call(host, M_G_CALL_PREDRAW);
  43              		.loc 1 21 0
  44 000a 0B48     		ldr	r0, .L3+8
  45              	.LVL1:
  20:Src/makise_test.c ****     butt[1].el.position.x = (butt[1].el.position.x+1) %150;
  46              		.loc 1 20 0
  47 000c 0132     		adds	r2, r2, #1
  48 000e 81FB0231 		smull	r3, r1, r1, r2
  49 0012 D317     		asrs	r3, r2, #31
  50 0014 C3EB2113 		rsb	r3, r3, r1, asr #4
  51 0018 9621     		movs	r1, #150
  52 001a 01FB1323 		mls	r3, r1, r3, r2
  53 001e C4F88430 		str	r3, [r4, #132]
  54              		.loc 1 21 0
  55 0022 0068     		ldr	r0, [r0]
  22:Src/makise_test.c **** }
  56              		.loc 1 22 0
  57 0024 5DF8044B 		ldr	r4, [sp], #4
  58              	.LCFI1:
  59              		.cfi_restore 4
  60              		.cfi_def_cfa_offset 0
  21:Src/makise_test.c ****     makise_g_host_call(host, M_G_CALL_PREDRAW);
  61              		.loc 1 21 0
  62 0028 0221     		movs	r1, #2
  63 002a FFF7FEBF 		b	makise_g_host_call
  64              	.LVL2:
  65              	.L4:
  66 002e 00BF     		.align	2
  67              	.L3:
  68 0030 00000000 		.word	butt
  69 0034 B5814E1B 		.word	458129845
  70 0038 00000000 		.word	host
  71              		.cfi_endproc
  72              	.LFE128:
  74              		.section	.text.HAL_SPI_TxHalfCpltCallback,"ax",%progbits
  75              		.align	1
  76              		.p2align 2,,3
  77              		.global	HAL_SPI_TxHalfCpltCallback
  78              		.syntax unified
  79              		.thumb
  80              		.thumb_func
  81              		.fpu fpv4-sp-d16
  83              	HAL_SPI_TxHalfCpltCallback:
  84              	.LFB126:
   7:Src/makise_test.c ****     if(hspi == &ILI9340_SPI)
  85              		.loc 1 7 0
  86              		.cfi_startproc
  87              		@ args = 0, pretend = 0, frame = 0
  88              		@ frame_needed = 0, uses_anonymous_args = 0
  89              		@ link register save eliminated.
  90              	.LVL3:
   8:Src/makise_test.c **** 	ili9340_spi_txhalfcplt(mGui->driver);
  91              		.loc 1 8 0
ARM GAS  /tmp/ccZP2ay6.s 			page 3


  92 0000 044B     		ldr	r3, .L9
  93 0002 8342     		cmp	r3, r0
  94 0004 00D0     		beq	.L8
  95 0006 7047     		bx	lr
  96              	.L8:
   9:Src/makise_test.c **** }
  97              		.loc 1 9 0
  98 0008 034B     		ldr	r3, .L9+4
  99 000a 1B68     		ldr	r3, [r3]
 100 000c 5868     		ldr	r0, [r3, #4]
 101              	.LVL4:
 102 000e FFF7FEBF 		b	ili9340_spi_txhalfcplt
 103              	.LVL5:
 104              	.L10:
 105 0012 00BF     		.align	2
 106              	.L9:
 107 0014 00000000 		.word	hspi1
 108 0018 00000000 		.word	mGui
 109              		.cfi_endproc
 110              	.LFE126:
 112              		.section	.text.HAL_SPI_TxCpltCallback,"ax",%progbits
 113              		.align	1
 114              		.p2align 2,,3
 115              		.global	HAL_SPI_TxCpltCallback
 116              		.syntax unified
 117              		.thumb
 118              		.thumb_func
 119              		.fpu fpv4-sp-d16
 121              	HAL_SPI_TxCpltCallback:
 122              	.LFB127:
  12:Src/makise_test.c ****     if(hspi == &ILI9340_SPI)
 123              		.loc 1 12 0
 124              		.cfi_startproc
 125              		@ args = 0, pretend = 0, frame = 0
 126              		@ frame_needed = 0, uses_anonymous_args = 0
 127              		@ link register save eliminated.
 128              	.LVL6:
  13:Src/makise_test.c **** 	ili9340_spi_txcplt(mGui->driver);
 129              		.loc 1 13 0
 130 0000 044B     		ldr	r3, .L14
 131 0002 8342     		cmp	r3, r0
 132 0004 00D0     		beq	.L13
 133 0006 7047     		bx	lr
 134              	.L13:
  14:Src/makise_test.c **** }
 135              		.loc 1 14 0
 136 0008 034B     		ldr	r3, .L14+4
 137 000a 1B68     		ldr	r3, [r3]
 138 000c 5868     		ldr	r0, [r3, #4]
 139              	.LVL7:
 140 000e FFF7FEBF 		b	ili9340_spi_txcplt
 141              	.LVL8:
 142              	.L15:
 143 0012 00BF     		.align	2
 144              	.L14:
 145 0014 00000000 		.word	hspi1
 146 0018 00000000 		.word	mGui
ARM GAS  /tmp/ccZP2ay6.s 			page 4


 147              		.cfi_endproc
 148              	.LFE127:
 150              		.section	.text.mt_start,"ax",%progbits
 151              		.align	1
 152              		.p2align 2,,3
 153              		.global	mt_start
 154              		.syntax unified
 155              		.thumb
 156              		.thumb_func
 157              		.fpu fpv4-sp-d16
 159              	mt_start:
 160              	.LFB129:
  23:Src/makise_test.c **** 
  24:Src/makise_test.c **** char t0[] = "dsf";
  25:Src/makise_test.c **** char t1[] = {208, 204, 255};
  26:Src/makise_test.c **** char t2[] = "GAD";
  27:Src/makise_test.c **** 
  28:Src/makise_test.c **** MakiseGUI    Gu;
  29:Src/makise_test.c **** MakiseBuffer Bu;
  30:Src/makise_test.c **** MakiseDriver Dr;
  31:Src/makise_test.c **** MHost hs;
  32:Src/makise_test.c **** MContainer co;
  33:Src/makise_test.c **** uint32_t sb[7680/4] = {0};
  34:Src/makise_test.c **** uint32_t bb[19200/4] = {0};
  35:Src/makise_test.c **** MakiseGUI* mt_start()
  36:Src/makise_test.c **** {
 161              		.loc 1 36 0
 162              		.cfi_startproc
 163              		@ args = 0, pretend = 0, frame = 0
 164              		@ frame_needed = 0, uses_anonymous_args = 0
 165              	.LVL9:
 166 0000 2DE9F04F 		push	{r4, r5, r6, r7, r8, r9, r10, fp, lr}
 167              	.LCFI2:
 168              		.cfi_def_cfa_offset 36
 169              		.cfi_offset 4, -36
 170              		.cfi_offset 5, -32
 171              		.cfi_offset 6, -28
 172              		.cfi_offset 7, -24
 173              		.cfi_offset 8, -20
 174              		.cfi_offset 9, -16
 175              		.cfi_offset 10, -12
 176              		.cfi_offset 11, -8
 177              		.cfi_offset 14, -4
  37:Src/makise_test.c ****     //malloc structures
  38:Src/makise_test.c ****     MakiseGUI    * gu = &Gu;//malloc(sizeof(MakiseGUI));
  39:Src/makise_test.c ****     MakiseBuffer * bu = &Bu;//malloc(sizeof(MakiseBuffer));
  40:Src/makise_test.c ****     MakiseDriver * dr = &Dr;//malloc(sizeof(MakiseDriver));
  41:Src/makise_test.c ****     host = &hs;//malloc(sizeof(MHost));
  42:Src/makise_test.c ****     host->host = &co;//malloc(sizeof(MContainer));
  43:Src/makise_test.c ****     host->host->gui = gu;
  44:Src/makise_test.c **** 
  45:Src/makise_test.c ****     //init driver structure
  46:Src/makise_test.c ****     ili9340_driver(dr);
 178              		.loc 1 46 0
 179 0004 384D     		ldr	r5, .L18
  41:Src/makise_test.c ****     host->host = &co;//malloc(sizeof(MContainer));
 180              		.loc 1 41 0
ARM GAS  /tmp/ccZP2ay6.s 			page 5


 181 0006 394F     		ldr	r7, .L18+4
 182 0008 394A     		ldr	r2, .L18+8
  42:Src/makise_test.c ****     host->host->gui = gu;
 183              		.loc 1 42 0
 184 000a 3A4B     		ldr	r3, .L18+12
  47:Src/makise_test.c ****     //malloc small buffer
  48:Src/makise_test.c ****     dr->buffer = sb;//malloc(dr->size);
  49:Src/makise_test.c ****     printf("%d\n", (uint32_t)(dr->size));
 185              		.loc 1 49 0
 186 000c 3A4E     		ldr	r6, .L18+16
  43:Src/makise_test.c **** 
 187              		.loc 1 43 0
 188 000e 3B4C     		ldr	r4, .L18+20
  50:Src/makise_test.c ****     //init gui struct
  51:Src/makise_test.c **** 
  52:Src/makise_test.c ****     uint32_t sz = makise_init(gu, dr, bu);
 189              		.loc 1 52 0
 190 0010 DFF80881 		ldr	r8, .L18+52
  41:Src/makise_test.c ****     host->host = &co;//malloc(sizeof(MContainer));
 191              		.loc 1 41 0
 192 0014 3A60     		str	r2, [r7]
  36:Src/makise_test.c ****     //malloc structures
 193              		.loc 1 36 0
 194 0016 87B0     		sub	sp, sp, #28
 195              	.LCFI3:
 196              		.cfi_def_cfa_offset 64
  46:Src/makise_test.c ****     //malloc small buffer
 197              		.loc 1 46 0
 198 0018 2846     		mov	r0, r5
  42:Src/makise_test.c ****     host->host->gui = gu;
 199              		.loc 1 42 0
 200 001a 1360     		str	r3, [r2]
  43:Src/makise_test.c **** 
 201              		.loc 1 43 0
 202 001c 1C60     		str	r4, [r3]
  46:Src/makise_test.c ****     //malloc small buffer
 203              		.loc 1 46 0
 204 001e FFF7FEFF 		bl	ili9340_driver
 205              	.LVL10:
  48:Src/makise_test.c ****     printf("%d\n", (uint32_t)(dr->size));
 206              		.loc 1 48 0
 207 0022 374B     		ldr	r3, .L18+24
  49:Src/makise_test.c ****     //init gui struct
 208              		.loc 1 49 0
 209 0024 6969     		ldr	r1, [r5, #20]
  48:Src/makise_test.c ****     printf("%d\n", (uint32_t)(dr->size));
 210              		.loc 1 48 0
 211 0026 2B61     		str	r3, [r5, #16]
  49:Src/makise_test.c ****     //init gui struct
 212              		.loc 1 49 0
 213 0028 3046     		mov	r0, r6
 214 002a FFF7FEFF 		bl	printf
 215              	.LVL11:
 216              		.loc 1 52 0
 217 002e 2946     		mov	r1, r5
 218 0030 4246     		mov	r2, r8
 219 0032 2046     		mov	r0, r4
ARM GAS  /tmp/ccZP2ay6.s 			page 6


 220 0034 FFF7FEFF 		bl	makise_init
 221              	.LVL12:
 222 0038 0546     		mov	r5, r0
 223              	.LVL13:
  53:Src/makise_test.c ****     //malloc big buffer
  54:Src/makise_test.c ****     bu->buffer = bb;//malloc(sz);
  55:Src/makise_test.c ****     memset(bu->buffer, 0, sz);
 224              		.loc 1 55 0
 225 003a 2A46     		mov	r2, r5
  54:Src/makise_test.c ****     memset(bu->buffer, 0, sz);
 226              		.loc 1 54 0
 227 003c 3148     		ldr	r0, .L18+28
 228              	.LVL14:
 229 003e C8F80C00 		str	r0, [r8, #12]
 230              		.loc 1 55 0
 231 0042 0021     		movs	r1, #0
 232 0044 FFF7FEFF 		bl	memset
 233              	.LVL15:
  56:Src/makise_test.c ****     printf("%d\n", (uint32_t)(sz));
 234              		.loc 1 56 0
 235 0048 2946     		mov	r1, r5
 236 004a 3046     		mov	r0, r6
 237 004c FFF7FEFF 		bl	printf
 238              	.LVL16:
  57:Src/makise_test.c **** 
  58:Src/makise_test.c ****     m_button_create(&butt[0], host->host, 50, 50, 100, 70, t0, 0, 2, 1);
 239              		.loc 1 58 0
 240 0050 3B68     		ldr	r3, [r7]
 241 0052 DFF8CC80 		ldr	r8, .L18+56
 242 0056 1968     		ldr	r1, [r3]
 243 0058 2B4B     		ldr	r3, .L18+32
 244 005a 0293     		str	r3, [sp, #8]
 245 005c 0126     		movs	r6, #1
 246 005e 4FF00009 		mov	r9, #0
 247 0062 4FF0020B 		mov	fp, #2
 248 0066 4FF0460A 		mov	r10, #70
 249 006a 6425     		movs	r5, #100
 250              	.LVL17:
 251 006c 3223     		movs	r3, #50
 252 006e 4046     		mov	r0, r8
 253 0070 8DE82004 		stm	sp, {r5, r10}
 254 0074 1A46     		mov	r2, r3
 255 0076 0596     		str	r6, [sp, #20]
 256 0078 CDF810B0 		str	fp, [sp, #16]
 257 007c CDF80C90 		str	r9, [sp, #12]
 258 0080 FFF7FEFF 		bl	m_button_create
 259              	.LVL18:
  59:Src/makise_test.c ****     m_button_create(&butt[1], host->host, 50, 150, 100, 50, t1, 1, 0, 1);
 260              		.loc 1 59 0
 261 0084 3A68     		ldr	r2, [r7]
 262 0086 214B     		ldr	r3, .L18+36
 263 0088 1168     		ldr	r1, [r2]
 264 008a 0095     		str	r5, [sp]
 265 008c 3225     		movs	r5, #50
 266 008e 08F16800 		add	r0, r8, #104
 267 0092 0293     		str	r3, [sp, #8]
 268 0094 2A46     		mov	r2, r5
ARM GAS  /tmp/ccZP2ay6.s 			page 7


 269 0096 0596     		str	r6, [sp, #20]
 270 0098 CDF81090 		str	r9, [sp, #16]
 271 009c 0396     		str	r6, [sp, #12]
 272 009e 0195     		str	r5, [sp, #4]
 273 00a0 9623     		movs	r3, #150
 274 00a2 FFF7FEFF 		bl	m_button_create
 275              	.LVL19:
  60:Src/makise_test.c ****     m_button_create(&butt[2], host->host, 50, 220, 70, 50, t2, 2, 1, 0);
 276              		.loc 1 60 0
 277 00a6 3A68     		ldr	r2, [r7]
 278 00a8 194B     		ldr	r3, .L18+40
 279 00aa 1168     		ldr	r1, [r2]
  61:Src/makise_test.c **** 
  62:Src/makise_test.c ****     
  63:Src/makise_test.c ****     mGui = gu;
 280              		.loc 1 63 0
 281 00ac 194F     		ldr	r7, .L18+44
  60:Src/makise_test.c ****     m_button_create(&butt[2], host->host, 50, 220, 70, 50, t2, 2, 1, 0);
 282              		.loc 1 60 0
 283 00ae 0293     		str	r3, [sp, #8]
 284 00b0 2A46     		mov	r2, r5
 285 00b2 DC23     		movs	r3, #220
 286 00b4 08F1D000 		add	r0, r8, #208
 287 00b8 CDF81490 		str	r9, [sp, #20]
 288 00bc 0496     		str	r6, [sp, #16]
 289 00be CDF80CB0 		str	fp, [sp, #12]
 290 00c2 0195     		str	r5, [sp, #4]
 291 00c4 CDF800A0 		str	r10, [sp]
 292 00c8 FFF7FEFF 		bl	m_button_create
 293              	.LVL20:
  64:Src/makise_test.c ****     ili9340_init(gu);
 294              		.loc 1 64 0
 295 00cc 2046     		mov	r0, r4
  63:Src/makise_test.c ****     ili9340_init(gu);
 296              		.loc 1 63 0
 297 00ce 3C60     		str	r4, [r7]
 298              		.loc 1 64 0
 299 00d0 FFF7FEFF 		bl	ili9340_init
 300              	.LVL21:
  65:Src/makise_test.c ****     makise_start(gu);
 301              		.loc 1 65 0
 302 00d4 2046     		mov	r0, r4
 303 00d6 FFF7FEFF 		bl	makise_start
 304              	.LVL22:
  66:Src/makise_test.c **** 
  67:Src/makise_test.c ****     mGui->predraw = &mt_predraw;
 305              		.loc 1 67 0
 306 00da 3868     		ldr	r0, [r7]
 307 00dc 0E4B     		ldr	r3, .L18+48
 308 00de C360     		str	r3, [r0, #12]
  68:Src/makise_test.c ****     return mGui;
  69:Src/makise_test.c **** }
 309              		.loc 1 69 0
 310 00e0 07B0     		add	sp, sp, #28
 311              	.LCFI4:
 312              		.cfi_def_cfa_offset 36
 313              		@ sp needed
ARM GAS  /tmp/ccZP2ay6.s 			page 8


 314 00e2 BDE8F08F 		pop	{r4, r5, r6, r7, r8, r9, r10, fp, pc}
 315              	.L19:
 316 00e6 00BF     		.align	2
 317              	.L18:
 318 00e8 00000000 		.word	Dr
 319 00ec 00000000 		.word	host
 320 00f0 00000000 		.word	hs
 321 00f4 00000000 		.word	co
 322 00f8 00000000 		.word	.LC0
 323 00fc 00000000 		.word	Gu
 324 0100 00000000 		.word	.LANCHOR0
 325 0104 00000000 		.word	.LANCHOR1
 326 0108 00000000 		.word	.LANCHOR2
 327 010c 00000000 		.word	.LANCHOR3
 328 0110 00000000 		.word	.LANCHOR4
 329 0114 00000000 		.word	mGui
 330 0118 00000000 		.word	mt_predraw
 331 011c 00000000 		.word	Bu
 332 0120 00000000 		.word	butt
 333              		.cfi_endproc
 334              	.LFE129:
 336              		.global	bb
 337              		.global	sb
 338              		.comm	co,24,4
 339              		.comm	hs,4,4
 340              		.comm	Dr,48,4
 341              		.comm	Bu,20,4
 342              		.comm	Gu,20,4
 343              		.global	t2
 344              		.global	t1
 345              		.global	t0
 346              		.comm	butt,312,4
 347              		.comm	host,4,4
 348              		.comm	mGui,4,4
 349              		.section	.bss.bb,"aw",%nobits
 350              		.align	2
 351              		.set	.LANCHOR1,. + 0
 354              	bb:
 355 0000 00000000 		.space	19200
 355      00000000 
 355      00000000 
 355      00000000 
 355      00000000 
 356              		.section	.bss.sb,"aw",%nobits
 357              		.align	2
 358              		.set	.LANCHOR0,. + 0
 361              	sb:
 362 0000 00000000 		.space	7680
 362      00000000 
 362      00000000 
 362      00000000 
 362      00000000 
 363              		.section	.data.t0,"aw",%progbits
 364              		.align	2
 365              		.set	.LANCHOR2,. + 0
 368              	t0:
 369 0000 64736600 		.ascii	"dsf\000"
ARM GAS  /tmp/ccZP2ay6.s 			page 9


 370              		.section	.data.t1,"aw",%progbits
 371              		.align	2
 372              		.set	.LANCHOR3,. + 0
 375              	t1:
 376 0000 D0       		.byte	-48
 377 0001 CC       		.byte	-52
 378 0002 FF       		.byte	-1
 379              		.section	.data.t2,"aw",%progbits
 380              		.align	2
 381              		.set	.LANCHOR4,. + 0
 384              	t2:
 385 0000 47414400 		.ascii	"GAD\000"
 386              		.section	.rodata.mt_start.str1.4,"aMS",%progbits,1
 387              		.align	2
 388              	.LC0:
 389 0000 25640A00 		.ascii	"%d\012\000"
 390              		.text
 391              	.Letext0:
 392              		.file 2 "MakiseGUI/MakiseGUI/makise.h"
 393              		.file 3 "/usr/arm-none-eabi/include/machine/_default_types.h"
 394              		.file 4 "/usr/arm-none-eabi/include/sys/lock.h"
 395              		.file 5 "/usr/arm-none-eabi/include/sys/_types.h"
 396              		.file 6 "/usr/lib/gcc/arm-none-eabi/6.3.0/include/stddef.h"
 397              		.file 7 "/usr/arm-none-eabi/include/sys/reent.h"
 398              		.file 8 "/usr/arm-none-eabi/include/sys/_stdint.h"
 399              		.file 9 "Drivers/CMSIS/Include/core_cm4.h"
 400              		.file 10 "Drivers/CMSIS/Device/ST/STM32F4xx/Include/system_stm32f4xx.h"
 401              		.file 11 "Drivers/CMSIS/Device/ST/STM32F4xx/Include/stm32f401xe.h"
 402              		.file 12 "Drivers/STM32F4xx_HAL_Driver/Inc/stm32f4xx_hal_def.h"
 403              		.file 13 "Drivers/STM32F4xx_HAL_Driver/Inc/stm32f4xx_hal_dma.h"
 404              		.file 14 "Drivers/STM32F4xx_HAL_Driver/Inc/stm32f4xx_hal_spi.h"
 405              		.file 15 "Drivers/STM32F4xx_HAL_Driver/Inc/stm32f4xx_hal_tim.h"
 406              		.file 16 "Inc/spi.h"
 407              		.file 17 "Inc/tim.h"
 408              		.file 18 "MakiseGUI/MakiseGUI/ILI9340C/ili9340.h"
 409              		.file 19 "MakiseGUI/MakiseGUI/makise_text.h"
 410              		.file 20 "MakiseGUI/MakiseGUI/fonts/fonts.h"
 411              		.file 21 "MakiseGUI/MakiseGUI/gui/makise_gui.h"
 412              		.file 22 "MakiseGUI/MakiseGUI/gui/makise_gui_input.h"
 413              		.file 23 "MakiseGUI/MakiseGUI/gui/makise_gui_elements.h"
 414              		.file 24 "MakiseGUI/MakiseGUI/gui/makise_gui_container.h"
 415              		.file 25 "Inc/makise_test.h"
 416              		.file 26 "/usr/arm-none-eabi/include/stdio.h"
ARM GAS  /tmp/ccZP2ay6.s 			page 10


DEFINED SYMBOLS
                            *ABS*:0000000000000000 makise_test.c
     /tmp/ccZP2ay6.s:18     .text.mt_predraw:0000000000000000 $t
     /tmp/ccZP2ay6.s:26     .text.mt_predraw:0000000000000000 mt_predraw
     /tmp/ccZP2ay6.s:68     .text.mt_predraw:0000000000000030 $d
                            *COM*:0000000000000138 butt
                            *COM*:0000000000000004 host
     /tmp/ccZP2ay6.s:75     .text.HAL_SPI_TxHalfCpltCallback:0000000000000000 $t
     /tmp/ccZP2ay6.s:83     .text.HAL_SPI_TxHalfCpltCallback:0000000000000000 HAL_SPI_TxHalfCpltCallback
     /tmp/ccZP2ay6.s:107    .text.HAL_SPI_TxHalfCpltCallback:0000000000000014 $d
                            *COM*:0000000000000004 mGui
     /tmp/ccZP2ay6.s:113    .text.HAL_SPI_TxCpltCallback:0000000000000000 $t
     /tmp/ccZP2ay6.s:121    .text.HAL_SPI_TxCpltCallback:0000000000000000 HAL_SPI_TxCpltCallback
     /tmp/ccZP2ay6.s:145    .text.HAL_SPI_TxCpltCallback:0000000000000014 $d
     /tmp/ccZP2ay6.s:151    .text.mt_start:0000000000000000 $t
     /tmp/ccZP2ay6.s:159    .text.mt_start:0000000000000000 mt_start
     /tmp/ccZP2ay6.s:318    .text.mt_start:00000000000000e8 $d
                            *COM*:0000000000000030 Dr
                            *COM*:0000000000000004 hs
                            *COM*:0000000000000018 co
                            *COM*:0000000000000014 Gu
                            *COM*:0000000000000014 Bu
     /tmp/ccZP2ay6.s:354    .bss.bb:0000000000000000 bb
     /tmp/ccZP2ay6.s:361    .bss.sb:0000000000000000 sb
     /tmp/ccZP2ay6.s:384    .data.t2:0000000000000000 t2
     /tmp/ccZP2ay6.s:375    .data.t1:0000000000000000 t1
     /tmp/ccZP2ay6.s:368    .data.t0:0000000000000000 t0
     /tmp/ccZP2ay6.s:350    .bss.bb:0000000000000000 $d
     /tmp/ccZP2ay6.s:357    .bss.sb:0000000000000000 $d
     /tmp/ccZP2ay6.s:364    .data.t0:0000000000000000 $d
     /tmp/ccZP2ay6.s:371    .data.t1:0000000000000000 $d
     /tmp/ccZP2ay6.s:380    .data.t2:0000000000000000 $d
     /tmp/ccZP2ay6.s:387    .rodata.mt_start.str1.4:0000000000000000 $d
                     .debug_frame:0000000000000010 $d

UNDEFINED SYMBOLS
makise_g_host_call
ili9340_spi_txhalfcplt
hspi1
ili9340_spi_txcplt
ili9340_driver
printf
makise_init
memset
m_button_create
ili9340_init
makise_start
