ARM GAS  /tmp/ccQO1hsA.s 			page 1


   1              		.cpu cortex-m4
   2              		.eabi_attribute 27, 1
   3              		.eabi_attribute 28, 1
   4              		.eabi_attribute 20, 1
   5              		.eabi_attribute 21, 1
   6              		.eabi_attribute 23, 3
   7              		.eabi_attribute 24, 1
   8              		.eabi_attribute 25, 1
   9              		.eabi_attribute 26, 1
  10              		.eabi_attribute 30, 2
  11              		.eabi_attribute 34, 1
  12              		.eabi_attribute 18, 4
  13              		.file	"makise_primitives.c"
  14              		.text
  15              	.Ltext0:
  16              		.cfi_sections	.debug_frame
  17              		.section	.text.makise_d_clear,"ax",%progbits
  18              		.align	1
  19              		.p2align 2,,3
  20              		.global	makise_d_clear
  21              		.syntax unified
  22              		.thumb
  23              		.thumb_func
  24              		.fpu fpv4-sp-d16
  26              	makise_d_clear:
  27              	.LFB126:
  28              		.file 1 "MakiseGUI/MakiseGUI/makise_primitives.c"
   1:MakiseGUI/MakiseGUI/makise_primitives.c **** #include "makise_primitives.h"
   2:MakiseGUI/MakiseGUI/makise_primitives.c **** 
   3:MakiseGUI/MakiseGUI/makise_primitives.c **** #define MAX_POLY_CORNERS   200
   4:MakiseGUI/MakiseGUI/makise_primitives.c **** 
   5:MakiseGUI/MakiseGUI/makise_primitives.c **** 
   6:MakiseGUI/MakiseGUI/makise_primitives.c **** 
   7:MakiseGUI/MakiseGUI/makise_primitives.c **** 
   8:MakiseGUI/MakiseGUI/makise_primitives.c **** 
   9:MakiseGUI/MakiseGUI/makise_primitives.c **** //**************************************************************************************
  10:MakiseGUI/MakiseGUI/makise_primitives.c **** void makise_d_clear(MakiseBuffer* b, uint32_t c)
  11:MakiseGUI/MakiseGUI/makise_primitives.c **** {
  29              		.loc 1 11 0
  30              		.cfi_startproc
  31              		@ args = 0, pretend = 0, frame = 0
  32              		@ frame_needed = 0, uses_anonymous_args = 0
  33              		@ link register save eliminated.
  34              	.LVL0:
  35 0000 F0B4     		push	{r4, r5, r6, r7}
  36              	.LCFI0:
  37              		.cfi_def_cfa_offset 16
  38              		.cfi_offset 4, -16
  39              		.cfi_offset 5, -12
  40              		.cfi_offset 6, -8
  41              		.cfi_offset 7, -4
  42              	.LBB4:
  12:MakiseGUI/MakiseGUI/makise_primitives.c ****     uint8_t k = 0;
  13:MakiseGUI/MakiseGUI/makise_primitives.c ****     for (int i = 0; i < (8/b->pixeldepth); i++)
  43              		.loc 1 13 0
  44 0002 0789     		ldrh	r7, [r0, #8]
  45 0004 0826     		movs	r6, #8
ARM GAS  /tmp/ccQO1hsA.s 			page 2


  46 0006 96FBF7F6 		sdiv	r6, r6, r7
  47 000a 6EB1     		cbz	r6, .L2
  48 000c 837A     		ldrb	r3, [r0, #10]	@ zero_extendqisi2
  49 000e 0022     		movs	r2, #0
  50 0010 1940     		ands	r1, r1, r3
  51              	.LVL1:
  52 0012 1446     		mov	r4, r2
  53 0014 1346     		mov	r3, r2
  54              	.LVL2:
  55              	.L3:
  14:MakiseGUI/MakiseGUI/makise_primitives.c ****     {
  15:MakiseGUI/MakiseGUI/makise_primitives.c **** 	k |= (c & b->depthmask) << i*b->pixeldepth;
  56              		.loc 1 15 0 discriminator 3
  57 0016 01FA02F5 		lsl	r5, r1, r2
  13:MakiseGUI/MakiseGUI/makise_primitives.c ****     {
  58              		.loc 1 13 0 discriminator 3
  59 001a 0134     		adds	r4, r4, #1
  60              	.LVL3:
  61              		.loc 1 15 0 discriminator 3
  62 001c 2B43     		orrs	r3, r3, r5
  63              	.LVL4:
  13:MakiseGUI/MakiseGUI/makise_primitives.c ****     {
  64              		.loc 1 13 0 discriminator 3
  65 001e B442     		cmp	r4, r6
  66              		.loc 1 15 0 discriminator 3
  67 0020 DBB2     		uxtb	r3, r3
  68              	.LVL5:
  69 0022 3A44     		add	r2, r2, r7
  13:MakiseGUI/MakiseGUI/makise_primitives.c ****     {
  70              		.loc 1 13 0 discriminator 3
  71 0024 F7D1     		bne	.L3
  72 0026 1E46     		mov	r6, r3
  73              	.LVL6:
  74              	.L2:
  75              	.LBE4:
  16:MakiseGUI/MakiseGUI/makise_primitives.c ****     }
  17:MakiseGUI/MakiseGUI/makise_primitives.c ****     memset(b->buffer, k, b->size);
  76              		.loc 1 17 0
  77 0028 3146     		mov	r1, r6
  78 002a 0269     		ldr	r2, [r0, #16]
  79 002c C068     		ldr	r0, [r0, #12]
  80              	.LVL7:
  18:MakiseGUI/MakiseGUI/makise_primitives.c **** }
  81              		.loc 1 18 0
  82 002e F0BC     		pop	{r4, r5, r6, r7}
  83              	.LCFI1:
  84              		.cfi_restore 7
  85              		.cfi_restore 6
  86              		.cfi_restore 5
  87              		.cfi_restore 4
  88              		.cfi_def_cfa_offset 0
  17:MakiseGUI/MakiseGUI/makise_primitives.c **** }
  89              		.loc 1 17 0
  90 0030 FFF7FEBF 		b	memset
  91              	.LVL8:
  92              		.cfi_endproc
  93              	.LFE126:
ARM GAS  /tmp/ccQO1hsA.s 			page 3


  95              		.section	.text.makise_d_point,"ax",%progbits
  96              		.align	1
  97              		.p2align 2,,3
  98              		.global	makise_d_point
  99              		.syntax unified
 100              		.thumb
 101              		.thumb_func
 102              		.fpu fpv4-sp-d16
 104              	makise_d_point:
 105              	.LFB127:
  19:MakiseGUI/MakiseGUI/makise_primitives.c **** 
  20:MakiseGUI/MakiseGUI/makise_primitives.c **** void makise_d_point(MakiseBuffer* b, uint16_t x, uint16_t y, uint32_t c)
  21:MakiseGUI/MakiseGUI/makise_primitives.c **** {
 106              		.loc 1 21 0
 107              		.cfi_startproc
 108              		@ args = 0, pretend = 0, frame = 0
 109              		@ frame_needed = 0, uses_anonymous_args = 0
 110              		@ link register save eliminated.
 111              	.LVL9:
  22:MakiseGUI/MakiseGUI/makise_primitives.c ****     makise_pset(b, x, y, c);
 112              		.loc 1 22 0
 113 0000 FFF7FEBF 		b	makise_pset
 114              	.LVL10:
 115              		.cfi_endproc
 116              	.LFE127:
 118              		.section	.text.makise_d_circle,"ax",%progbits
 119              		.align	1
 120              		.p2align 2,,3
 121              		.global	makise_d_circle
 122              		.syntax unified
 123              		.thumb
 124              		.thumb_func
 125              		.fpu fpv4-sp-d16
 127              	makise_d_circle:
 128              	.LFB130:
  23:MakiseGUI/MakiseGUI/makise_primitives.c **** }
  24:MakiseGUI/MakiseGUI/makise_primitives.c **** void makise_d_rect(MakiseBuffer* b, int16_t x, int16_t y, uint16_t w,
  25:MakiseGUI/MakiseGUI/makise_primitives.c **** 		   uint16_t h, uint32_t c)
  26:MakiseGUI/MakiseGUI/makise_primitives.c **** {
  27:MakiseGUI/MakiseGUI/makise_primitives.c ****     if(x >= b->width || y >= b->height)
  28:MakiseGUI/MakiseGUI/makise_primitives.c **** 	return;
  29:MakiseGUI/MakiseGUI/makise_primitives.c ****     if(x < 0)
  30:MakiseGUI/MakiseGUI/makise_primitives.c ****     {
  31:MakiseGUI/MakiseGUI/makise_primitives.c **** 	if(-x > w)
  32:MakiseGUI/MakiseGUI/makise_primitives.c **** 	    return;
  33:MakiseGUI/MakiseGUI/makise_primitives.c **** 	w = w + x;
  34:MakiseGUI/MakiseGUI/makise_primitives.c **** 	x = 0;
  35:MakiseGUI/MakiseGUI/makise_primitives.c ****     }
  36:MakiseGUI/MakiseGUI/makise_primitives.c ****     if(y < 0)
  37:MakiseGUI/MakiseGUI/makise_primitives.c ****     {
  38:MakiseGUI/MakiseGUI/makise_primitives.c **** 	if(-y > h)
  39:MakiseGUI/MakiseGUI/makise_primitives.c **** 	    return;
  40:MakiseGUI/MakiseGUI/makise_primitives.c **** 	h = h + y;
  41:MakiseGUI/MakiseGUI/makise_primitives.c **** 	y = 0;
  42:MakiseGUI/MakiseGUI/makise_primitives.c ****     }
  43:MakiseGUI/MakiseGUI/makise_primitives.c ****     if(x + w >= b->width)
  44:MakiseGUI/MakiseGUI/makise_primitives.c **** 	w = b->width - x - 1;
ARM GAS  /tmp/ccQO1hsA.s 			page 4


  45:MakiseGUI/MakiseGUI/makise_primitives.c ****     if(y + h >= b->height)
  46:MakiseGUI/MakiseGUI/makise_primitives.c **** 	h = b->height - y - 1;
  47:MakiseGUI/MakiseGUI/makise_primitives.c ****     
  48:MakiseGUI/MakiseGUI/makise_primitives.c ****     if(w == 0 || h == 0)
  49:MakiseGUI/MakiseGUI/makise_primitives.c **** 	return;
  50:MakiseGUI/MakiseGUI/makise_primitives.c **** 
  51:MakiseGUI/MakiseGUI/makise_primitives.c ****     uint32_t k, kb, j;
  52:MakiseGUI/MakiseGUI/makise_primitives.c **** 
  53:MakiseGUI/MakiseGUI/makise_primitives.c ****     uint8_t C = 0; //byte filled with colors for memset
  54:MakiseGUI/MakiseGUI/makise_primitives.c ****     for (int i = 0; i < (8/b->pixeldepth); i++)
  55:MakiseGUI/MakiseGUI/makise_primitives.c ****     {
  56:MakiseGUI/MakiseGUI/makise_primitives.c **** 	C |= (c & b->depthmask) << i*b->pixeldepth;
  57:MakiseGUI/MakiseGUI/makise_primitives.c ****     }
  58:MakiseGUI/MakiseGUI/makise_primitives.c **** 
  59:MakiseGUI/MakiseGUI/makise_primitives.c ****     w-=1;
  60:MakiseGUI/MakiseGUI/makise_primitives.c ****     h-=1;
  61:MakiseGUI/MakiseGUI/makise_primitives.c ****     
  62:MakiseGUI/MakiseGUI/makise_primitives.c ****     makise_d_line(b, x, y, x + w, y, c);
  63:MakiseGUI/MakiseGUI/makise_primitives.c ****     makise_d_line(b, x, y + h, x + w, y + h, c);
  64:MakiseGUI/MakiseGUI/makise_primitives.c ****     makise_d_line(b, x, y, x, y + h, c);
  65:MakiseGUI/MakiseGUI/makise_primitives.c ****     makise_d_line(b, x + w, y, x + w, y + h, c);
  66:MakiseGUI/MakiseGUI/makise_primitives.c ****     /*
  67:MakiseGUI/MakiseGUI/makise_primitives.c ****       if depth = 4bits
  68:MakiseGUI/MakiseGUI/makise_primitives.c ****       byte 1       byte 2
  69:MakiseGUI/MakiseGUI/makise_primitives.c ****       coordinates |1,0   0,0| |3,0   2,0|
  70:MakiseGUI/MakiseGUI/makise_primitives.c ****       binaryvalue |0000 0000| |0100 0101|
  71:MakiseGUI/MakiseGUI/makise_primitives.c ****     */
  72:MakiseGUI/MakiseGUI/makise_primitives.c **** }
  73:MakiseGUI/MakiseGUI/makise_primitives.c **** void makise_d_rect_filled(MakiseBuffer* b, int16_t x, int16_t y, uint16_t w,
  74:MakiseGUI/MakiseGUI/makise_primitives.c **** 			  uint16_t h, uint32_t c, uint32_t fill_c)
  75:MakiseGUI/MakiseGUI/makise_primitives.c **** {
  76:MakiseGUI/MakiseGUI/makise_primitives.c ****     if(x >= b->width || y >= b->height)
  77:MakiseGUI/MakiseGUI/makise_primitives.c **** 	return;
  78:MakiseGUI/MakiseGUI/makise_primitives.c ****     if(x < 0)
  79:MakiseGUI/MakiseGUI/makise_primitives.c ****     {
  80:MakiseGUI/MakiseGUI/makise_primitives.c **** 	if(-x > w)
  81:MakiseGUI/MakiseGUI/makise_primitives.c **** 	    return;
  82:MakiseGUI/MakiseGUI/makise_primitives.c **** 	w = w + x;
  83:MakiseGUI/MakiseGUI/makise_primitives.c **** 	x = 0;
  84:MakiseGUI/MakiseGUI/makise_primitives.c ****     }
  85:MakiseGUI/MakiseGUI/makise_primitives.c ****     if(y < 0)
  86:MakiseGUI/MakiseGUI/makise_primitives.c ****     {
  87:MakiseGUI/MakiseGUI/makise_primitives.c **** 	if(-y > h)
  88:MakiseGUI/MakiseGUI/makise_primitives.c **** 	    return;
  89:MakiseGUI/MakiseGUI/makise_primitives.c **** 	h = h + y;
  90:MakiseGUI/MakiseGUI/makise_primitives.c **** 	y = 0;
  91:MakiseGUI/MakiseGUI/makise_primitives.c ****     }
  92:MakiseGUI/MakiseGUI/makise_primitives.c ****     if(x + w >= b->width)
  93:MakiseGUI/MakiseGUI/makise_primitives.c **** 	w = b->width - x - 1;
  94:MakiseGUI/MakiseGUI/makise_primitives.c ****     if(y + h >= b->height)
  95:MakiseGUI/MakiseGUI/makise_primitives.c **** 	h = b->height - y - 1;
  96:MakiseGUI/MakiseGUI/makise_primitives.c ****     
  97:MakiseGUI/MakiseGUI/makise_primitives.c ****     if(w == 0 || h == 0)
  98:MakiseGUI/MakiseGUI/makise_primitives.c **** 	return;
  99:MakiseGUI/MakiseGUI/makise_primitives.c **** 
 100:MakiseGUI/MakiseGUI/makise_primitives.c ****     uint32_t k, kb, j;
 101:MakiseGUI/MakiseGUI/makise_primitives.c **** 
ARM GAS  /tmp/ccQO1hsA.s 			page 5


 102:MakiseGUI/MakiseGUI/makise_primitives.c ****     uint8_t C = 0; //byte filled with colors for memset
 103:MakiseGUI/MakiseGUI/makise_primitives.c ****     for (int i = 0; i < (8/b->pixeldepth); i++)
 104:MakiseGUI/MakiseGUI/makise_primitives.c ****     {
 105:MakiseGUI/MakiseGUI/makise_primitives.c **** 	C |= (c & b->depthmask) << i*b->pixeldepth;
 106:MakiseGUI/MakiseGUI/makise_primitives.c ****     }
 107:MakiseGUI/MakiseGUI/makise_primitives.c **** 
 108:MakiseGUI/MakiseGUI/makise_primitives.c ****     h -= 1;
 109:MakiseGUI/MakiseGUI/makise_primitives.c ****     w -= 1;
 110:MakiseGUI/MakiseGUI/makise_primitives.c ****     
 111:MakiseGUI/MakiseGUI/makise_primitives.c ****     makise_d_line(b, x, y, x + w, y, c);
 112:MakiseGUI/MakiseGUI/makise_primitives.c ****     makise_d_line(b, x, y + h, x + w, y + h, c);
 113:MakiseGUI/MakiseGUI/makise_primitives.c ****     makise_d_line(b, x, y, x, y + h, c);
 114:MakiseGUI/MakiseGUI/makise_primitives.c ****     makise_d_line(b, x + w, y, x + w, y + h, c);
 115:MakiseGUI/MakiseGUI/makise_primitives.c ****     /*
 116:MakiseGUI/MakiseGUI/makise_primitives.c ****       if depth = 4bits
 117:MakiseGUI/MakiseGUI/makise_primitives.c ****       byte 1       byte 2
 118:MakiseGUI/MakiseGUI/makise_primitives.c ****       coordinates |1,0   0,0| |3,0   2,0|
 119:MakiseGUI/MakiseGUI/makise_primitives.c ****       binaryvalue |0000 0000| |0100 0101|
 120:MakiseGUI/MakiseGUI/makise_primitives.c ****     */
 121:MakiseGUI/MakiseGUI/makise_primitives.c ****     for (int i = y+1; i < h + y; i++) {
 122:MakiseGUI/MakiseGUI/makise_primitives.c **** 	makise_d_line(b, x + 1, i, x+w - 1, i, fill_c);
 123:MakiseGUI/MakiseGUI/makise_primitives.c ****     }    
 124:MakiseGUI/MakiseGUI/makise_primitives.c **** }
 125:MakiseGUI/MakiseGUI/makise_primitives.c **** void makise_d_circle(MakiseBuffer* b, uint16_t xc, uint16_t yc, uint16_t r, uint32_t c)
 126:MakiseGUI/MakiseGUI/makise_primitives.c **** {
 129              		.loc 1 126 0
 130              		.cfi_startproc
 131              		@ args = 4, pretend = 0, frame = 40
 132              		@ frame_needed = 0, uses_anonymous_args = 0
 133              	.LVL11:
 134 0000 2DE9F04F 		push	{r4, r5, r6, r7, r8, r9, r10, fp, lr}
 135              	.LCFI2:
 136              		.cfi_def_cfa_offset 36
 137              		.cfi_offset 4, -36
 138              		.cfi_offset 5, -32
 139              		.cfi_offset 6, -28
 140              		.cfi_offset 7, -24
 141              		.cfi_offset 8, -20
 142              		.cfi_offset 9, -16
 143              		.cfi_offset 10, -12
 144              		.cfi_offset 11, -8
 145              		.cfi_offset 14, -4
 146 0004 8BB0     		sub	sp, sp, #44
 147              	.LCFI3:
 148              		.cfi_def_cfa_offset 80
 149              		.loc 1 126 0
 150 0006 1C46     		mov	r4, r3
 151 0008 149F     		ldr	r7, [sp, #80]
 127:MakiseGUI/MakiseGUI/makise_primitives.c ****     //middle point algorythm
 128:MakiseGUI/MakiseGUI/makise_primitives.c ****     int16_t f = 1 - r;
 129:MakiseGUI/MakiseGUI/makise_primitives.c ****     int16_t ddF_x = 1;
 130:MakiseGUI/MakiseGUI/makise_primitives.c ****     int16_t ddF_y = -2 * r;
 131:MakiseGUI/MakiseGUI/makise_primitives.c ****     int16_t x = 0;
 132:MakiseGUI/MakiseGUI/makise_primitives.c ****     int16_t y = r;
 133:MakiseGUI/MakiseGUI/makise_primitives.c **** 
 134:MakiseGUI/MakiseGUI/makise_primitives.c ****     makise_pset(b, xc, yc + r, c);
 152              		.loc 1 134 0
ARM GAS  /tmp/ccQO1hsA.s 			page 6


 153 000a 0292     		str	r2, [sp, #8]
 130:MakiseGUI/MakiseGUI/makise_primitives.c ****     int16_t x = 0;
 154              		.loc 1 130 0
 155 000c C3EBC336 		rsb	r6, r3, r3, lsl #15
 156              		.loc 1 134 0
 157 0010 A218     		adds	r2, r4, r2
 158              	.LVL12:
 130:MakiseGUI/MakiseGUI/makise_primitives.c ****     int16_t x = 0;
 159              		.loc 1 130 0
 160 0012 7600     		lsls	r6, r6, #1
 161              		.loc 1 134 0
 162 0014 92B2     		uxth	r2, r2
 163 0016 3B46     		mov	r3, r7
 164              	.LVL13:
 130:MakiseGUI/MakiseGUI/makise_primitives.c ****     int16_t x = 0;
 165              		.loc 1 130 0
 166 0018 36B2     		sxth	r6, r6
 126:MakiseGUI/MakiseGUI/makise_primitives.c ****     //middle point algorythm
 167              		.loc 1 126 0
 168 001a 8046     		mov	r8, r0
 130:MakiseGUI/MakiseGUI/makise_primitives.c ****     int16_t x = 0;
 169              		.loc 1 130 0
 170 001c 0596     		str	r6, [sp, #20]
 126:MakiseGUI/MakiseGUI/makise_primitives.c ****     //middle point algorythm
 171              		.loc 1 126 0
 172 001e 0391     		str	r1, [sp, #12]
 173 0020 0E46     		mov	r6, r1
 174              		.loc 1 134 0
 175 0022 FFF7FEFF 		bl	makise_pset
 176              	.LVL14:
 135:MakiseGUI/MakiseGUI/makise_primitives.c ****     makise_pset(b, xc, yc - r, c);
 177              		.loc 1 135 0
 178 0026 029A     		ldr	r2, [sp, #8]
 179 0028 121B     		subs	r2, r2, r4
 180 002a 92B2     		uxth	r2, r2
 181 002c 3B46     		mov	r3, r7
 182 002e 3146     		mov	r1, r6
 183 0030 4046     		mov	r0, r8
 184 0032 FFF7FEFF 		bl	makise_pset
 185              	.LVL15:
 136:MakiseGUI/MakiseGUI/makise_primitives.c ****     makise_pset(b, xc + r, yc, c);
 186              		.loc 1 136 0
 187 0036 DDF80890 		ldr	r9, [sp, #8]
 188 003a A119     		adds	r1, r4, r6
 189 003c 89B2     		uxth	r1, r1
 190 003e 3B46     		mov	r3, r7
 191 0040 4A46     		mov	r2, r9
 192 0042 4046     		mov	r0, r8
 193 0044 FFF7FEFF 		bl	makise_pset
 194              	.LVL16:
 132:MakiseGUI/MakiseGUI/makise_primitives.c **** 
 195              		.loc 1 132 0
 196 0048 20B2     		sxth	r0, r4
 137:MakiseGUI/MakiseGUI/makise_primitives.c ****     makise_pset(b, xc - r, yc, c);
 197              		.loc 1 137 0
 198 004a 311B     		subs	r1, r6, r4
 132:MakiseGUI/MakiseGUI/makise_primitives.c **** 
ARM GAS  /tmp/ccQO1hsA.s 			page 7


 199              		.loc 1 132 0
 200 004c 0190     		str	r0, [sp, #4]
 128:MakiseGUI/MakiseGUI/makise_primitives.c ****     int16_t ddF_x = 1;
 201              		.loc 1 128 0
 202 004e C4F10105 		rsb	r5, r4, #1
 203              	.LVL17:
 204              		.loc 1 137 0
 205 0052 89B2     		uxth	r1, r1
 132:MakiseGUI/MakiseGUI/makise_primitives.c **** 
 206              		.loc 1 132 0
 207 0054 0446     		mov	r4, r0
 208              	.LVL18:
 209              		.loc 1 137 0
 210 0056 3B46     		mov	r3, r7
 211 0058 4A46     		mov	r2, r9
 212 005a 4046     		mov	r0, r8
 213 005c FFF7FEFF 		bl	makise_pset
 214              	.LVL19:
 138:MakiseGUI/MakiseGUI/makise_primitives.c **** 
 139:MakiseGUI/MakiseGUI/makise_primitives.c ****     while(x < y)
 215              		.loc 1 139 0
 216 0060 002C     		cmp	r4, #0
 217 0062 7FDD     		ble	.L11
 218 0064 0021     		movs	r1, #0
 219 0066 4A46     		mov	r2, r9
 220 0068 531C     		adds	r3, r2, #1
 221 006a 0491     		str	r1, [sp, #16]
 222 006c 711C     		adds	r1, r6, #1
 223 006e 0891     		str	r1, [sp, #32]
 224 0070 0993     		str	r3, [sp, #36]
 225 0072 711E     		subs	r1, r6, #1
 226 0074 09F1FF33 		add	r3, r9, #-1
 227 0078 2DB2     		sxth	r5, r5
 228 007a 0691     		str	r1, [sp, #24]
 229 007c 0793     		str	r3, [sp, #28]
 230              	.LVL20:
 231              	.L14:
 232 007e 049A     		ldr	r2, [sp, #16]
 233 0080 089B     		ldr	r3, [sp, #32]
 234 0082 94B2     		uxth	r4, r2
 235 0084 0132     		adds	r2, r2, #1
 236 0086 04EB030B 		add	fp, r4, r3
 237 008a 0492     		str	r2, [sp, #16]
 238              	.LVL21:
 140:MakiseGUI/MakiseGUI/makise_primitives.c ****     {
 141:MakiseGUI/MakiseGUI/makise_primitives.c **** 	// ddF_x == 2 * x + 1;
 142:MakiseGUI/MakiseGUI/makise_primitives.c **** 	// ddF_y == -2 * y;
 143:MakiseGUI/MakiseGUI/makise_primitives.c **** 	// f == x*x + y*y - r*r + 2*x - y + 1;
 144:MakiseGUI/MakiseGUI/makise_primitives.c **** 	if(f >= 0)
 145:MakiseGUI/MakiseGUI/makise_primitives.c **** 	{
 146:MakiseGUI/MakiseGUI/makise_primitives.c **** 	    y--;
 147:MakiseGUI/MakiseGUI/makise_primitives.c **** 	    ddF_y += 2;
 239              		.loc 1 147 0
 240 008c 059A     		ldr	r2, [sp, #20]
 241 008e 1FFA8BFB 		uxth	fp, fp
 144:MakiseGUI/MakiseGUI/makise_primitives.c **** 	{
 242              		.loc 1 144 0
ARM GAS  /tmp/ccQO1hsA.s 			page 8


 243 0092 002D     		cmp	r5, #0
 148:MakiseGUI/MakiseGUI/makise_primitives.c **** 	    f += ddF_y;
 149:MakiseGUI/MakiseGUI/makise_primitives.c **** 	}
 150:MakiseGUI/MakiseGUI/makise_primitives.c **** 	x++;
 151:MakiseGUI/MakiseGUI/makise_primitives.c **** 	ddF_x += 2;
 152:MakiseGUI/MakiseGUI/makise_primitives.c **** 	f += ddF_x;
 153:MakiseGUI/MakiseGUI/makise_primitives.c **** 	makise_pset(b, xc + x, yc + y, c);
 244              		.loc 1 153 0
 245 0094 3B46     		mov	r3, r7
 246 0096 5946     		mov	r1, fp
 247 0098 4046     		mov	r0, r8
 147:MakiseGUI/MakiseGUI/makise_primitives.c **** 	    f += ddF_y;
 248              		.loc 1 147 0
 249 009a 02F10202 		add	r2, r2, #2
 144:MakiseGUI/MakiseGUI/makise_primitives.c **** 	{
 250              		.loc 1 144 0
 251 009e 08DB     		blt	.L13
 252              	.LVL22:
 146:MakiseGUI/MakiseGUI/makise_primitives.c **** 	    ddF_y += 2;
 253              		.loc 1 146 0
 254 00a0 019E     		ldr	r6, [sp, #4]
 147:MakiseGUI/MakiseGUI/makise_primitives.c **** 	    f += ddF_y;
 255              		.loc 1 147 0
 256 00a2 92B2     		uxth	r2, r2
 148:MakiseGUI/MakiseGUI/makise_primitives.c **** 	    f += ddF_y;
 257              		.loc 1 148 0
 258 00a4 1544     		add	r5, r5, r2
 259              	.LVL23:
 146:MakiseGUI/MakiseGUI/makise_primitives.c **** 	    ddF_y += 2;
 260              		.loc 1 146 0
 261 00a6 013E     		subs	r6, r6, #1
 147:MakiseGUI/MakiseGUI/makise_primitives.c **** 	    f += ddF_y;
 262              		.loc 1 147 0
 263 00a8 12B2     		sxth	r2, r2
 264 00aa 0592     		str	r2, [sp, #20]
 265              	.LVL24:
 146:MakiseGUI/MakiseGUI/makise_primitives.c **** 	    ddF_y += 2;
 266              		.loc 1 146 0
 267 00ac 32B2     		sxth	r2, r6
 148:MakiseGUI/MakiseGUI/makise_primitives.c **** 	    f += ddF_y;
 268              		.loc 1 148 0
 269 00ae 2DB2     		sxth	r5, r5
 146:MakiseGUI/MakiseGUI/makise_primitives.c **** 	    ddF_y += 2;
 270              		.loc 1 146 0
 271 00b0 0192     		str	r2, [sp, #4]
 272              	.LVL25:
 273              	.L13:
 274              		.loc 1 153 0
 275 00b2 BDF80460 		ldrh	r6, [sp, #4]
 276 00b6 029A     		ldr	r2, [sp, #8]
 277 00b8 02EB060A 		add	r10, r2, r6
 278 00bc 1FFA8AFA 		uxth	r10, r10
 279 00c0 5246     		mov	r2, r10
 280 00c2 FFF7FEFF 		bl	makise_pset
 281              	.LVL26:
 282 00c6 069B     		ldr	r3, [sp, #24]
 283 00c8 A3EB0409 		sub	r9, r3, r4
ARM GAS  /tmp/ccQO1hsA.s 			page 9


 284 00cc 1FFA89F9 		uxth	r9, r9
 154:MakiseGUI/MakiseGUI/makise_primitives.c **** 	makise_pset(b, xc - x, yc + y, c);
 285              		.loc 1 154 0
 286 00d0 5246     		mov	r2, r10
 287 00d2 4946     		mov	r1, r9
 288 00d4 3B46     		mov	r3, r7
 289 00d6 4046     		mov	r0, r8
 290 00d8 FFF7FEFF 		bl	makise_pset
 291              	.LVL27:
 155:MakiseGUI/MakiseGUI/makise_primitives.c **** 	makise_pset(b, xc + x, yc - y, c);
 292              		.loc 1 155 0
 293 00dc 029A     		ldr	r2, [sp, #8]
 294 00de A2EB060A 		sub	r10, r2, r6
 295 00e2 1FFA8AFA 		uxth	r10, r10
 296 00e6 5246     		mov	r2, r10
 297 00e8 5946     		mov	r1, fp
 298 00ea 3B46     		mov	r3, r7
 299 00ec 4046     		mov	r0, r8
 300 00ee FFF7FEFF 		bl	makise_pset
 301              	.LVL28:
 156:MakiseGUI/MakiseGUI/makise_primitives.c **** 	makise_pset(b, xc - x, yc - y, c);
 302              		.loc 1 156 0
 303 00f2 5246     		mov	r2, r10
 304 00f4 4946     		mov	r1, r9
 305 00f6 3B46     		mov	r3, r7
 306 00f8 4046     		mov	r0, r8
 307 00fa FFF7FEFF 		bl	makise_pset
 308              	.LVL29:
 157:MakiseGUI/MakiseGUI/makise_primitives.c **** 	makise_pset(b, xc + y, yc + x, c);
 309              		.loc 1 157 0
 310 00fe 039B     		ldr	r3, [sp, #12]
 311 0100 099A     		ldr	r2, [sp, #36]
 312 0102 03EB0609 		add	r9, r3, r6
 313 0106 04EB020A 		add	r10, r4, r2
 314 010a 1FFA8AFA 		uxth	r10, r10
 315 010e 1FFA89F9 		uxth	r9, r9
 316 0112 5246     		mov	r2, r10
 317 0114 4946     		mov	r1, r9
 318 0116 3B46     		mov	r3, r7
 319 0118 4046     		mov	r0, r8
 320 011a FFF7FEFF 		bl	makise_pset
 321              	.LVL30:
 158:MakiseGUI/MakiseGUI/makise_primitives.c **** 	makise_pset(b, xc - y, yc + x, c);
 322              		.loc 1 158 0
 323 011e 039B     		ldr	r3, [sp, #12]
 324 0120 9E1B     		subs	r6, r3, r6
 325 0122 B6B2     		uxth	r6, r6
 326 0124 5246     		mov	r2, r10
 327 0126 3146     		mov	r1, r6
 328 0128 3B46     		mov	r3, r7
 329 012a 4046     		mov	r0, r8
 330 012c FFF7FEFF 		bl	makise_pset
 331              	.LVL31:
 332 0130 079B     		ldr	r3, [sp, #28]
 333 0132 A3EB040A 		sub	r10, r3, r4
 334 0136 1FFA8AFA 		uxth	r10, r10
 159:MakiseGUI/MakiseGUI/makise_primitives.c **** 	makise_pset(b, xc + y, yc - x, c);
ARM GAS  /tmp/ccQO1hsA.s 			page 10


 335              		.loc 1 159 0
 336 013a 4946     		mov	r1, r9
 337 013c 5246     		mov	r2, r10
 338 013e 3B46     		mov	r3, r7
 339 0140 4046     		mov	r0, r8
 340 0142 FFF7FEFF 		bl	makise_pset
 341              	.LVL32:
 160:MakiseGUI/MakiseGUI/makise_primitives.c **** 	makise_pset(b, xc - y, yc - x, c);
 342              		.loc 1 160 0
 343 0146 3B46     		mov	r3, r7
 344 0148 5246     		mov	r2, r10
 345 014a 3146     		mov	r1, r6
 346 014c 4046     		mov	r0, r8
 152:MakiseGUI/MakiseGUI/makise_primitives.c **** 	makise_pset(b, xc + x, yc + y, c);
 347              		.loc 1 152 0
 348 014e 05EB4405 		add	r5, r5, r4, lsl #1
 349              	.LVL33:
 350              		.loc 1 160 0
 351 0152 FFF7FEFF 		bl	makise_pset
 352              	.LVL34:
 139:MakiseGUI/MakiseGUI/makise_primitives.c ****     {
 353              		.loc 1 139 0
 354 0156 0134     		adds	r4, r4, #1
 355              	.LVL35:
 356 0158 019B     		ldr	r3, [sp, #4]
 357 015a 24B2     		sxth	r4, r4
 152:MakiseGUI/MakiseGUI/makise_primitives.c **** 	makise_pset(b, xc + x, yc + y, c);
 358              		.loc 1 152 0
 359 015c 0335     		adds	r5, r5, #3
 139:MakiseGUI/MakiseGUI/makise_primitives.c ****     {
 360              		.loc 1 139 0
 361 015e A342     		cmp	r3, r4
 152:MakiseGUI/MakiseGUI/makise_primitives.c **** 	makise_pset(b, xc + x, yc + y, c);
 362              		.loc 1 152 0
 363 0160 2DB2     		sxth	r5, r5
 364              	.LVL36:
 139:MakiseGUI/MakiseGUI/makise_primitives.c ****     {
 365              		.loc 1 139 0
 366 0162 8CDC     		bgt	.L14
 367              	.LVL37:
 368              	.L11:
 161:MakiseGUI/MakiseGUI/makise_primitives.c ****     }
 162:MakiseGUI/MakiseGUI/makise_primitives.c ****     
 163:MakiseGUI/MakiseGUI/makise_primitives.c **** }
 369              		.loc 1 163 0
 370 0164 0BB0     		add	sp, sp, #44
 371              	.LCFI4:
 372              		.cfi_def_cfa_offset 36
 373              		@ sp needed
 374 0166 BDE8F08F 		pop	{r4, r5, r6, r7, r8, r9, r10, fp, pc}
 375              		.cfi_endproc
 376              	.LFE130:
 378 016a 00BF     		.section	.text.makise_d_line,"ax",%progbits
 379              		.align	1
 380              		.p2align 2,,3
 381              		.global	makise_d_line
 382              		.syntax unified
ARM GAS  /tmp/ccQO1hsA.s 			page 11


 383              		.thumb
 384              		.thumb_func
 385              		.fpu fpv4-sp-d16
 387              	makise_d_line:
 388              	.LFB132:
 164:MakiseGUI/MakiseGUI/makise_primitives.c **** void makise_d_circle_filled(MakiseBuffer* b, uint16_t xc, uint16_t yc, uint16_t r, uint32_t c, uint
 165:MakiseGUI/MakiseGUI/makise_primitives.c **** {
 166:MakiseGUI/MakiseGUI/makise_primitives.c ****     //middle point algorythm
 167:MakiseGUI/MakiseGUI/makise_primitives.c ****     int16_t f = 1 - r;
 168:MakiseGUI/MakiseGUI/makise_primitives.c ****     int16_t ddF_x = 1;
 169:MakiseGUI/MakiseGUI/makise_primitives.c ****     int16_t ddF_y = -2 * r;
 170:MakiseGUI/MakiseGUI/makise_primitives.c ****     int16_t x = 0;
 171:MakiseGUI/MakiseGUI/makise_primitives.c ****     int16_t y = r;
 172:MakiseGUI/MakiseGUI/makise_primitives.c ****     int16_t dd;
 173:MakiseGUI/MakiseGUI/makise_primitives.c ****     makise_d_line(b, xc - r, yc, xc + r, yc, fill_c);
 174:MakiseGUI/MakiseGUI/makise_primitives.c ****     makise_pset(b, xc, yc + r, c);
 175:MakiseGUI/MakiseGUI/makise_primitives.c ****     makise_pset(b, xc, yc - r, c);
 176:MakiseGUI/MakiseGUI/makise_primitives.c ****     makise_pset(b, xc + r, yc, c);
 177:MakiseGUI/MakiseGUI/makise_primitives.c ****     makise_pset(b, xc - r, yc, c);
 178:MakiseGUI/MakiseGUI/makise_primitives.c **** 
 179:MakiseGUI/MakiseGUI/makise_primitives.c ****     while(x < y)
 180:MakiseGUI/MakiseGUI/makise_primitives.c ****     {
 181:MakiseGUI/MakiseGUI/makise_primitives.c **** 	// ddF_x == 2 * x + 1;
 182:MakiseGUI/MakiseGUI/makise_primitives.c **** 	// ddF_y == -2 * y;
 183:MakiseGUI/MakiseGUI/makise_primitives.c **** 	// f == x*x + y*y - r*r + 2*x - y + 1;
 184:MakiseGUI/MakiseGUI/makise_primitives.c **** 	if(f >= 0)
 185:MakiseGUI/MakiseGUI/makise_primitives.c **** 	{
 186:MakiseGUI/MakiseGUI/makise_primitives.c **** 	    y--;
 187:MakiseGUI/MakiseGUI/makise_primitives.c **** 	    ddF_y += 2;
 188:MakiseGUI/MakiseGUI/makise_primitives.c **** 	    f += ddF_y;
 189:MakiseGUI/MakiseGUI/makise_primitives.c **** 	}
 190:MakiseGUI/MakiseGUI/makise_primitives.c **** 	x++;
 191:MakiseGUI/MakiseGUI/makise_primitives.c **** 	ddF_x += 2;
 192:MakiseGUI/MakiseGUI/makise_primitives.c **** 	f += ddF_x;
 193:MakiseGUI/MakiseGUI/makise_primitives.c **** 
 194:MakiseGUI/MakiseGUI/makise_primitives.c **** 	if(y != r)
 195:MakiseGUI/MakiseGUI/makise_primitives.c **** 	{
 196:MakiseGUI/MakiseGUI/makise_primitives.c **** 	    makise_d_line(b, xc - x + 1, yc + y, xc + x - 1, yc + y, fill_c);
 197:MakiseGUI/MakiseGUI/makise_primitives.c **** 	    makise_d_line(b, xc - x + 1, yc - y, xc + x - 1, yc - y, fill_c);
 198:MakiseGUI/MakiseGUI/makise_primitives.c **** 	}
 199:MakiseGUI/MakiseGUI/makise_primitives.c **** 	if(x != r)
 200:MakiseGUI/MakiseGUI/makise_primitives.c **** 	{
 201:MakiseGUI/MakiseGUI/makise_primitives.c **** 	    makise_d_line(b, xc - y + 1, yc + x, xc + y - 1, yc + x, fill_c);
 202:MakiseGUI/MakiseGUI/makise_primitives.c **** 	    makise_d_line(b, xc - y + 1, yc - x, xc + y - 1, yc - x, fill_c);
 203:MakiseGUI/MakiseGUI/makise_primitives.c **** 	}
 204:MakiseGUI/MakiseGUI/makise_primitives.c **** 	makise_pset(b, xc + x, yc + y, c);
 205:MakiseGUI/MakiseGUI/makise_primitives.c **** 	makise_pset(b, xc - x, yc + y, c);
 206:MakiseGUI/MakiseGUI/makise_primitives.c **** 	makise_pset(b, xc + x, yc - y, c);
 207:MakiseGUI/MakiseGUI/makise_primitives.c **** 	makise_pset(b, xc - x, yc - y, c);
 208:MakiseGUI/MakiseGUI/makise_primitives.c **** 	makise_pset(b, xc + y, yc + x, c);
 209:MakiseGUI/MakiseGUI/makise_primitives.c **** 	makise_pset(b, xc - y, yc + x, c);
 210:MakiseGUI/MakiseGUI/makise_primitives.c **** 	makise_pset(b, xc + y, yc - x, c);
 211:MakiseGUI/MakiseGUI/makise_primitives.c **** 	makise_pset(b, xc - y, yc - x, c);
 212:MakiseGUI/MakiseGUI/makise_primitives.c ****     }
 213:MakiseGUI/MakiseGUI/makise_primitives.c ****     
 214:MakiseGUI/MakiseGUI/makise_primitives.c **** }
 215:MakiseGUI/MakiseGUI/makise_primitives.c **** void makise_d_line(MakiseBuffer* b, int16_t x0, int16_t y0,
ARM GAS  /tmp/ccQO1hsA.s 			page 12


 216:MakiseGUI/MakiseGUI/makise_primitives.c **** 		   int16_t x1, int16_t y1, uint32_t c)
 217:MakiseGUI/MakiseGUI/makise_primitives.c **** {
 389              		.loc 1 217 0
 390              		.cfi_startproc
 391              		@ args = 8, pretend = 0, frame = 24
 392              		@ frame_needed = 0, uses_anonymous_args = 0
 393              	.LVL38:
 394 0000 2DE9F04F 		push	{r4, r5, r6, r7, r8, r9, r10, fp, lr}
 395              	.LCFI5:
 396              		.cfi_def_cfa_offset 36
 397              		.cfi_offset 4, -36
 398              		.cfi_offset 5, -32
 399              		.cfi_offset 6, -28
 400              		.cfi_offset 7, -24
 401              		.cfi_offset 8, -20
 402              		.cfi_offset 9, -16
 403              		.cfi_offset 10, -12
 404              		.cfi_offset 11, -8
 405              		.cfi_offset 14, -4
 406 0004 87B0     		sub	sp, sp, #28
 407              	.LCFI6:
 408              		.cfi_def_cfa_offset 64
 218:MakiseGUI/MakiseGUI/makise_primitives.c ****     if(x1 < 0 && x0 < 0)
 409              		.loc 1 218 0
 410 0006 002B     		cmp	r3, #0
 411              	.LVL39:
 217:MakiseGUI/MakiseGUI/makise_primitives.c ****     if(x1 < 0 && x0 < 0)
 412              		.loc 1 217 0
 413 0008 BDF94070 		ldrsh	r7, [sp, #64]
 414 000c DDF844B0 		ldr	fp, [sp, #68]
 415              		.loc 1 218 0
 416 0010 C0F2DC80 		blt	.L55
 417              	.L19:
 219:MakiseGUI/MakiseGUI/makise_primitives.c **** 	return;
 220:MakiseGUI/MakiseGUI/makise_primitives.c ****     if(x1 >= b->width && x0 >= b->width)
 418              		.loc 1 220 0
 419 0014 B0F806E0 		ldrh	lr, [r0, #6]
 420 0018 7345     		cmp	r3, lr
 421 001a 80F28D80 		bge	.L56
 221:MakiseGUI/MakiseGUI/makise_primitives.c **** 	return;
 222:MakiseGUI/MakiseGUI/makise_primitives.c ****     if(y1 < 0 && y0 < 0)
 422              		.loc 1 222 0
 423 001e 002F     		cmp	r7, #0
 424 0020 C0F28F80 		blt	.L57
 425              	.L22:
 223:MakiseGUI/MakiseGUI/makise_primitives.c **** 	return;
 224:MakiseGUI/MakiseGUI/makise_primitives.c ****     if(y1 >= b->height && y0 >= b->height)
 426              		.loc 1 224 0
 427 0024 8688     		ldrh	r6, [r0, #4]
 428 0026 B742     		cmp	r7, r6
 429 0028 02DB     		blt	.L23
 430              		.loc 1 224 0 is_stmt 0 discriminator 1
 431 002a 9642     		cmp	r6, r2
 432 002c 40F38180 		ble	.L18
 433              	.L23:
 434              	.LVL40:
 225:MakiseGUI/MakiseGUI/makise_primitives.c **** 	return;
ARM GAS  /tmp/ccQO1hsA.s 			page 13


 226:MakiseGUI/MakiseGUI/makise_primitives.c ****     x1 = x1 < 0 ? 0 : x1;
 227:MakiseGUI/MakiseGUI/makise_primitives.c ****     y1 = y1 < 0 ? 0 : y1;
 228:MakiseGUI/MakiseGUI/makise_primitives.c ****     x0 = x0 < 0 ? 0 : x0;
 229:MakiseGUI/MakiseGUI/makise_primitives.c ****     y0 = y0 < 0 ? 0 : y0;
 230:MakiseGUI/MakiseGUI/makise_primitives.c ****     
 231:MakiseGUI/MakiseGUI/makise_primitives.c ****     x0 =  x0 < b->width-1 ? x0 : b->width - 1;
 232:MakiseGUI/MakiseGUI/makise_primitives.c ****     x1 =  x1 < b->width-1 ? x1 : b->width - 1;
 233:MakiseGUI/MakiseGUI/makise_primitives.c ****     y0 =  y0 < b->height-1 ? y0 : b->height - 1;
 435              		.loc 1 233 0 is_stmt 1
 436 0030 22EAE27A 		bic	r10, r2, r2, asr #31
 437 0034 8146     		mov	r9, r0
 438 0036 701E     		subs	r0, r6, #1
 439              	.LVL41:
 440 0038 8245     		cmp	r10, r0
 234:MakiseGUI/MakiseGUI/makise_primitives.c ****     y1 =  y1 < b->height-1 ? y1 : b->height - 1;
 441              		.loc 1 234 0
 442 003a 27EAE776 		bic	r6, r7, r7, asr #31
 233:MakiseGUI/MakiseGUI/makise_primitives.c ****     y1 =  y1 < b->height-1 ? y1 : b->height - 1;
 443              		.loc 1 233 0
 444 003e A8BF     		it	ge
 445 0040 8246     		movge	r10, r0
 446              		.loc 1 234 0
 447 0042 B042     		cmp	r0, r6
 448 0044 A8BF     		it	ge
 449 0046 3046     		movge	r0, r6
 235:MakiseGUI/MakiseGUI/makise_primitives.c ****     
 236:MakiseGUI/MakiseGUI/makise_primitives.c ****     int16_t dy = 0;
 237:MakiseGUI/MakiseGUI/makise_primitives.c ****     
 238:MakiseGUI/MakiseGUI/makise_primitives.c ****     dy = abs(y0 - y1);				/* The difference between the y's */
 450              		.loc 1 238 0
 451 0048 AAEB0006 		sub	r6, r10, r0
 452 004c 002E     		cmp	r6, #0
 232:MakiseGUI/MakiseGUI/makise_primitives.c ****     y0 =  y0 < b->height-1 ? y0 : b->height - 1;
 453              		.loc 1 232 0
 454 004e 23EAE375 		bic	r5, r3, r3, asr #31
 231:MakiseGUI/MakiseGUI/makise_primitives.c ****     x1 =  x1 < b->width-1 ? x1 : b->width - 1;
 455              		.loc 1 231 0
 456 0052 21EAE174 		bic	r4, r1, r1, asr #31
 457 0056 0EF1FF33 		add	r3, lr, #-1
 458              	.LVL42:
 459              		.loc 1 238 0
 460 005a B8BF     		it	lt
 461 005c 7642     		rsblt	r6, r6, #0
 231:MakiseGUI/MakiseGUI/makise_primitives.c ****     x1 =  x1 < b->width-1 ? x1 : b->width - 1;
 462              		.loc 1 231 0
 463 005e 9C42     		cmp	r4, r3
 464 0060 A8BF     		it	ge
 465 0062 1C46     		movge	r4, r3
 466              	.LVL43:
 467              		.loc 1 238 0
 468 0064 36B2     		sxth	r6, r6
 232:MakiseGUI/MakiseGUI/makise_primitives.c ****     y0 =  y0 < b->height-1 ? y0 : b->height - 1;
 469              		.loc 1 232 0
 470 0066 9D42     		cmp	r5, r3
 471 0068 A8BF     		it	ge
 472 006a 1D46     		movge	r5, r3
 473              	.LVL44:
ARM GAS  /tmp/ccQO1hsA.s 			page 14


 239:MakiseGUI/MakiseGUI/makise_primitives.c ****     
 240:MakiseGUI/MakiseGUI/makise_primitives.c ****     if(dy == 0) //if line is horizontal we can memset it
 474              		.loc 1 240 0
 475 006c 002E     		cmp	r6, #0
 476 006e 6CD1     		bne	.L24
 477              	.LVL45:
 478              	.LBB5:
 479              	.LBB6:
 241:MakiseGUI/MakiseGUI/makise_primitives.c ****     {
 242:MakiseGUI/MakiseGUI/makise_primitives.c **** 	uint32_t C = 0; //byte filled with colors for memset
 243:MakiseGUI/MakiseGUI/makise_primitives.c **** 	uint32_t kb, j;
 244:MakiseGUI/MakiseGUI/makise_primitives.c **** 	    
 245:MakiseGUI/MakiseGUI/makise_primitives.c **** 	for (int i = 0; i < (32/b->pixeldepth); i++)
 480              		.loc 1 245 0 discriminator 1
 481 0070 B9F80810 		ldrh	r1, [r9, #8]
 482 0074 2023     		movs	r3, #32
 483 0076 93FBF1F3 		sdiv	r3, r3, r1
 484 007a 002B     		cmp	r3, #0
 485 007c 00F0B580 		beq	.L43
 486 0080 99F80A80 		ldrb	r8, [r9, #10]	@ zero_extendqisi2
 487              		.loc 1 245 0 is_stmt 0
 488 0084 3246     		mov	r2, r6
 489 0086 3746     		mov	r7, r6
 490 0088 08EA0B08 		and	r8, r8, fp
 491              	.LVL46:
 492              	.L26:
 493              		.loc 1 245 0 discriminator 3
 494 008c 0132     		adds	r2, r2, #1
 495              	.LVL47:
 246:MakiseGUI/MakiseGUI/makise_primitives.c **** 	{
 247:MakiseGUI/MakiseGUI/makise_primitives.c **** 	    C |= (c & b->depthmask) << i*b->pixeldepth; 
 496              		.loc 1 247 0 is_stmt 1 discriminator 3
 497 008e 08FA06FC 		lsl	ip, r8, r6
 245:MakiseGUI/MakiseGUI/makise_primitives.c **** 	{
 498              		.loc 1 245 0 discriminator 3
 499 0092 9A42     		cmp	r2, r3
 500              		.loc 1 247 0 discriminator 3
 501 0094 47EA0C07 		orr	r7, r7, ip
 502              	.LVL48:
 503 0098 0E44     		add	r6, r6, r1
 245:MakiseGUI/MakiseGUI/makise_primitives.c **** 	{
 504              		.loc 1 245 0 discriminator 3
 505 009a F7D1     		bne	.L26
 506              	.LVL49:
 507              	.L25:
 508              	.LBE6:
 248:MakiseGUI/MakiseGUI/makise_primitives.c **** 	}
 249:MakiseGUI/MakiseGUI/makise_primitives.c **** 
 250:MakiseGUI/MakiseGUI/makise_primitives.c **** 	j = x0;
 251:MakiseGUI/MakiseGUI/makise_primitives.c **** 	while ((j % (32 / b->pixeldepth)) && j <= x1) { //coordinate position in the array must in the beg
 509              		.loc 1 251 0
 510 009c B4FBF3F2 		udiv	r2, r4, r3
 511 00a0 03FB1242 		mls	r2, r3, r2, r4
 512 00a4 D2B1     		cbz	r2, .L30
 513 00a6 AC42     		cmp	r4, r5
 514 00a8 35D8     		bhi	.L32
 515 00aa 86B2     		uxth	r6, r0
ARM GAS  /tmp/ccQO1hsA.s 			page 15


 516 00ac 4FF02008 		mov	r8, #32
 517 00b0 01E0     		b	.L31
 518              	.LVL50:
 519              	.L29:
 520              		.loc 1 251 0 is_stmt 0 discriminator 1
 521 00b2 AC42     		cmp	r4, r5
 522 00b4 2FD8     		bhi	.L32
 523              	.L31:
 252:MakiseGUI/MakiseGUI/makise_primitives.c **** 	    makise_pset(b, j, y1, c);
 524              		.loc 1 252 0 is_stmt 1
 525 00b6 A1B2     		uxth	r1, r4
 526 00b8 5B46     		mov	r3, fp
 527 00ba 3246     		mov	r2, r6
 253:MakiseGUI/MakiseGUI/makise_primitives.c **** 	    j++;
 528              		.loc 1 253 0
 529 00bc 0134     		adds	r4, r4, #1
 252:MakiseGUI/MakiseGUI/makise_primitives.c **** 	    makise_pset(b, j, y1, c);
 530              		.loc 1 252 0
 531 00be 4846     		mov	r0, r9
 532 00c0 FFF7FEFF 		bl	makise_pset
 533              	.LVL51:
 251:MakiseGUI/MakiseGUI/makise_primitives.c **** 	    makise_pset(b, j, y1, c);
 534              		.loc 1 251 0
 535 00c4 B9F80810 		ldrh	r1, [r9, #8]
 536 00c8 98FBF1F3 		sdiv	r3, r8, r1
 537 00cc B4FBF3F2 		udiv	r2, r4, r3
 538 00d0 03FB1242 		mls	r2, r3, r2, r4
 539 00d4 002A     		cmp	r2, #0
 540 00d6 ECD1     		bne	.L29
 541 00d8 B9F806E0 		ldrh	lr, [r9, #6]
 542              	.LVL52:
 543              	.L30:
 254:MakiseGUI/MakiseGUI/makise_primitives.c **** 	}
 255:MakiseGUI/MakiseGUI/makise_primitives.c **** 
 256:MakiseGUI/MakiseGUI/makise_primitives.c **** 	
 257:MakiseGUI/MakiseGUI/makise_primitives.c **** 	kb = (y0*(b->width) + j) * (b)->pixeldepth/32;
 544              		.loc 1 257 0
 545 00dc 0EFB0A4E 		mla	lr, lr, r10, r4
 546 00e0 01FB0EF1 		mul	r1, r1, lr
 258:MakiseGUI/MakiseGUI/makise_primitives.c **** 	while(j <= x1 && x1 - j >= 32/b->pixeldepth)
 547              		.loc 1 258 0
 548 00e4 A542     		cmp	r5, r4
 257:MakiseGUI/MakiseGUI/makise_primitives.c **** 	while(j <= x1 && x1 - j >= 32/b->pixeldepth)
 549              		.loc 1 257 0
 550 00e6 4FEA5111 		lsr	r1, r1, #5
 551              	.LVL53:
 552              		.loc 1 258 0
 553 00ea 14D3     		bcc	.L32
 554 00ec 2A1B     		subs	r2, r5, r4
 555 00ee 9A42     		cmp	r2, r3
 556 00f0 11D3     		bcc	.L32
 557 00f2 D9F80C00 		ldr	r0, [r9, #12]
 558 00f6 1A19     		adds	r2, r3, r4
 559 00f8 AE1A     		subs	r6, r5, r2
 560 00fa 00EB8101 		add	r1, r0, r1, lsl #2
 561              	.LVL54:
 562 00fe 03E0     		b	.L33
ARM GAS  /tmp/ccQO1hsA.s 			page 16


 563              	.LVL55:
 564              	.L58:
 565              		.loc 1 258 0 is_stmt 0 discriminator 1
 566 0100 9E42     		cmp	r6, r3
 567 0102 08D3     		bcc	.L32
 568 0104 0646     		mov	r6, r0
 569 0106 1A44     		add	r2, r2, r3
 570              	.LVL56:
 571              	.L33:
 572              		.loc 1 258 0
 573 0108 AA42     		cmp	r2, r5
 259:MakiseGUI/MakiseGUI/makise_primitives.c **** 	{
 260:MakiseGUI/MakiseGUI/makise_primitives.c **** 	    b->buffer[kb] = C;
 574              		.loc 1 260 0 is_stmt 1
 575 010a 41F8047B 		str	r7, [r1], #4
 576              	.LVL57:
 261:MakiseGUI/MakiseGUI/makise_primitives.c **** 	    kb += 1;
 262:MakiseGUI/MakiseGUI/makise_primitives.c **** 	    j += 32/b->pixeldepth;
 577              		.loc 1 262 0
 578 010e 1446     		mov	r4, r2
 579 0110 A6EB0300 		sub	r0, r6, r3
 258:MakiseGUI/MakiseGUI/makise_primitives.c **** 	{
 580              		.loc 1 258 0
 581 0114 F4D9     		bls	.L58
 582              	.LVL58:
 583              	.L32:
 263:MakiseGUI/MakiseGUI/makise_primitives.c **** 	}
 264:MakiseGUI/MakiseGUI/makise_primitives.c **** 	j-=1;
 584              		.loc 1 264 0
 585 0116 013C     		subs	r4, r4, #1
 586              	.LVL59:
 265:MakiseGUI/MakiseGUI/makise_primitives.c **** 	while (j <= x1) {
 587              		.loc 1 265 0
 588 0118 AC42     		cmp	r4, r5
 589 011a 0AD8     		bhi	.L18
 590 011c 1FFA8AFA 		uxth	r10, r10
 591              	.L34:
 266:MakiseGUI/MakiseGUI/makise_primitives.c **** 	    makise_pset(b, j, y0, c);
 592              		.loc 1 266 0
 593 0120 A1B2     		uxth	r1, r4
 594 0122 5B46     		mov	r3, fp
 595 0124 5246     		mov	r2, r10
 596 0126 4846     		mov	r0, r9
 267:MakiseGUI/MakiseGUI/makise_primitives.c **** 	    j++;
 597              		.loc 1 267 0
 598 0128 0134     		adds	r4, r4, #1
 599              	.LVL60:
 266:MakiseGUI/MakiseGUI/makise_primitives.c **** 	    makise_pset(b, j, y0, c);
 600              		.loc 1 266 0
 601 012a FFF7FEFF 		bl	makise_pset
 602              	.LVL61:
 265:MakiseGUI/MakiseGUI/makise_primitives.c **** 	while (j <= x1) {
 603              		.loc 1 265 0
 604 012e AC42     		cmp	r4, r5
 605 0130 F6D9     		bls	.L34
 606              	.LVL62:
 607              	.L18:
ARM GAS  /tmp/ccQO1hsA.s 			page 17


 608              	.LBE5:
 268:MakiseGUI/MakiseGUI/makise_primitives.c **** 	}
 269:MakiseGUI/MakiseGUI/makise_primitives.c **** 	return;
 270:MakiseGUI/MakiseGUI/makise_primitives.c ****     }
 271:MakiseGUI/MakiseGUI/makise_primitives.c **** 
 272:MakiseGUI/MakiseGUI/makise_primitives.c ****     int dx = abs(x1-x0), sx = x0<x1 ? 1 : -1;
 273:MakiseGUI/MakiseGUI/makise_primitives.c ****     int sy = y0<y1 ? 1 : -1; 
 274:MakiseGUI/MakiseGUI/makise_primitives.c ****     int err = (dx>dy ? dx : -dy)/2, e2;
 275:MakiseGUI/MakiseGUI/makise_primitives.c ****  
 276:MakiseGUI/MakiseGUI/makise_primitives.c ****     for(;;){
 277:MakiseGUI/MakiseGUI/makise_primitives.c **** 	makise_pset(b, x0, y0, c);
 278:MakiseGUI/MakiseGUI/makise_primitives.c **** 	if (x0==x1 && y0==y1) break;
 279:MakiseGUI/MakiseGUI/makise_primitives.c **** 	e2 = err;
 280:MakiseGUI/MakiseGUI/makise_primitives.c **** 	if (e2 >-dx) { err -= dy; x0 += sx; }
 281:MakiseGUI/MakiseGUI/makise_primitives.c **** 	if (e2 < dy) { err += dx; y0 += sy; }
 282:MakiseGUI/MakiseGUI/makise_primitives.c ****     }
 283:MakiseGUI/MakiseGUI/makise_primitives.c **** }
 609              		.loc 1 283 0
 610 0132 07B0     		add	sp, sp, #28
 611              	.LCFI7:
 612              		.cfi_remember_state
 613              		.cfi_def_cfa_offset 36
 614              		@ sp needed
 615 0134 BDE8F08F 		pop	{r4, r5, r6, r7, r8, r9, r10, fp, pc}
 616              	.LVL63:
 617              	.L56:
 618              	.LCFI8:
 619              		.cfi_restore_state
 220:MakiseGUI/MakiseGUI/makise_primitives.c **** 	return;
 620              		.loc 1 220 0 discriminator 1
 621 0138 8E45     		cmp	lr, r1
 622 013a FADD     		ble	.L18
 222:MakiseGUI/MakiseGUI/makise_primitives.c **** 	return;
 623              		.loc 1 222 0
 624 013c 002F     		cmp	r7, #0
 625 013e BFF671AF 		bge	.L22
 626              	.L57:
 222:MakiseGUI/MakiseGUI/makise_primitives.c **** 	return;
 627              		.loc 1 222 0 is_stmt 0 discriminator 1
 628 0142 002A     		cmp	r2, #0
 629 0144 BFF66EAF 		bge	.L22
 630 0148 F3E7     		b	.L18
 631              	.LVL64:
 632              	.L24:
 272:MakiseGUI/MakiseGUI/makise_primitives.c ****     int sy = y0<y1 ? 1 : -1; 
 633              		.loc 1 272 0 is_stmt 1
 634 014a 2B1B     		subs	r3, r5, r4
 635 014c 002B     		cmp	r3, #0
 234:MakiseGUI/MakiseGUI/makise_primitives.c ****     
 636              		.loc 1 234 0
 637 014e 02B2     		sxth	r2, r0
 233:MakiseGUI/MakiseGUI/makise_primitives.c ****     y1 =  y1 < b->height-1 ? y1 : b->height - 1;
 638              		.loc 1 233 0
 639 0150 0FFA8AFA 		sxth	r10, r10
 272:MakiseGUI/MakiseGUI/makise_primitives.c ****     int sy = y0<y1 ? 1 : -1; 
 640              		.loc 1 272 0
 641 0154 B8BF     		it	lt
ARM GAS  /tmp/ccQO1hsA.s 			page 18


 642 0156 5B42     		rsblt	r3, r3, #0
 232:MakiseGUI/MakiseGUI/makise_primitives.c ****     y0 =  y0 < b->height-1 ? y0 : b->height - 1;
 643              		.loc 1 232 0
 644 0158 29B2     		sxth	r1, r5
 234:MakiseGUI/MakiseGUI/makise_primitives.c ****     
 645              		.loc 1 234 0
 646 015a 0592     		str	r2, [sp, #20]
 231:MakiseGUI/MakiseGUI/makise_primitives.c ****     x1 =  x1 < b->width-1 ? x1 : b->width - 1;
 647              		.loc 1 231 0
 648 015c 24B2     		sxth	r4, r4
 273:MakiseGUI/MakiseGUI/makise_primitives.c ****     int err = (dx>dy ? dx : -dy)/2, e2;
 649              		.loc 1 273 0
 650 015e 9245     		cmp	r10, r2
 651 0160 ACBF     		ite	ge
 652 0162 4FF0FF32 		movge	r2, #-1
 653 0166 0122     		movlt	r2, #1
 654 0168 0292     		str	r2, [sp, #8]
 272:MakiseGUI/MakiseGUI/makise_primitives.c ****     int sy = y0<y1 ? 1 : -1; 
 655              		.loc 1 272 0
 656 016a 8C42     		cmp	r4, r1
 657 016c ACBF     		ite	ge
 658 016e 4FF0FF32 		movge	r2, #-1
 659 0172 0122     		movlt	r2, #1
 274:MakiseGUI/MakiseGUI/makise_primitives.c ****  
 660              		.loc 1 274 0
 661 0174 B342     		cmp	r3, r6
 272:MakiseGUI/MakiseGUI/makise_primitives.c ****     int sy = y0<y1 ? 1 : -1; 
 662              		.loc 1 272 0
 663 0176 0493     		str	r3, [sp, #16]
 664              	.LVL65:
 232:MakiseGUI/MakiseGUI/makise_primitives.c ****     y0 =  y0 < b->height-1 ? y0 : b->height - 1;
 665              		.loc 1 232 0
 666 0178 0191     		str	r1, [sp, #4]
 272:MakiseGUI/MakiseGUI/makise_primitives.c ****     int sy = y0<y1 ? 1 : -1; 
 667              		.loc 1 272 0
 668 017a 0092     		str	r2, [sp]
 669              	.LVL66:
 274:MakiseGUI/MakiseGUI/makise_primitives.c ****  
 670              		.loc 1 274 0
 671 017c 2ADD     		ble	.L59
 274:MakiseGUI/MakiseGUI/makise_primitives.c ****  
 672              		.loc 1 274 0 is_stmt 0 discriminator 2
 673 017e 049B     		ldr	r3, [sp, #16]
 674 0180 5D10     		asrs	r5, r3, #1
 675              	.LVL67:
 676              	.L39:
 280:MakiseGUI/MakiseGUI/makise_primitives.c **** 	if (e2 < dy) { err += dx; y0 += sy; }
 677              		.loc 1 280 0 is_stmt 1
 678 0182 049B     		ldr	r3, [sp, #16]
 679 0184 5B42     		negs	r3, r3
 680 0186 A7B2     		uxth	r7, r4
 681 0188 1FFA8AF8 		uxth	r8, r10
 682 018c 0393     		str	r3, [sp, #12]
 683              	.LVL68:
 684              	.L38:
 277:MakiseGUI/MakiseGUI/makise_primitives.c **** 	if (x0==x1 && y0==y1) break;
 685              		.loc 1 277 0
ARM GAS  /tmp/ccQO1hsA.s 			page 19


 686 018e 5B46     		mov	r3, fp
 687 0190 4246     		mov	r2, r8
 688 0192 3946     		mov	r1, r7
 689 0194 4846     		mov	r0, r9
 690 0196 FFF7FEFF 		bl	makise_pset
 691              	.LVL69:
 278:MakiseGUI/MakiseGUI/makise_primitives.c **** 	e2 = err;
 692              		.loc 1 278 0
 693 019a 019A     		ldr	r2, [sp, #4]
 280:MakiseGUI/MakiseGUI/makise_primitives.c **** 	if (e2 < dy) { err += dx; y0 += sy; }
 694              		.loc 1 280 0
 695 019c 009B     		ldr	r3, [sp]
 278:MakiseGUI/MakiseGUI/makise_primitives.c **** 	e2 = err;
 696              		.loc 1 278 0
 697 019e 9442     		cmp	r4, r2
 280:MakiseGUI/MakiseGUI/makise_primitives.c **** 	if (e2 < dy) { err += dx; y0 += sy; }
 698              		.loc 1 280 0
 699 01a0 3B44     		add	r3, r7, r3
 278:MakiseGUI/MakiseGUI/makise_primitives.c **** 	e2 = err;
 700              		.loc 1 278 0
 701 01a2 1CD0     		beq	.L60
 702              	.L40:
 280:MakiseGUI/MakiseGUI/makise_primitives.c **** 	if (e2 < dy) { err += dx; y0 += sy; }
 703              		.loc 1 280 0
 704 01a4 039A     		ldr	r2, [sp, #12]
 705 01a6 9542     		cmp	r5, r2
 706 01a8 C8BF     		it	gt
 707 01aa 1CB2     		sxthgt	r4, r3
 708              	.LVL70:
 281:MakiseGUI/MakiseGUI/makise_primitives.c ****     }
 709              		.loc 1 281 0
 710 01ac 029A     		ldr	r2, [sp, #8]
 711 01ae C6BF     		itte	gt
 712 01b0 A7B2     		uxthgt	r7, r4
 280:MakiseGUI/MakiseGUI/makise_primitives.c **** 	if (e2 < dy) { err += dx; y0 += sy; }
 713              		.loc 1 280 0
 714 01b2 AB1B     		subgt	r3, r5, r6
 715              	.LVL71:
 716 01b4 2B46     		movle	r3, r5
 717              	.LVL72:
 281:MakiseGUI/MakiseGUI/makise_primitives.c ****     }
 718              		.loc 1 281 0
 719 01b6 B542     		cmp	r5, r6
 720 01b8 4244     		add	r2, r8, r2
 721 01ba 05DA     		bge	.L42
 281:MakiseGUI/MakiseGUI/makise_primitives.c ****     }
 722              		.loc 1 281 0 is_stmt 0 discriminator 1
 723 01bc 0FFA82FA 		sxth	r10, r2
 724              	.LVL73:
 725 01c0 049A     		ldr	r2, [sp, #16]
 726 01c2 1FFA8AF8 		uxth	r8, r10
 727 01c6 1344     		add	r3, r3, r2
 728              	.LVL74:
 729              	.L42:
 273:MakiseGUI/MakiseGUI/makise_primitives.c ****     int err = (dx>dy ? dx : -dy)/2, e2;
 730              		.loc 1 273 0 is_stmt 1
 731 01c8 1D46     		mov	r5, r3
ARM GAS  /tmp/ccQO1hsA.s 			page 20


 732              	.LVL75:
 733 01ca E0E7     		b	.L38
 734              	.LVL76:
 735              	.L55:
 218:MakiseGUI/MakiseGUI/makise_primitives.c **** 	return;
 736              		.loc 1 218 0 discriminator 1
 737 01cc 0029     		cmp	r1, #0
 738 01ce BFF621AF 		bge	.L19
 739 01d2 AEE7     		b	.L18
 740              	.LVL77:
 741              	.L59:
 274:MakiseGUI/MakiseGUI/makise_primitives.c ****  
 742              		.loc 1 274 0 discriminator 1
 743 01d4 06EBD675 		add	r5, r6, r6, lsr #31
 744              	.LVL78:
 745 01d8 6D10     		asrs	r5, r5, #1
 746 01da 6D42     		negs	r5, r5
 747 01dc D1E7     		b	.L39
 748              	.LVL79:
 749              	.L60:
 278:MakiseGUI/MakiseGUI/makise_primitives.c **** 	e2 = err;
 750              		.loc 1 278 0 discriminator 1
 751 01de 059A     		ldr	r2, [sp, #20]
 752 01e0 9245     		cmp	r10, r2
 753 01e2 DFD1     		bne	.L40
 754              		.loc 1 283 0
 755 01e4 07B0     		add	sp, sp, #28
 756              	.LCFI9:
 757              		.cfi_remember_state
 758              		.cfi_def_cfa_offset 36
 759              	.LVL80:
 760              		@ sp needed
 761 01e6 BDE8F08F 		pop	{r4, r5, r6, r7, r8, r9, r10, fp, pc}
 762              	.LVL81:
 763              	.L43:
 764              	.LCFI10:
 765              		.cfi_restore_state
 766              	.LBB8:
 767              	.LBB7:
 245:MakiseGUI/MakiseGUI/makise_primitives.c **** 	{
 768              		.loc 1 245 0
 769 01ea 1F46     		mov	r7, r3
 770 01ec 56E7     		b	.L25
 771              	.LBE7:
 772              	.LBE8:
 773              		.cfi_endproc
 774              	.LFE132:
 776 01ee 00BF     		.section	.text.makise_d_rect,"ax",%progbits
 777              		.align	1
 778              		.p2align 2,,3
 779              		.global	makise_d_rect
 780              		.syntax unified
 781              		.thumb
 782              		.thumb_func
 783              		.fpu fpv4-sp-d16
 785              	makise_d_rect:
 786              	.LFB128:
ARM GAS  /tmp/ccQO1hsA.s 			page 21


  26:MakiseGUI/MakiseGUI/makise_primitives.c ****     if(x >= b->width || y >= b->height)
 787              		.loc 1 26 0
 788              		.cfi_startproc
 789              		@ args = 8, pretend = 0, frame = 0
 790              		@ frame_needed = 0, uses_anonymous_args = 0
 791              	.LVL82:
 792 0000 2DE9F043 		push	{r4, r5, r6, r7, r8, r9, lr}
 793              	.LCFI11:
 794              		.cfi_def_cfa_offset 28
 795              		.cfi_offset 4, -28
 796              		.cfi_offset 5, -24
 797              		.cfi_offset 6, -20
 798              		.cfi_offset 7, -16
 799              		.cfi_offset 8, -12
 800              		.cfi_offset 9, -8
 801              		.cfi_offset 14, -4
 802 0004 0C46     		mov	r4, r1
  27:MakiseGUI/MakiseGUI/makise_primitives.c **** 	return;
 803              		.loc 1 27 0
 804 0006 C188     		ldrh	r1, [r0, #6]
 805              	.LVL83:
  26:MakiseGUI/MakiseGUI/makise_primitives.c ****     if(x >= b->width || y >= b->height)
 806              		.loc 1 26 0
 807 0008 83B0     		sub	sp, sp, #12
 808              	.LCFI12:
 809              		.cfi_def_cfa_offset 40
  27:MakiseGUI/MakiseGUI/makise_primitives.c **** 	return;
 810              		.loc 1 27 0
 811 000a 8C42     		cmp	r4, r1
  26:MakiseGUI/MakiseGUI/makise_primitives.c ****     if(x >= b->width || y >= b->height)
 812              		.loc 1 26 0
 813 000c BDF82870 		ldrh	r7, [sp, #40]
 814 0010 DDF82C80 		ldr	r8, [sp, #44]
  27:MakiseGUI/MakiseGUI/makise_primitives.c **** 	return;
 815              		.loc 1 27 0
 816 0014 45DA     		bge	.L61
 817 0016 1546     		mov	r5, r2
  27:MakiseGUI/MakiseGUI/makise_primitives.c **** 	return;
 818              		.loc 1 27 0 is_stmt 0 discriminator 1
 819 0018 8288     		ldrh	r2, [r0, #4]
 820              	.LVL84:
 821 001a 9542     		cmp	r5, r2
 822 001c 0646     		mov	r6, r0
 823 001e 2846     		mov	r0, r5
 824              	.LVL85:
 825 0020 3FDA     		bge	.L61
  29:MakiseGUI/MakiseGUI/makise_primitives.c ****     {
 826              		.loc 1 29 0 is_stmt 1
 827 0022 002C     		cmp	r4, #0
 828 0024 40DB     		blt	.L74
 829              	.LVL86:
 830              	.L63:
  36:MakiseGUI/MakiseGUI/makise_primitives.c ****     {
 831              		.loc 1 36 0
 832 0026 002D     		cmp	r5, #0
 833 0028 46DB     		blt	.L75
 834              	.LVL87:
ARM GAS  /tmp/ccQO1hsA.s 			page 22


 835              	.L64:
  43:MakiseGUI/MakiseGUI/makise_primitives.c **** 	w = b->width - x - 1;
 836              		.loc 1 43 0
 837 002a 04EB030E 		add	lr, r4, r3
 838 002e 7145     		cmp	r1, lr
 839 0030 02DC     		bgt	.L65
  44:MakiseGUI/MakiseGUI/makise_primitives.c ****     if(y + h >= b->height)
 840              		.loc 1 44 0
 841 0032 4B1E     		subs	r3, r1, #1
 842              	.LVL88:
 843 0034 1B1B     		subs	r3, r3, r4
 844 0036 9BB2     		uxth	r3, r3
 845              	.LVL89:
 846              	.L65:
  45:MakiseGUI/MakiseGUI/makise_primitives.c **** 	h = b->height - y - 1;
 847              		.loc 1 45 0
 848 0038 3844     		add	r0, r0, r7
 849 003a 8242     		cmp	r2, r0
 850 003c 02DC     		bgt	.L66
  46:MakiseGUI/MakiseGUI/makise_primitives.c ****     
 851              		.loc 1 46 0
 852 003e 571E     		subs	r7, r2, #1
 853              	.LVL90:
 854 0040 7F1B     		subs	r7, r7, r5
 855 0042 BFB2     		uxth	r7, r7
 856              	.LVL91:
 857              	.L66:
  48:MakiseGUI/MakiseGUI/makise_primitives.c **** 	return;
 858              		.loc 1 48 0
 859 0044 6BB3     		cbz	r3, .L61
  48:MakiseGUI/MakiseGUI/makise_primitives.c **** 	return;
 860              		.loc 1 48 0 is_stmt 0 discriminator 1
 861 0046 67B3     		cbz	r7, .L61
 862              	.LVL92:
  62:MakiseGUI/MakiseGUI/makise_primitives.c ****     makise_d_line(b, x, y + h, x + w, y + h, c);
 863              		.loc 1 62 0 is_stmt 1
 864 0048 04F1FF39 		add	r9, r4, #-1
 865 004c 4B44     		add	r3, r3, r9
 866              	.LVL93:
 867 004e 0FFA83F9 		sxth	r9, r3
 868 0052 4B46     		mov	r3, r9
 869 0054 2A46     		mov	r2, r5
 870 0056 2146     		mov	r1, r4
 871 0058 3046     		mov	r0, r6
 872 005a 8DE82001 		stm	sp, {r5, r8}
 873 005e FFF7FEFF 		bl	makise_d_line
 874              	.LVL94:
  63:MakiseGUI/MakiseGUI/makise_primitives.c ****     makise_d_line(b, x, y, x, y + h, c);
 875              		.loc 1 63 0
 876 0062 6B1E     		subs	r3, r5, #1
 877 0064 1F44     		add	r7, r7, r3
 878              	.LVL95:
 879 0066 3FB2     		sxth	r7, r7
 880 0068 4B46     		mov	r3, r9
 881 006a 3A46     		mov	r2, r7
 882 006c 2146     		mov	r1, r4
 883 006e 3046     		mov	r0, r6
ARM GAS  /tmp/ccQO1hsA.s 			page 23


 884 0070 CDF80480 		str	r8, [sp, #4]
 885 0074 0097     		str	r7, [sp]
 886 0076 FFF7FEFF 		bl	makise_d_line
 887              	.LVL96:
  64:MakiseGUI/MakiseGUI/makise_primitives.c ****     makise_d_line(b, x + w, y, x + w, y + h, c);
 888              		.loc 1 64 0
 889 007a 2346     		mov	r3, r4
 890 007c 2146     		mov	r1, r4
 891 007e 2A46     		mov	r2, r5
 892 0080 3046     		mov	r0, r6
 893 0082 8DE88001 		stm	sp, {r7, r8}
 894 0086 FFF7FEFF 		bl	makise_d_line
 895              	.LVL97:
  65:MakiseGUI/MakiseGUI/makise_primitives.c ****     /*
 896              		.loc 1 65 0
 897 008a 2A46     		mov	r2, r5
 898 008c 3046     		mov	r0, r6
 899 008e 4B46     		mov	r3, r9
 900 0090 4946     		mov	r1, r9
 901 0092 0A97     		str	r7, [sp, #40]
 902 0094 CDF82C80 		str	r8, [sp, #44]
 903              	.LVL98:
  72:MakiseGUI/MakiseGUI/makise_primitives.c **** void makise_d_rect_filled(MakiseBuffer* b, int16_t x, int16_t y, uint16_t w,
 904              		.loc 1 72 0
 905 0098 03B0     		add	sp, sp, #12
 906              	.LCFI13:
 907              		.cfi_remember_state
 908              		.cfi_def_cfa_offset 28
 909              		@ sp needed
 910 009a BDE8F043 		pop	{r4, r5, r6, r7, r8, r9, lr}
 911              	.LCFI14:
 912              		.cfi_restore 14
 913              		.cfi_restore 9
 914              		.cfi_restore 8
 915              		.cfi_restore 7
 916              		.cfi_restore 6
 917              		.cfi_restore 5
 918              		.cfi_restore 4
 919              		.cfi_def_cfa_offset 0
 920              	.LVL99:
  65:MakiseGUI/MakiseGUI/makise_primitives.c ****     /*
 921              		.loc 1 65 0
 922 009e FFF7FEBF 		b	makise_d_line
 923              	.LVL100:
 924              	.L61:
 925              	.LCFI15:
 926              		.cfi_restore_state
  72:MakiseGUI/MakiseGUI/makise_primitives.c **** void makise_d_rect_filled(MakiseBuffer* b, int16_t x, int16_t y, uint16_t w,
 927              		.loc 1 72 0
 928 00a2 03B0     		add	sp, sp, #12
 929              	.LCFI16:
 930              		.cfi_remember_state
 931              		.cfi_def_cfa_offset 28
 932              		@ sp needed
 933 00a4 BDE8F083 		pop	{r4, r5, r6, r7, r8, r9, pc}
 934              	.LVL101:
 935              	.L74:
ARM GAS  /tmp/ccQO1hsA.s 			page 24


 936              	.LCFI17:
 937              		.cfi_restore_state
  31:MakiseGUI/MakiseGUI/makise_primitives.c **** 	    return;
 938              		.loc 1 31 0
 939 00a8 C4F1000E 		rsb	lr, r4, #0
 940 00ac 9E45     		cmp	lr, r3
 941 00ae F8DC     		bgt	.L61
  33:MakiseGUI/MakiseGUI/makise_primitives.c **** 	x = 0;
 942              		.loc 1 33 0
 943 00b0 2344     		add	r3, r3, r4
 944              	.LVL102:
 945 00b2 9BB2     		uxth	r3, r3
 946              	.LVL103:
  34:MakiseGUI/MakiseGUI/makise_primitives.c ****     }
 947              		.loc 1 34 0
 948 00b4 0024     		movs	r4, #0
 949 00b6 B6E7     		b	.L63
 950              	.LVL104:
 951              	.L75:
  38:MakiseGUI/MakiseGUI/makise_primitives.c **** 	    return;
 952              		.loc 1 38 0
 953 00b8 6842     		negs	r0, r5
 954 00ba B842     		cmp	r0, r7
 955 00bc F1DC     		bgt	.L61
  40:MakiseGUI/MakiseGUI/makise_primitives.c **** 	y = 0;
 956              		.loc 1 40 0
 957 00be 2F44     		add	r7, r7, r5
 958 00c0 0025     		movs	r5, #0
 959 00c2 BFB2     		uxth	r7, r7
 960              	.LVL105:
  41:MakiseGUI/MakiseGUI/makise_primitives.c ****     }
 961              		.loc 1 41 0
 962 00c4 2846     		mov	r0, r5
 963 00c6 B0E7     		b	.L64
 964              		.cfi_endproc
 965              	.LFE128:
 967              		.section	.text.makise_d_rect_filled,"ax",%progbits
 968              		.align	1
 969              		.p2align 2,,3
 970              		.global	makise_d_rect_filled
 971              		.syntax unified
 972              		.thumb
 973              		.thumb_func
 974              		.fpu fpv4-sp-d16
 976              	makise_d_rect_filled:
 977              	.LFB129:
  75:MakiseGUI/MakiseGUI/makise_primitives.c ****     if(x >= b->width || y >= b->height)
 978              		.loc 1 75 0
 979              		.cfi_startproc
 980              		@ args = 12, pretend = 0, frame = 8
 981              		@ frame_needed = 0, uses_anonymous_args = 0
 982              	.LVL106:
 983 0000 2DE9F04F 		push	{r4, r5, r6, r7, r8, r9, r10, fp, lr}
 984              	.LCFI18:
 985              		.cfi_def_cfa_offset 36
 986              		.cfi_offset 4, -36
 987              		.cfi_offset 5, -32
ARM GAS  /tmp/ccQO1hsA.s 			page 25


 988              		.cfi_offset 6, -28
 989              		.cfi_offset 7, -24
 990              		.cfi_offset 8, -20
 991              		.cfi_offset 9, -16
 992              		.cfi_offset 10, -12
 993              		.cfi_offset 11, -8
 994              		.cfi_offset 14, -4
 995 0004 0E46     		mov	r6, r1
  76:MakiseGUI/MakiseGUI/makise_primitives.c **** 	return;
 996              		.loc 1 76 0
 997 0006 C188     		ldrh	r1, [r0, #6]
 998              	.LVL107:
  75:MakiseGUI/MakiseGUI/makise_primitives.c ****     if(x >= b->width || y >= b->height)
 999              		.loc 1 75 0
 1000 0008 85B0     		sub	sp, sp, #20
 1001              	.LCFI19:
 1002              		.cfi_def_cfa_offset 56
  76:MakiseGUI/MakiseGUI/makise_primitives.c **** 	return;
 1003              		.loc 1 76 0
 1004 000a 8E42     		cmp	r6, r1
  75:MakiseGUI/MakiseGUI/makise_primitives.c ****     if(x >= b->width || y >= b->height)
 1005              		.loc 1 75 0
 1006 000c 0546     		mov	r5, r0
 1007 000e BDF83800 		ldrh	r0, [sp, #56]
 1008              	.LVL108:
  76:MakiseGUI/MakiseGUI/makise_primitives.c **** 	return;
 1009              		.loc 1 76 0
 1010 0012 67DA     		bge	.L76
 1011 0014 1746     		mov	r7, r2
  76:MakiseGUI/MakiseGUI/makise_primitives.c **** 	return;
 1012              		.loc 1 76 0 is_stmt 0 discriminator 1
 1013 0016 AA88     		ldrh	r2, [r5, #4]
 1014              	.LVL109:
 1015 0018 9742     		cmp	r7, r2
 1016 001a 3C46     		mov	r4, r7
 1017 001c 62DA     		bge	.L76
  78:MakiseGUI/MakiseGUI/makise_primitives.c ****     {
 1018              		.loc 1 78 0 is_stmt 1
 1019 001e 002E     		cmp	r6, #0
 1020 0020 63DB     		blt	.L92
 1021              	.LVL110:
 1022              	.L79:
  85:MakiseGUI/MakiseGUI/makise_primitives.c ****     {
 1023              		.loc 1 85 0
 1024 0022 002F     		cmp	r7, #0
 1025 0024 69DB     		blt	.L93
 1026              	.LVL111:
 1027              	.L80:
  92:MakiseGUI/MakiseGUI/makise_primitives.c **** 	w = b->width - x - 1;
 1028              		.loc 1 92 0
 1029 0026 06EB030E 		add	lr, r6, r3
 1030 002a 7145     		cmp	r1, lr
 1031 002c 02DC     		bgt	.L81
  93:MakiseGUI/MakiseGUI/makise_primitives.c ****     if(y + h >= b->height)
 1032              		.loc 1 93 0
 1033 002e 4B1E     		subs	r3, r1, #1
 1034              	.LVL112:
ARM GAS  /tmp/ccQO1hsA.s 			page 26


 1035 0030 9B1B     		subs	r3, r3, r6
 1036 0032 9BB2     		uxth	r3, r3
 1037              	.LVL113:
 1038              	.L81:
  94:MakiseGUI/MakiseGUI/makise_primitives.c **** 	h = b->height - y - 1;
 1039              		.loc 1 94 0
 1040 0034 0119     		adds	r1, r0, r4
 1041 0036 8A42     		cmp	r2, r1
 1042 0038 02DC     		bgt	.L82
  95:MakiseGUI/MakiseGUI/makise_primitives.c ****     
 1043              		.loc 1 95 0
 1044 003a 013A     		subs	r2, r2, #1
 1045 003c D21B     		subs	r2, r2, r7
 1046 003e 90B2     		uxth	r0, r2
 1047              	.LVL114:
 1048              	.L82:
  97:MakiseGUI/MakiseGUI/makise_primitives.c **** 	return;
 1049              		.loc 1 97 0
 1050 0040 002B     		cmp	r3, #0
 1051 0042 4FD0     		beq	.L76
  97:MakiseGUI/MakiseGUI/makise_primitives.c **** 	return;
 1052              		.loc 1 97 0 is_stmt 0 discriminator 1
 1053 0044 0028     		cmp	r0, #0
 1054 0046 4DD0     		beq	.L76
 111:MakiseGUI/MakiseGUI/makise_primitives.c ****     makise_d_line(b, x, y + h, x + w, y + h, c);
 1055              		.loc 1 111 0 is_stmt 1
 1056 0048 1FFA86F9 		uxth	r9, r6
 1057 004c 09F1FF32 		add	r2, r9, #-1
 1058 0050 1344     		add	r3, r3, r2
 1059              	.LVL115:
 1060 0052 9BB2     		uxth	r3, r3
 1061 0054 0393     		str	r3, [sp, #12]
 1062 0056 BDF90CB0 		ldrsh	fp, [sp, #12]
 1063 005a 0097     		str	r7, [sp]
 108:MakiseGUI/MakiseGUI/makise_primitives.c ****     w -= 1;
 1064              		.loc 1 108 0
 1065 005c 421E     		subs	r2, r0, #1
 1066 005e 1FFA82F8 		uxth	r8, r2
 1067              	.LVL116:
 111:MakiseGUI/MakiseGUI/makise_primitives.c ****     makise_d_line(b, x, y + h, x + w, y + h, c);
 1068              		.loc 1 111 0
 1069 0062 0F9A     		ldr	r2, [sp, #60]
 1070 0064 0192     		str	r2, [sp, #4]
 1071 0066 5B46     		mov	r3, fp
 1072 0068 3A46     		mov	r2, r7
 1073 006a 3146     		mov	r1, r6
 1074 006c 2846     		mov	r0, r5
 112:MakiseGUI/MakiseGUI/makise_primitives.c ****     makise_d_line(b, x, y, x, y + h, c);
 1075              		.loc 1 112 0
 1076 006e 08EB070A 		add	r10, r8, r7
 111:MakiseGUI/MakiseGUI/makise_primitives.c ****     makise_d_line(b, x, y + h, x + w, y + h, c);
 1077              		.loc 1 111 0
 1078 0072 FFF7FEFF 		bl	makise_d_line
 1079              	.LVL117:
 112:MakiseGUI/MakiseGUI/makise_primitives.c ****     makise_d_line(b, x, y, x, y + h, c);
 1080              		.loc 1 112 0
 1081 0076 0FFA8AFA 		sxth	r10, r10
ARM GAS  /tmp/ccQO1hsA.s 			page 27


 1082 007a 0F9A     		ldr	r2, [sp, #60]
 1083 007c 0192     		str	r2, [sp, #4]
 1084 007e 5B46     		mov	r3, fp
 1085 0080 5246     		mov	r2, r10
 1086 0082 3146     		mov	r1, r6
 1087 0084 2846     		mov	r0, r5
 1088 0086 CDF800A0 		str	r10, [sp]
 1089 008a FFF7FEFF 		bl	makise_d_line
 1090              	.LVL118:
 113:MakiseGUI/MakiseGUI/makise_primitives.c ****     makise_d_line(b, x + w, y, x + w, y + h, c);
 1091              		.loc 1 113 0
 1092 008e 0F9A     		ldr	r2, [sp, #60]
 1093 0090 0192     		str	r2, [sp, #4]
 1094 0092 3346     		mov	r3, r6
 1095 0094 3146     		mov	r1, r6
 1096 0096 3A46     		mov	r2, r7
 1097 0098 2846     		mov	r0, r5
 1098 009a CDF800A0 		str	r10, [sp]
 1099 009e FFF7FEFF 		bl	makise_d_line
 1100              	.LVL119:
 114:MakiseGUI/MakiseGUI/makise_primitives.c ****     /*
 1101              		.loc 1 114 0
 1102 00a2 0F9A     		ldr	r2, [sp, #60]
 1103 00a4 0192     		str	r2, [sp, #4]
 1104              	.LBB9:
 121:MakiseGUI/MakiseGUI/makise_primitives.c **** 	makise_d_line(b, x + 1, i, x+w - 1, i, fill_c);
 1105              		.loc 1 121 0
 1106 00a6 A044     		add	r8, r8, r4
 1107              	.LVL120:
 1108              	.LBE9:
 114:MakiseGUI/MakiseGUI/makise_primitives.c ****     /*
 1109              		.loc 1 114 0
 1110 00a8 CDF800A0 		str	r10, [sp]
 1111              	.LBB10:
 121:MakiseGUI/MakiseGUI/makise_primitives.c **** 	makise_d_line(b, x + 1, i, x+w - 1, i, fill_c);
 1112              		.loc 1 121 0
 1113 00ac 0134     		adds	r4, r4, #1
 1114              	.LBE10:
 114:MakiseGUI/MakiseGUI/makise_primitives.c ****     /*
 1115              		.loc 1 114 0
 1116 00ae 3A46     		mov	r2, r7
 1117 00b0 5B46     		mov	r3, fp
 1118 00b2 5946     		mov	r1, fp
 1119 00b4 2846     		mov	r0, r5
 1120 00b6 FFF7FEFF 		bl	makise_d_line
 1121              	.LVL121:
 1122              	.LBB11:
 121:MakiseGUI/MakiseGUI/makise_primitives.c **** 	makise_d_line(b, x + 1, i, x+w - 1, i, fill_c);
 1123              		.loc 1 121 0
 1124 00ba 4445     		cmp	r4, r8
 1125 00bc 12DA     		bge	.L76
 1126 00be 039B     		ldr	r3, [sp, #12]
 1127 00c0 09F10109 		add	r9, r9, #1
 1128 00c4 5E1E     		subs	r6, r3, #1
 1129              	.LVL122:
 1130 00c6 0FFA89F9 		sxth	r9, r9
 1131              	.LVL123:
ARM GAS  /tmp/ccQO1hsA.s 			page 28


 1132 00ca 36B2     		sxth	r6, r6
 1133              	.L83:
 122:MakiseGUI/MakiseGUI/makise_primitives.c ****     }    
 1134              		.loc 1 122 0 discriminator 3
 1135 00cc 109B     		ldr	r3, [sp, #64]
 1136 00ce 22B2     		sxth	r2, r4
 1137 00d0 8DE80C00 		stm	sp, {r2, r3}
 121:MakiseGUI/MakiseGUI/makise_primitives.c **** 	makise_d_line(b, x + 1, i, x+w - 1, i, fill_c);
 1138              		.loc 1 121 0 discriminator 3
 1139 00d4 0134     		adds	r4, r4, #1
 1140              	.LVL124:
 122:MakiseGUI/MakiseGUI/makise_primitives.c ****     }    
 1141              		.loc 1 122 0 discriminator 3
 1142 00d6 3346     		mov	r3, r6
 1143 00d8 4946     		mov	r1, r9
 1144 00da 2846     		mov	r0, r5
 1145 00dc FFF7FEFF 		bl	makise_d_line
 1146              	.LVL125:
 121:MakiseGUI/MakiseGUI/makise_primitives.c **** 	makise_d_line(b, x + 1, i, x+w - 1, i, fill_c);
 1147              		.loc 1 121 0 discriminator 3
 1148 00e0 4445     		cmp	r4, r8
 1149 00e2 F3D1     		bne	.L83
 1150              	.LVL126:
 1151              	.L76:
 1152              	.LBE11:
 124:MakiseGUI/MakiseGUI/makise_primitives.c **** void makise_d_circle(MakiseBuffer* b, uint16_t xc, uint16_t yc, uint16_t r, uint32_t c)
 1153              		.loc 1 124 0
 1154 00e4 05B0     		add	sp, sp, #20
 1155              	.LCFI20:
 1156              		.cfi_remember_state
 1157              		.cfi_def_cfa_offset 36
 1158              		@ sp needed
 1159 00e6 BDE8F08F 		pop	{r4, r5, r6, r7, r8, r9, r10, fp, pc}
 1160              	.LVL127:
 1161              	.L92:
 1162              	.LCFI21:
 1163              		.cfi_restore_state
  80:MakiseGUI/MakiseGUI/makise_primitives.c **** 	    return;
 1164              		.loc 1 80 0
 1165 00ea C6F1000E 		rsb	lr, r6, #0
 1166 00ee 9E45     		cmp	lr, r3
 1167 00f0 F8DC     		bgt	.L76
  82:MakiseGUI/MakiseGUI/makise_primitives.c **** 	x = 0;
 1168              		.loc 1 82 0
 1169 00f2 3344     		add	r3, r3, r6
 1170              	.LVL128:
 1171 00f4 9BB2     		uxth	r3, r3
 1172              	.LVL129:
  83:MakiseGUI/MakiseGUI/makise_primitives.c ****     }
 1173              		.loc 1 83 0
 1174 00f6 0026     		movs	r6, #0
 1175 00f8 93E7     		b	.L79
 1176              	.LVL130:
 1177              	.L93:
  87:MakiseGUI/MakiseGUI/makise_primitives.c **** 	    return;
 1178              		.loc 1 87 0
 1179 00fa 7C42     		negs	r4, r7
ARM GAS  /tmp/ccQO1hsA.s 			page 29


 1180 00fc 8442     		cmp	r4, r0
 1181 00fe F1DC     		bgt	.L76
  89:MakiseGUI/MakiseGUI/makise_primitives.c **** 	y = 0;
 1182              		.loc 1 89 0
 1183 0100 3844     		add	r0, r0, r7
 1184 0102 0027     		movs	r7, #0
 1185 0104 80B2     		uxth	r0, r0
 1186              	.LVL131:
  90:MakiseGUI/MakiseGUI/makise_primitives.c ****     }
 1187              		.loc 1 90 0
 1188 0106 3C46     		mov	r4, r7
 1189 0108 8DE7     		b	.L80
 1190              		.cfi_endproc
 1191              	.LFE129:
 1193 010a 00BF     		.section	.text.makise_d_circle_filled,"ax",%progbits
 1194              		.align	1
 1195              		.p2align 2,,3
 1196              		.global	makise_d_circle_filled
 1197              		.syntax unified
 1198              		.thumb
 1199              		.thumb_func
 1200              		.fpu fpv4-sp-d16
 1202              	makise_d_circle_filled:
 1203              	.LFB131:
 165:MakiseGUI/MakiseGUI/makise_primitives.c ****     //middle point algorythm
 1204              		.loc 1 165 0
 1205              		.cfi_startproc
 1206              		@ args = 8, pretend = 0, frame = 56
 1207              		@ frame_needed = 0, uses_anonymous_args = 0
 1208              	.LVL132:
 1209 0000 2DE9F04F 		push	{r4, r5, r6, r7, r8, r9, r10, fp, lr}
 1210              	.LCFI22:
 1211              		.cfi_def_cfa_offset 36
 1212              		.cfi_offset 4, -36
 1213              		.cfi_offset 5, -32
 1214              		.cfi_offset 6, -28
 1215              		.cfi_offset 7, -24
 1216              		.cfi_offset 8, -20
 1217              		.cfi_offset 9, -16
 1218              		.cfi_offset 10, -12
 1219              		.cfi_offset 11, -8
 1220              		.cfi_offset 14, -4
 1221 0004 91B0     		sub	sp, sp, #68
 1222              	.LCFI23:
 1223              		.cfi_def_cfa_offset 104
 173:MakiseGUI/MakiseGUI/makise_primitives.c ****     makise_pset(b, xc, yc + r, c);
 1224              		.loc 1 173 0
 1225 0006 CC1A     		subs	r4, r1, r3
 169:MakiseGUI/MakiseGUI/makise_primitives.c ****     int16_t x = 0;
 1226              		.loc 1 169 0
 1227 0008 C3EBC336 		rsb	r6, r3, r3, lsl #15
 165:MakiseGUI/MakiseGUI/makise_primitives.c ****     //middle point algorythm
 1228              		.loc 1 165 0
 1229 000c 1F46     		mov	r7, r3
 173:MakiseGUI/MakiseGUI/makise_primitives.c ****     makise_pset(b, xc, yc + r, c);
 1230              		.loc 1 173 0
 1231 000e 5D18     		adds	r5, r3, r1
ARM GAS  /tmp/ccQO1hsA.s 			page 30


 1232 0010 1FFA84FB 		uxth	fp, r4
 169:MakiseGUI/MakiseGUI/makise_primitives.c ****     int16_t x = 0;
 1233              		.loc 1 169 0
 1234 0014 7600     		lsls	r6, r6, #1
 173:MakiseGUI/MakiseGUI/makise_primitives.c ****     makise_pset(b, xc, yc + r, c);
 1235              		.loc 1 173 0
 1236 0016 1B9C     		ldr	r4, [sp, #108]
 165:MakiseGUI/MakiseGUI/makise_primitives.c ****     //middle point algorythm
 1237              		.loc 1 165 0
 1238 0018 0C92     		str	r2, [sp, #48]
 1239 001a 9146     		mov	r9, r2
 173:MakiseGUI/MakiseGUI/makise_primitives.c ****     makise_pset(b, xc, yc + r, c);
 1240              		.loc 1 173 0
 1241 001c ADB2     		uxth	r5, r5
 1242 001e 12B2     		sxth	r2, r2
 167:MakiseGUI/MakiseGUI/makise_primitives.c ****     int16_t ddF_x = 1;
 1243              		.loc 1 167 0
 1244 0020 0797     		str	r7, [sp, #28]
 173:MakiseGUI/MakiseGUI/makise_primitives.c ****     makise_pset(b, xc, yc + r, c);
 1245              		.loc 1 173 0
 1246 0022 0194     		str	r4, [sp, #4]
 167:MakiseGUI/MakiseGUI/makise_primitives.c ****     int16_t ddF_x = 1;
 1247              		.loc 1 167 0
 1248 0024 C7F10107 		rsb	r7, r7, #1
 169:MakiseGUI/MakiseGUI/makise_primitives.c ****     int16_t x = 0;
 1249              		.loc 1 169 0
 1250 0028 34B2     		sxth	r4, r6
 173:MakiseGUI/MakiseGUI/makise_primitives.c ****     makise_pset(b, xc, yc + r, c);
 1251              		.loc 1 173 0
 1252 002a 0891     		str	r1, [sp, #32]
 1253 002c 0092     		str	r2, [sp]
 1254 002e 0FFA8BF1 		sxth	r1, fp
 1255              	.LVL133:
 1256 0032 2BB2     		sxth	r3, r5
 1257              	.LVL134:
 169:MakiseGUI/MakiseGUI/makise_primitives.c ****     int16_t x = 0;
 1258              		.loc 1 169 0
 1259 0034 0B94     		str	r4, [sp, #44]
 167:MakiseGUI/MakiseGUI/makise_primitives.c ****     int16_t ddF_x = 1;
 1260              		.loc 1 167 0
 1261 0036 3CB2     		sxth	r4, r7
 165:MakiseGUI/MakiseGUI/makise_primitives.c ****     //middle point algorythm
 1262              		.loc 1 165 0
 1263 0038 DDF86880 		ldr	r8, [sp, #104]
 167:MakiseGUI/MakiseGUI/makise_primitives.c ****     int16_t ddF_x = 1;
 1264              		.loc 1 167 0
 1265 003c 0394     		str	r4, [sp, #12]
 1266              	.LVL135:
 165:MakiseGUI/MakiseGUI/makise_primitives.c ****     //middle point algorythm
 1267              		.loc 1 165 0
 1268 003e 8246     		mov	r10, r0
 173:MakiseGUI/MakiseGUI/makise_primitives.c ****     makise_pset(b, xc, yc + r, c);
 1269              		.loc 1 173 0
 1270 0040 FFF7FEFF 		bl	makise_d_line
 1271              	.LVL136:
 174:MakiseGUI/MakiseGUI/makise_primitives.c ****     makise_pset(b, xc, yc - r, c);
 1272              		.loc 1 174 0
ARM GAS  /tmp/ccQO1hsA.s 			page 31


 1273 0044 079F     		ldr	r7, [sp, #28]
 1274 0046 4E46     		mov	r6, r9
 1275 0048 DDF82090 		ldr	r9, [sp, #32]
 1276 004c BA19     		adds	r2, r7, r6
 1277 004e 92B2     		uxth	r2, r2
 1278 0050 4346     		mov	r3, r8
 1279 0052 4946     		mov	r1, r9
 1280 0054 5046     		mov	r0, r10
 1281 0056 FFF7FEFF 		bl	makise_pset
 1282              	.LVL137:
 175:MakiseGUI/MakiseGUI/makise_primitives.c ****     makise_pset(b, xc + r, yc, c);
 1283              		.loc 1 175 0
 1284 005a F21B     		subs	r2, r6, r7
 1285 005c 92B2     		uxth	r2, r2
 1286 005e 4346     		mov	r3, r8
 1287 0060 4946     		mov	r1, r9
 1288 0062 5046     		mov	r0, r10
 1289 0064 FFF7FEFF 		bl	makise_pset
 1290              	.LVL138:
 176:MakiseGUI/MakiseGUI/makise_primitives.c ****     makise_pset(b, xc - r, yc, c);
 1291              		.loc 1 176 0
 1292 0068 4346     		mov	r3, r8
 1293 006a 3246     		mov	r2, r6
 1294 006c 2946     		mov	r1, r5
 1295 006e 5046     		mov	r0, r10
 1296 0070 FFF7FEFF 		bl	makise_pset
 1297              	.LVL139:
 171:MakiseGUI/MakiseGUI/makise_primitives.c ****     int16_t dd;
 1298              		.loc 1 171 0
 1299 0074 3CB2     		sxth	r4, r7
 177:MakiseGUI/MakiseGUI/makise_primitives.c **** 
 1300              		.loc 1 177 0
 1301 0076 4346     		mov	r3, r8
 1302 0078 3246     		mov	r2, r6
 1303 007a 5946     		mov	r1, fp
 1304 007c 5046     		mov	r0, r10
 171:MakiseGUI/MakiseGUI/makise_primitives.c ****     int16_t dd;
 1305              		.loc 1 171 0
 1306 007e 0294     		str	r4, [sp, #8]
 1307              	.LVL140:
 177:MakiseGUI/MakiseGUI/makise_primitives.c **** 
 1308              		.loc 1 177 0
 1309 0080 FFF7FEFF 		bl	makise_pset
 1310              	.LVL141:
 179:MakiseGUI/MakiseGUI/makise_primitives.c ****     {
 1311              		.loc 1 179 0
 1312 0084 002C     		cmp	r4, #0
 1313 0086 40F3C980 		ble	.L94
 1314 008a 731C     		adds	r3, r6, #1
 1315 008c 0E93     		str	r3, [sp, #56]
 1316 008e 4946     		mov	r1, r9
 1317 0090 731E     		subs	r3, r6, #1
 1318 0092 0D93     		str	r3, [sp, #52]
 1319 0094 4B1C     		adds	r3, r1, #1
 1320 0096 0022     		movs	r2, #0
 1321 0098 0A93     		str	r3, [sp, #40]
 1322 009a 09F1FF33 		add	r3, r9, #-1
ARM GAS  /tmp/ccQO1hsA.s 			page 32


 1323 009e 0492     		str	r2, [sp, #16]
 1324 00a0 0993     		str	r3, [sp, #36]
 1325 00a2 5BE0     		b	.L101
 1326              	.LVL142:
 1327              	.L105:
 1328 00a4 1FFA82FB 		uxth	fp, r2
 1329 00a8 0C9A     		ldr	r2, [sp, #48]
 1330 00aa 1346     		mov	r3, r2
 1331 00ac 5B44     		add	r3, r3, fp
 1332 00ae A2EB0B07 		sub	r7, r2, fp
 1333 00b2 9BB2     		uxth	r3, r3
 1334 00b4 0693     		str	r3, [sp, #24]
 1335 00b6 BFB2     		uxth	r7, r7
 1336              	.L98:
 199:MakiseGUI/MakiseGUI/makise_primitives.c **** 	{
 1337              		.loc 1 199 0
 1338 00b8 059B     		ldr	r3, [sp, #20]
 1339 00ba 079A     		ldr	r2, [sp, #28]
 1340 00bc 9342     		cmp	r3, r2
 1341 00be 0E9B     		ldr	r3, [sp, #56]
 1342 00c0 04EB0306 		add	r6, r4, r3
 1343 00c4 40F08B80 		bne	.L99
 1344 00c8 0D9B     		ldr	r3, [sp, #52]
 1345 00ca 1D1B     		subs	r5, r3, r4
 1346 00cc B6B2     		uxth	r6, r6
 1347 00ce ADB2     		uxth	r5, r5
 1348              	.L100:
 1349 00d0 0A9B     		ldr	r3, [sp, #40]
 204:MakiseGUI/MakiseGUI/makise_primitives.c **** 	makise_pset(b, xc - x, yc + y, c);
 1350              		.loc 1 204 0
 1351 00d2 069A     		ldr	r2, [sp, #24]
 1352 00d4 04EB0309 		add	r9, r4, r3
 1353 00d8 1FFA89F9 		uxth	r9, r9
 1354 00dc 4946     		mov	r1, r9
 1355 00de 4346     		mov	r3, r8
 1356 00e0 5046     		mov	r0, r10
 1357 00e2 FFF7FEFF 		bl	makise_pset
 1358              	.LVL143:
 1359 00e6 099B     		ldr	r3, [sp, #36]
 205:MakiseGUI/MakiseGUI/makise_primitives.c **** 	makise_pset(b, xc + x, yc - y, c);
 1360              		.loc 1 205 0
 1361 00e8 069A     		ldr	r2, [sp, #24]
 1362 00ea 1C1B     		subs	r4, r3, r4
 1363 00ec A4B2     		uxth	r4, r4
 1364 00ee 2146     		mov	r1, r4
 1365 00f0 4346     		mov	r3, r8
 1366 00f2 5046     		mov	r0, r10
 1367 00f4 FFF7FEFF 		bl	makise_pset
 1368              	.LVL144:
 206:MakiseGUI/MakiseGUI/makise_primitives.c **** 	makise_pset(b, xc - x, yc - y, c);
 1369              		.loc 1 206 0
 1370 00f8 3A46     		mov	r2, r7
 1371 00fa 4346     		mov	r3, r8
 1372 00fc 4946     		mov	r1, r9
 1373 00fe 5046     		mov	r0, r10
 1374 0100 FFF7FEFF 		bl	makise_pset
 1375              	.LVL145:
ARM GAS  /tmp/ccQO1hsA.s 			page 33


 207:MakiseGUI/MakiseGUI/makise_primitives.c **** 	makise_pset(b, xc + y, yc + x, c);
 1376              		.loc 1 207 0
 1377 0104 3A46     		mov	r2, r7
 1378 0106 2146     		mov	r1, r4
 1379 0108 4346     		mov	r3, r8
 1380 010a 5046     		mov	r0, r10
 1381 010c FFF7FEFF 		bl	makise_pset
 1382              	.LVL146:
 208:MakiseGUI/MakiseGUI/makise_primitives.c **** 	makise_pset(b, xc - y, yc + x, c);
 1383              		.loc 1 208 0
 1384 0110 089F     		ldr	r7, [sp, #32]
 1385 0112 07EB0B04 		add	r4, r7, fp
 1386 0116 A4B2     		uxth	r4, r4
 209:MakiseGUI/MakiseGUI/makise_primitives.c **** 	makise_pset(b, xc + y, yc - x, c);
 1387              		.loc 1 209 0
 1388 0118 A7EB0B07 		sub	r7, r7, fp
 208:MakiseGUI/MakiseGUI/makise_primitives.c **** 	makise_pset(b, xc - y, yc + x, c);
 1389              		.loc 1 208 0
 1390 011c 2146     		mov	r1, r4
 1391 011e 4346     		mov	r3, r8
 1392 0120 3246     		mov	r2, r6
 1393 0122 5046     		mov	r0, r10
 209:MakiseGUI/MakiseGUI/makise_primitives.c **** 	makise_pset(b, xc + y, yc - x, c);
 1394              		.loc 1 209 0
 1395 0124 BFB2     		uxth	r7, r7
 208:MakiseGUI/MakiseGUI/makise_primitives.c **** 	makise_pset(b, xc - y, yc + x, c);
 1396              		.loc 1 208 0
 1397 0126 FFF7FEFF 		bl	makise_pset
 1398              	.LVL147:
 209:MakiseGUI/MakiseGUI/makise_primitives.c **** 	makise_pset(b, xc + y, yc - x, c);
 1399              		.loc 1 209 0
 1400 012a 3246     		mov	r2, r6
 1401 012c 3946     		mov	r1, r7
 1402 012e 4346     		mov	r3, r8
 1403 0130 5046     		mov	r0, r10
 1404 0132 FFF7FEFF 		bl	makise_pset
 1405              	.LVL148:
 210:MakiseGUI/MakiseGUI/makise_primitives.c **** 	makise_pset(b, xc - y, yc - x, c);
 1406              		.loc 1 210 0
 1407 0136 2146     		mov	r1, r4
 1408 0138 4346     		mov	r3, r8
 1409 013a 2A46     		mov	r2, r5
 1410 013c 5046     		mov	r0, r10
 1411 013e FFF7FEFF 		bl	makise_pset
 1412              	.LVL149:
 1413 0142 049C     		ldr	r4, [sp, #16]
 211:MakiseGUI/MakiseGUI/makise_primitives.c ****     }
 1414              		.loc 1 211 0
 1415 0144 4346     		mov	r3, r8
 1416 0146 2A46     		mov	r2, r5
 1417 0148 3946     		mov	r1, r7
 1418 014a 5046     		mov	r0, r10
 1419 014c 0134     		adds	r4, r4, #1
 1420 014e 0494     		str	r4, [sp, #16]
 1421              	.LVL150:
 1422 0150 FFF7FEFF 		bl	makise_pset
 1423              	.LVL151:
ARM GAS  /tmp/ccQO1hsA.s 			page 34


 179:MakiseGUI/MakiseGUI/makise_primitives.c ****     {
 1424              		.loc 1 179 0
 1425 0154 029B     		ldr	r3, [sp, #8]
 1426 0156 059A     		ldr	r2, [sp, #20]
 1427 0158 9342     		cmp	r3, r2
 1428 015a 5FDD     		ble	.L94
 1429              	.LVL152:
 1430              	.L101:
 184:MakiseGUI/MakiseGUI/makise_primitives.c **** 	{
 1431              		.loc 1 184 0
 1432 015c 039A     		ldr	r2, [sp, #12]
 1433 015e 002A     		cmp	r2, #0
 1434 0160 0CDB     		blt	.L96
 187:MakiseGUI/MakiseGUI/makise_primitives.c **** 	    f += ddF_y;
 1435              		.loc 1 187 0
 1436 0162 0B9B     		ldr	r3, [sp, #44]
 1437 0164 0233     		adds	r3, r3, #2
 1438 0166 9BB2     		uxth	r3, r3
 188:MakiseGUI/MakiseGUI/makise_primitives.c **** 	}
 1439              		.loc 1 188 0
 1440 0168 1A44     		add	r2, r2, r3
 1441 016a 1146     		mov	r1, r2
 186:MakiseGUI/MakiseGUI/makise_primitives.c **** 	    ddF_y += 2;
 1442              		.loc 1 186 0
 1443 016c 029A     		ldr	r2, [sp, #8]
 187:MakiseGUI/MakiseGUI/makise_primitives.c **** 	    f += ddF_y;
 1444              		.loc 1 187 0
 1445 016e 1BB2     		sxth	r3, r3
 186:MakiseGUI/MakiseGUI/makise_primitives.c **** 	    ddF_y += 2;
 1446              		.loc 1 186 0
 1447 0170 013A     		subs	r2, r2, #1
 188:MakiseGUI/MakiseGUI/makise_primitives.c **** 	}
 1448              		.loc 1 188 0
 1449 0172 09B2     		sxth	r1, r1
 187:MakiseGUI/MakiseGUI/makise_primitives.c **** 	    f += ddF_y;
 1450              		.loc 1 187 0
 1451 0174 0B93     		str	r3, [sp, #44]
 1452              	.LVL153:
 186:MakiseGUI/MakiseGUI/makise_primitives.c **** 	    ddF_y += 2;
 1453              		.loc 1 186 0
 1454 0176 13B2     		sxth	r3, r2
 188:MakiseGUI/MakiseGUI/makise_primitives.c **** 	}
 1455              		.loc 1 188 0
 1456 0178 0391     		str	r1, [sp, #12]
 1457              	.LVL154:
 186:MakiseGUI/MakiseGUI/makise_primitives.c **** 	    ddF_y += 2;
 1458              		.loc 1 186 0
 1459 017a 0293     		str	r3, [sp, #8]
 1460              	.LVL155:
 1461              	.L96:
 1462 017c BDF81040 		ldrh	r4, [sp, #16]
 192:MakiseGUI/MakiseGUI/makise_primitives.c **** 
 1463              		.loc 1 192 0
 1464 0180 039B     		ldr	r3, [sp, #12]
 194:MakiseGUI/MakiseGUI/makise_primitives.c **** 	{
 1465              		.loc 1 194 0
 1466 0182 0799     		ldr	r1, [sp, #28]
ARM GAS  /tmp/ccQO1hsA.s 			page 35


 192:MakiseGUI/MakiseGUI/makise_primitives.c **** 
 1467              		.loc 1 192 0
 1468 0184 03EB4403 		add	r3, r3, r4, lsl #1
 1469 0188 0333     		adds	r3, r3, #3
 1470 018a 621C     		adds	r2, r4, #1
 1471 018c 1BB2     		sxth	r3, r3
 1472 018e 0393     		str	r3, [sp, #12]
 1473              	.LVL156:
 1474 0190 13B2     		sxth	r3, r2
 194:MakiseGUI/MakiseGUI/makise_primitives.c **** 	{
 1475              		.loc 1 194 0
 1476 0192 029A     		ldr	r2, [sp, #8]
 1477 0194 0593     		str	r3, [sp, #20]
 1478              	.LVL157:
 1479 0196 8A42     		cmp	r2, r1
 1480 0198 84D0     		beq	.L105
 196:MakiseGUI/MakiseGUI/makise_primitives.c **** 	    makise_d_line(b, xc - x + 1, yc - y, xc + x - 1, yc - y, fill_c);
 1481              		.loc 1 196 0
 1482 019a 0C9F     		ldr	r7, [sp, #48]
 1483 019c BDF808B0 		ldrh	fp, [sp, #8]
 1484 01a0 089A     		ldr	r2, [sp, #32]
 1485 01a2 3B46     		mov	r3, r7
 1486 01a4 5B44     		add	r3, r3, fp
 1487 01a6 9BB2     		uxth	r3, r3
 1488 01a8 0693     		str	r3, [sp, #24]
 1489 01aa 151B     		subs	r5, r2, r4
 1490 01ac 1619     		adds	r6, r2, r4
 1491 01ae 1AB2     		sxth	r2, r3
 1492 01b0 1B9B     		ldr	r3, [sp, #108]
 1493 01b2 2DB2     		sxth	r5, r5
 1494 01b4 36B2     		sxth	r6, r6
 197:MakiseGUI/MakiseGUI/makise_primitives.c **** 	}
 1495              		.loc 1 197 0
 1496 01b6 A7EB0B07 		sub	r7, r7, fp
 196:MakiseGUI/MakiseGUI/makise_primitives.c **** 	    makise_d_line(b, xc - x + 1, yc - y, xc + x - 1, yc - y, fill_c);
 1497              		.loc 1 196 0
 1498 01ba 8DE80C00 		stm	sp, {r2, r3}
 1499 01be 2946     		mov	r1, r5
 1500 01c0 3346     		mov	r3, r6
 1501 01c2 5046     		mov	r0, r10
 197:MakiseGUI/MakiseGUI/makise_primitives.c **** 	}
 1502              		.loc 1 197 0
 1503 01c4 BFB2     		uxth	r7, r7
 196:MakiseGUI/MakiseGUI/makise_primitives.c **** 	    makise_d_line(b, xc - x + 1, yc - y, xc + x - 1, yc - y, fill_c);
 1504              		.loc 1 196 0
 1505 01c6 FFF7FEFF 		bl	makise_d_line
 1506              	.LVL158:
 197:MakiseGUI/MakiseGUI/makise_primitives.c **** 	}
 1507              		.loc 1 197 0
 1508 01ca 1B98     		ldr	r0, [sp, #108]
 1509 01cc 0190     		str	r0, [sp, #4]
 1510 01ce 3AB2     		sxth	r2, r7
 1511 01d0 3346     		mov	r3, r6
 1512 01d2 2946     		mov	r1, r5
 1513 01d4 0092     		str	r2, [sp]
 1514 01d6 5046     		mov	r0, r10
 1515 01d8 FFF7FEFF 		bl	makise_d_line
ARM GAS  /tmp/ccQO1hsA.s 			page 36


 1516              	.LVL159:
 1517 01dc 6CE7     		b	.L98
 1518              	.L99:
 201:MakiseGUI/MakiseGUI/makise_primitives.c **** 	    makise_d_line(b, xc - y + 1, yc - x, xc + y - 1, yc - x, fill_c);
 1519              		.loc 1 201 0
 1520 01de 0A9B     		ldr	r3, [sp, #40]
 1521 01e0 1B99     		ldr	r1, [sp, #108]
 1522 01e2 0191     		str	r1, [sp, #4]
 1523 01e4 A3EB0B09 		sub	r9, r3, fp
 1524 01e8 099B     		ldr	r3, [sp, #36]
 1525 01ea B6B2     		uxth	r6, r6
 1526 01ec 32B2     		sxth	r2, r6
 1527 01ee 0FFA89F9 		sxth	r9, r9
 1528 01f2 5B44     		add	r3, fp, r3
 1529 01f4 1BB2     		sxth	r3, r3
 1530 01f6 0092     		str	r2, [sp]
 1531 01f8 4946     		mov	r1, r9
 1532 01fa 5046     		mov	r0, r10
 1533 01fc 0F93     		str	r3, [sp, #60]
 1534 01fe FFF7FEFF 		bl	makise_d_line
 1535              	.LVL160:
 1536 0202 0D9A     		ldr	r2, [sp, #52]
 202:MakiseGUI/MakiseGUI/makise_primitives.c **** 	}
 1537              		.loc 1 202 0
 1538 0204 1B98     		ldr	r0, [sp, #108]
 1539 0206 0190     		str	r0, [sp, #4]
 1540 0208 151B     		subs	r5, r2, r4
 1541 020a ADB2     		uxth	r5, r5
 1542 020c 2AB2     		sxth	r2, r5
 1543 020e 0F9B     		ldr	r3, [sp, #60]
 1544 0210 0092     		str	r2, [sp]
 1545 0212 4946     		mov	r1, r9
 1546 0214 5046     		mov	r0, r10
 1547 0216 FFF7FEFF 		bl	makise_d_line
 1548              	.LVL161:
 1549 021a 59E7     		b	.L100
 1550              	.LVL162:
 1551              	.L94:
 214:MakiseGUI/MakiseGUI/makise_primitives.c **** void makise_d_line(MakiseBuffer* b, int16_t x0, int16_t y0,
 1552              		.loc 1 214 0
 1553 021c 11B0     		add	sp, sp, #68
 1554              	.LCFI24:
 1555              		.cfi_def_cfa_offset 36
 1556              		@ sp needed
 1557 021e BDE8F08F 		pop	{r4, r5, r6, r7, r8, r9, r10, fp, pc}
 1558              		.cfi_endproc
 1559              	.LFE131:
 1561 0222 00BF     		.section	.text.makise_d_polyline.part.0,"ax",%progbits
 1562              		.align	1
 1563              		.p2align 2,,3
 1564              		.syntax unified
 1565              		.thumb
 1566              		.thumb_func
 1567              		.fpu fpv4-sp-d16
 1569              	makise_d_polyline.part.0:
 1570              	.LFB135:
 284:MakiseGUI/MakiseGUI/makise_primitives.c **** void makise_d_polyline(MakiseBuffer*b, MakisePoint* points, uint32_t count, uint32_t c)
ARM GAS  /tmp/ccQO1hsA.s 			page 37


 1571              		.loc 1 284 0
 1572              		.cfi_startproc
 1573              		@ args = 0, pretend = 0, frame = 0
 1574              		@ frame_needed = 0, uses_anonymous_args = 0
 1575              	.LVL163:
 285:MakiseGUI/MakiseGUI/makise_primitives.c **** {
 286:MakiseGUI/MakiseGUI/makise_primitives.c ****     if(count == 0 || points == 0)
 287:MakiseGUI/MakiseGUI/makise_primitives.c **** 	return;
 288:MakiseGUI/MakiseGUI/makise_primitives.c **** 
 289:MakiseGUI/MakiseGUI/makise_primitives.c ****     uint32_t i = 0;
 290:MakiseGUI/MakiseGUI/makise_primitives.c **** 
 291:MakiseGUI/MakiseGUI/makise_primitives.c ****     for(i = 1; i < count; i++)
 1576              		.loc 1 291 0
 1577 0000 012A     		cmp	r2, #1
 1578 0002 1DD9     		bls	.L112
 284:MakiseGUI/MakiseGUI/makise_primitives.c **** void makise_d_polyline(MakiseBuffer*b, MakisePoint* points, uint32_t count, uint32_t c)
 1579              		.loc 1 284 0
 1580 0004 2DE9F041 		push	{r4, r5, r6, r7, r8, lr}
 1581              	.LCFI25:
 1582              		.cfi_def_cfa_offset 24
 1583              		.cfi_offset 4, -24
 1584              		.cfi_offset 5, -20
 1585              		.cfi_offset 6, -16
 1586              		.cfi_offset 7, -12
 1587              		.cfi_offset 8, -8
 1588              		.cfi_offset 14, -4
 1589 0008 9846     		mov	r8, r3
 1590 000a 82B0     		sub	sp, sp, #8
 1591              	.LCFI26:
 1592              		.cfi_def_cfa_offset 32
 1593 000c 0746     		mov	r7, r0
 1594 000e 1646     		mov	r6, r2
 1595 0010 0C46     		mov	r4, r1
 1596              		.loc 1 291 0
 1597 0012 0125     		movs	r5, #1
 1598              	.LVL164:
 1599              	.L108:
 292:MakiseGUI/MakiseGUI/makise_primitives.c ****     {
 293:MakiseGUI/MakiseGUI/makise_primitives.c **** 	makise_d_line(b, points[i - 1].x, points[i - 1].y, points[i].x, points[i].y, c);
 1600              		.loc 1 293 0
 1601 0014 B4F90430 		ldrsh	r3, [r4, #4]
 1602 0018 B4F90220 		ldrsh	r2, [r4, #2]
 1603 001c B4F90010 		ldrsh	r1, [r4]
 1604 0020 CDF80480 		str	r8, [sp, #4]
 1605 0024 B4F90600 		ldrsh	r0, [r4, #6]
 1606 0028 0090     		str	r0, [sp]
 291:MakiseGUI/MakiseGUI/makise_primitives.c ****     {
 1607              		.loc 1 291 0
 1608 002a 0135     		adds	r5, r5, #1
 1609              	.LVL165:
 1610              		.loc 1 293 0
 1611 002c 3846     		mov	r0, r7
 1612 002e FFF7FEFF 		bl	makise_d_line
 1613              	.LVL166:
 291:MakiseGUI/MakiseGUI/makise_primitives.c ****     {
 1614              		.loc 1 291 0
 1615 0032 B542     		cmp	r5, r6
ARM GAS  /tmp/ccQO1hsA.s 			page 38


 1616 0034 04F10404 		add	r4, r4, #4
 1617 0038 ECD1     		bne	.L108
 294:MakiseGUI/MakiseGUI/makise_primitives.c ****     }
 295:MakiseGUI/MakiseGUI/makise_primitives.c **** }
 1618              		.loc 1 295 0
 1619 003a 02B0     		add	sp, sp, #8
 1620              	.LCFI27:
 1621              		.cfi_def_cfa_offset 24
 1622              		@ sp needed
 1623 003c BDE8F081 		pop	{r4, r5, r6, r7, r8, pc}
 1624              	.LVL167:
 1625              	.L112:
 1626              	.LCFI28:
 1627              		.cfi_def_cfa_offset 0
 1628              		.cfi_restore 4
 1629              		.cfi_restore 5
 1630              		.cfi_restore 6
 1631              		.cfi_restore 7
 1632              		.cfi_restore 8
 1633              		.cfi_restore 14
 1634 0040 7047     		bx	lr
 1635              		.cfi_endproc
 1636              	.LFE135:
 1638 0042 00BF     		.section	.text.makise_d_polyline,"ax",%progbits
 1639              		.align	1
 1640              		.p2align 2,,3
 1641              		.global	makise_d_polyline
 1642              		.syntax unified
 1643              		.thumb
 1644              		.thumb_func
 1645              		.fpu fpv4-sp-d16
 1647              	makise_d_polyline:
 1648              	.LFB133:
 285:MakiseGUI/MakiseGUI/makise_primitives.c ****     if(count == 0 || points == 0)
 1649              		.loc 1 285 0
 1650              		.cfi_startproc
 1651              		@ args = 0, pretend = 0, frame = 0
 1652              		@ frame_needed = 0, uses_anonymous_args = 0
 1653              		@ link register save eliminated.
 1654              	.LVL168:
 286:MakiseGUI/MakiseGUI/makise_primitives.c **** 	return;
 1655              		.loc 1 286 0
 1656 0000 3AB1     		cbz	r2, .L127
 285:MakiseGUI/MakiseGUI/makise_primitives.c ****     if(count == 0 || points == 0)
 1657              		.loc 1 285 0 discriminator 1
 1658 0002 10B4     		push	{r4}
 1659              	.LCFI29:
 1660              		.cfi_def_cfa_offset 4
 1661              		.cfi_offset 4, -4
 286:MakiseGUI/MakiseGUI/makise_primitives.c **** 	return;
 1662              		.loc 1 286 0 discriminator 1
 1663 0004 19B1     		cbz	r1, .L115
 1664              		.loc 1 295 0 discriminator 1
 1665 0006 5DF8044B 		ldr	r4, [sp], #4
 1666              	.LCFI30:
 1667              		.cfi_remember_state
 1668              		.cfi_restore 4
ARM GAS  /tmp/ccQO1hsA.s 			page 39


 1669              		.cfi_def_cfa_offset 0
 1670 000a FFF7FEBF 		b	makise_d_polyline.part.0
 1671              	.LVL169:
 1672              	.L115:
 1673              	.LCFI31:
 1674              		.cfi_restore_state
 1675              		.loc 1 295 0 is_stmt 0
 1676 000e 5DF8044B 		ldr	r4, [sp], #4
 1677              	.LCFI32:
 1678              		.cfi_restore 4
 1679              		.cfi_def_cfa_offset 0
 1680              	.L127:
 1681 0012 7047     		bx	lr
 1682              		.cfi_endproc
 1683              	.LFE133:
 1685              		.global	__aeabi_dcmpeq
 1686              		.global	__aeabi_d2f
 1687              		.section	.text.makise_dex_polyline,"ax",%progbits
 1688              		.align	1
 1689              		.p2align 2,,3
 1690              		.global	makise_dex_polyline
 1691              		.syntax unified
 1692              		.thumb
 1693              		.thumb_func
 1694              		.fpu fpv4-sp-d16
 1696              	makise_dex_polyline:
 1697              	.LFB134:
 296:MakiseGUI/MakiseGUI/makise_primitives.c **** 
 297:MakiseGUI/MakiseGUI/makise_primitives.c **** void makise_dex_polyline(MakiseBuffer*b, int32_t x, int32_t y, double rot, MakisePoint* points, uin
 298:MakiseGUI/MakiseGUI/makise_primitives.c **** {
 1698              		.loc 1 298 0 is_stmt 1
 1699              		.cfi_startproc
 1700              		@ args = 8, pretend = 0, frame = 16
 1701              		@ frame_needed = 0, uses_anonymous_args = 0
 1702              	.LVL170:
 1703 0000 2DE9F04F 		push	{r4, r5, r6, r7, r8, r9, r10, fp, lr}
 1704              	.LCFI33:
 1705              		.cfi_def_cfa_offset 36
 1706              		.cfi_offset 4, -36
 1707              		.cfi_offset 5, -32
 1708              		.cfi_offset 6, -28
 1709              		.cfi_offset 7, -24
 1710              		.cfi_offset 8, -20
 1711              		.cfi_offset 9, -16
 1712              		.cfi_offset 10, -12
 1713              		.cfi_offset 11, -8
 1714              		.cfi_offset 14, -4
 1715 0004 2DED068B 		vpush.64	{d8, d9, d10}
 1716              	.LCFI34:
 1717              		.cfi_def_cfa_offset 60
 1718              		.cfi_offset 80, -60
 1719              		.cfi_offset 81, -56
 1720              		.cfi_offset 82, -52
 1721              		.cfi_offset 83, -48
 1722              		.cfi_offset 84, -44
 1723              		.cfi_offset 85, -40
 1724 0008 87B0     		sub	sp, sp, #28
ARM GAS  /tmp/ccQO1hsA.s 			page 40


 1725              	.LCFI35:
 1726              		.cfi_def_cfa_offset 88
 1727              		.loc 1 298 0
 1728 000a 169D     		ldr	r5, [sp, #88]
 1729 000c 179F     		ldr	r7, [sp, #92]
 299:MakiseGUI/MakiseGUI/makise_primitives.c ****     if(count == 0 || points == 0)
 1730              		.loc 1 299 0
 1731 000e 002D     		cmp	r5, #0
 1732 0010 00F09480 		beq	.L128
 1733              		.loc 1 299 0 is_stmt 0 discriminator 1
 1734 0014 002B     		cmp	r3, #0
 1735 0016 00F09180 		beq	.L128
 1736 001a 1C46     		mov	r4, r3
 1737 001c 59EC108B 		vmov	r8, r9, d0
 1738 0020 9346     		mov	fp, r2
 1739 0022 8A46     		mov	r10, r1
 1740 0024 0646     		mov	r6, r0
 300:MakiseGUI/MakiseGUI/makise_primitives.c **** 	return;
 301:MakiseGUI/MakiseGUI/makise_primitives.c **** 
 302:MakiseGUI/MakiseGUI/makise_primitives.c ****     if(x == 0 && y == 0 && rot == 0)
 1741              		.loc 1 302 0 is_stmt 1
 1742 0026 51B9     		cbnz	r1, .L131
 1743              		.loc 1 302 0 is_stmt 0 discriminator 1
 1744 0028 4AB9     		cbnz	r2, .L131
 1745              		.loc 1 302 0 discriminator 2
 1746 002a 0022     		movs	r2, #0
 1747              	.LVL171:
 1748 002c 0023     		movs	r3, #0
 1749              	.LVL172:
 1750 002e 10EE100A 		vmov	r0, s0	@ int
 1751              	.LVL173:
 1752 0032 4946     		mov	r1, r9
 1753              	.LVL174:
 1754 0034 FFF7FEFF 		bl	__aeabi_dcmpeq
 1755              	.LVL175:
 1756 0038 0028     		cmp	r0, #0
 1757 003a 40F08480 		bne	.L140
 1758              	.L131:
 1759              	.LVL176:
 303:MakiseGUI/MakiseGUI/makise_primitives.c **** 	makise_d_polyline(b, points, count, c);
 304:MakiseGUI/MakiseGUI/makise_primitives.c ****     
 305:MakiseGUI/MakiseGUI/makise_primitives.c ****     uint32_t i = 0;
 306:MakiseGUI/MakiseGUI/makise_primitives.c ****     float co = cos(rot), si = sin(rot);
 1760              		.loc 1 306 0 is_stmt 1
 1761 003e 49EC108B 		vmov	d0, r8, r9
 1762 0042 FFF7FEFF 		bl	cos
 1763              	.LVL177:
 1764 0046 51EC100B 		vmov	r0, r1, d0
 1765 004a FFF7FEFF 		bl	__aeabi_d2f
 1766              	.LVL178:
 1767 004e 49EC108B 		vmov	d0, r8, r9
 1768 0052 0AEE100A 		vmov	s20, r0
 1769              	.LVL179:
 1770 0056 FFF7FEFF 		bl	sin
 1771              	.LVL180:
 1772 005a 51EC100B 		vmov	r0, r1, d0
 1773 005e FFF7FEFF 		bl	__aeabi_d2f
ARM GAS  /tmp/ccQO1hsA.s 			page 41


 1774              	.LVL181:
 307:MakiseGUI/MakiseGUI/makise_primitives.c ****     float lx, ly, cx, cy;
 308:MakiseGUI/MakiseGUI/makise_primitives.c **** 
 309:MakiseGUI/MakiseGUI/makise_primitives.c ****     lx = (points[0].x) * co - (points[0].y) * si + x;
 1775              		.loc 1 309 0
 1776 0062 B4F90030 		ldrsh	r3, [r4]
 1777 0066 07EE903A 		vmov	s15, r3	@ int
 1778 006a B4F90230 		ldrsh	r3, [r4, #2]
 1779 006e 07EE103A 		vmov	s14, r3	@ int
 1780 0072 F8EEE77A 		vcvt.f32.s32	s15, s15
 306:MakiseGUI/MakiseGUI/makise_primitives.c ****     float lx, ly, cx, cy;
 1781              		.loc 1 306 0
 1782 0076 0AEE900A 		vmov	s21, r0
 1783              	.LVL182:
 1784              		.loc 1 309 0
 1785 007a B8EEC77A 		vcvt.f32.s32	s14, s14
 1786 007e 2AEE276A 		vmul.f32	s12, s20, s15
 310:MakiseGUI/MakiseGUI/makise_primitives.c ****     ly = (points[0].x) * si + (points[0].y) * co + y;
 1787              		.loc 1 310 0
 1788 0082 6AEEA76A 		vmul.f32	s13, s21, s15
 309:MakiseGUI/MakiseGUI/makise_primitives.c ****     ly = (points[0].x) * si + (points[0].y) * co + y;
 1789              		.loc 1 309 0
 1790 0086 6AEE877A 		vmul.f32	s15, s21, s14
 1791              		.loc 1 310 0
 1792 008a 2AEE077A 		vmul.f32	s14, s20, s14
 309:MakiseGUI/MakiseGUI/makise_primitives.c ****     ly = (points[0].x) * si + (points[0].y) * co + y;
 1793              		.loc 1 309 0
 1794 008e 36EE676A 		vsub.f32	s12, s12, s15
 1795 0092 07EE90AA 		vmov	s15, r10	@ int
 1796 0096 B8EEE79A 		vcvt.f32.s32	s18, s15
 1797              		.loc 1 310 0
 1798 009a 07EE90BA 		vmov	s15, fp	@ int
 1799 009e 76EE876A 		vadd.f32	s13, s13, s14
 1800 00a2 F8EEE79A 		vcvt.f32.s32	s19, s15
 311:MakiseGUI/MakiseGUI/makise_primitives.c ****     for(i = 1; i < count; i++)
 1801              		.loc 1 311 0
 1802 00a6 012D     		cmp	r5, #1
 309:MakiseGUI/MakiseGUI/makise_primitives.c ****     ly = (points[0].x) * si + (points[0].y) * co + y;
 1803              		.loc 1 309 0
 1804 00a8 36EE096A 		vadd.f32	s12, s12, s18
 1805              	.LVL183:
 310:MakiseGUI/MakiseGUI/makise_primitives.c ****     ly = (points[0].x) * si + (points[0].y) * co + y;
 1806              		.loc 1 310 0
 1807 00ac 76EEA96A 		vadd.f32	s13, s13, s19
 1808              	.LVL184:
 1809              		.loc 1 311 0
 1810 00b0 44D9     		bls	.L128
 1811 00b2 4FF00108 		mov	r8, #1
 1812              	.LVL185:
 1813              	.L133:
 312:MakiseGUI/MakiseGUI/makise_primitives.c ****     {
 313:MakiseGUI/MakiseGUI/makise_primitives.c **** 	cx = (points[i].x) * co - (points[i].y) * si + x;
 1814              		.loc 1 313 0 discriminator 3
 1815 00b6 B4F90430 		ldrsh	r3, [r4, #4]
 1816 00ba 07EE903A 		vmov	s15, r3	@ int
 1817 00be B4F90630 		ldrsh	r3, [r4, #6]
 314:MakiseGUI/MakiseGUI/makise_primitives.c **** 	cy = (points[i].x) * si + (points[i].y) * co + y;
ARM GAS  /tmp/ccQO1hsA.s 			page 42


 315:MakiseGUI/MakiseGUI/makise_primitives.c **** 
 316:MakiseGUI/MakiseGUI/makise_primitives.c **** 	makise_d_line(b, lx , ly, cx, cy, c);
 1818              		.loc 1 316 0 discriminator 3
 1819 00c2 0197     		str	r7, [sp, #4]
 313:MakiseGUI/MakiseGUI/makise_primitives.c **** 	cy = (points[i].x) * si + (points[i].y) * co + y;
 1820              		.loc 1 313 0 discriminator 3
 1821 00c4 07EE103A 		vmov	s14, r3	@ int
 1822 00c8 F8EEE77A 		vcvt.f32.s32	s15, s15
 1823 00cc B8EEC77A 		vcvt.f32.s32	s14, s14
 314:MakiseGUI/MakiseGUI/makise_primitives.c **** 	cy = (points[i].x) * si + (points[i].y) * co + y;
 1824              		.loc 1 314 0 discriminator 3
 1825 00d0 6AEEA78A 		vmul.f32	s17, s21, s15
 1826 00d4 6AEE075A 		vmul.f32	s11, s20, s14
 313:MakiseGUI/MakiseGUI/makise_primitives.c **** 	cy = (points[i].x) * si + (points[i].y) * co + y;
 1827              		.loc 1 313 0 discriminator 3
 1828 00d8 2AEE278A 		vmul.f32	s16, s20, s15
 314:MakiseGUI/MakiseGUI/makise_primitives.c **** 	cy = (points[i].x) * si + (points[i].y) * co + y;
 1829              		.loc 1 314 0 discriminator 3
 1830 00dc 78EEA58A 		vadd.f32	s17, s17, s11
 313:MakiseGUI/MakiseGUI/makise_primitives.c **** 	cy = (points[i].x) * si + (points[i].y) * co + y;
 1831              		.loc 1 313 0 discriminator 3
 1832 00e0 2AEE877A 		vmul.f32	s14, s21, s14
 314:MakiseGUI/MakiseGUI/makise_primitives.c **** 	cy = (points[i].x) * si + (points[i].y) * co + y;
 1833              		.loc 1 314 0 discriminator 3
 1834 00e4 78EEA98A 		vadd.f32	s17, s17, s19
 313:MakiseGUI/MakiseGUI/makise_primitives.c **** 	cy = (points[i].x) * si + (points[i].y) * co + y;
 1835              		.loc 1 313 0 discriminator 3
 1836 00e8 38EE478A 		vsub.f32	s16, s16, s14
 1837              		.loc 1 316 0 discriminator 3
 1838 00ec FDEEE87A 		vcvt.s32.f32	s15, s17
 313:MakiseGUI/MakiseGUI/makise_primitives.c **** 	cy = (points[i].x) * si + (points[i].y) * co + y;
 1839              		.loc 1 313 0 discriminator 3
 1840 00f0 38EE098A 		vadd.f32	s16, s16, s18
 1841              	.LVL186:
 1842              		.loc 1 316 0 discriminator 3
 1843 00f4 CDED057A 		vstr.32	s15, [sp, #20]	@ int
 1844 00f8 FDEEE67A 		vcvt.s32.f32	s15, s13
 1845 00fc BDF91430 		ldrsh	r3, [sp, #20]
 1846 0100 CDED037A 		vstr.32	s15, [sp, #12]	@ int
 1847 0104 FDEEC67A 		vcvt.s32.f32	s15, s12
 1848 0108 0093     		str	r3, [sp]
 1849 010a CDED047A 		vstr.32	s15, [sp, #16]	@ int
 1850 010e FDEEC87A 		vcvt.s32.f32	s15, s16
 311:MakiseGUI/MakiseGUI/makise_primitives.c ****     {
 1851              		.loc 1 311 0 discriminator 3
 1852 0112 08F10108 		add	r8, r8, #1
 1853              	.LVL187:
 1854              		.loc 1 316 0 discriminator 3
 1855 0116 CDED027A 		vstr.32	s15, [sp, #8]	@ int
 1856 011a BDF90830 		ldrsh	r3, [sp, #8]
 1857 011e BDF90C20 		ldrsh	r2, [sp, #12]
 1858 0122 BDF91010 		ldrsh	r1, [sp, #16]
 1859 0126 3046     		mov	r0, r6
 1860 0128 FFF7FEFF 		bl	makise_d_line
 1861              	.LVL188:
 311:MakiseGUI/MakiseGUI/makise_primitives.c ****     {
 1862              		.loc 1 311 0 discriminator 3
ARM GAS  /tmp/ccQO1hsA.s 			page 43


 1863 012c 4545     		cmp	r5, r8
 1864 012e 04F10404 		add	r4, r4, #4
 317:MakiseGUI/MakiseGUI/makise_primitives.c **** 	lx = cx;
 1865              		.loc 1 317 0 discriminator 3
 1866 0132 B0EE486A 		vmov.f32	s12, s16
 318:MakiseGUI/MakiseGUI/makise_primitives.c **** 	ly = cy;
 1867              		.loc 1 318 0 discriminator 3
 1868 0136 F0EE686A 		vmov.f32	s13, s17
 311:MakiseGUI/MakiseGUI/makise_primitives.c ****     {
 1869              		.loc 1 311 0 discriminator 3
 1870 013a BCD1     		bne	.L133
 1871              	.LVL189:
 1872              	.L128:
 319:MakiseGUI/MakiseGUI/makise_primitives.c ****     }
 320:MakiseGUI/MakiseGUI/makise_primitives.c ****     
 321:MakiseGUI/MakiseGUI/makise_primitives.c **** }
 1873              		.loc 1 321 0
 1874 013c 07B0     		add	sp, sp, #28
 1875              	.LCFI36:
 1876              		.cfi_remember_state
 1877              		.cfi_def_cfa_offset 60
 1878              		@ sp needed
 1879 013e BDEC068B 		vldm	sp!, {d8-d10}
 1880              	.LCFI37:
 1881              		.cfi_restore 84
 1882              		.cfi_restore 85
 1883              		.cfi_restore 82
 1884              		.cfi_restore 83
 1885              		.cfi_restore 80
 1886              		.cfi_restore 81
 1887              		.cfi_def_cfa_offset 36
 1888 0142 BDE8F08F 		pop	{r4, r5, r6, r7, r8, r9, r10, fp, pc}
 1889              	.LVL190:
 1890              	.L140:
 1891              	.LCFI38:
 1892              		.cfi_restore_state
 1893              	.LBB12:
 1894              	.LBB13:
 1895 0146 3B46     		mov	r3, r7
 1896 0148 2A46     		mov	r2, r5
 1897 014a 2146     		mov	r1, r4
 1898 014c 3046     		mov	r0, r6
 1899 014e FFF7FEFF 		bl	makise_d_polyline.part.0
 1900              	.LVL191:
 1901 0152 74E7     		b	.L131
 1902              	.LBE13:
 1903              	.LBE12:
 1904              		.cfi_endproc
 1905              	.LFE134:
 1907              		.text
 1908              	.Letext0:
 1909              		.file 2 "MakiseGUI/MakiseGUI/makise.h"
 1910              		.file 3 "/usr/arm-none-eabi/include/machine/_default_types.h"
 1911              		.file 4 "/usr/arm-none-eabi/include/sys/lock.h"
 1912              		.file 5 "/usr/arm-none-eabi/include/sys/_types.h"
 1913              		.file 6 "/usr/lib/gcc/arm-none-eabi/6.3.0/include/stddef.h"
 1914              		.file 7 "/usr/arm-none-eabi/include/sys/reent.h"
ARM GAS  /tmp/ccQO1hsA.s 			page 44


 1915              		.file 8 "/usr/arm-none-eabi/include/sys/_stdint.h"
 1916              		.file 9 "Drivers/CMSIS/Include/core_cm4.h"
 1917              		.file 10 "Drivers/CMSIS/Device/ST/STM32F4xx/Include/system_stm32f4xx.h"
 1918              		.file 11 "Drivers/CMSIS/Device/ST/STM32F4xx/Include/stm32f401xe.h"
 1919              		.file 12 "Drivers/STM32F4xx_HAL_Driver/Inc/stm32f4xx_hal_def.h"
 1920              		.file 13 "Drivers/STM32F4xx_HAL_Driver/Inc/stm32f4xx_hal_dma.h"
 1921              		.file 14 "Drivers/STM32F4xx_HAL_Driver/Inc/stm32f4xx_hal_spi.h"
 1922              		.file 15 "Drivers/STM32F4xx_HAL_Driver/Inc/stm32f4xx_hal_tim.h"
 1923              		.file 16 "Inc/spi.h"
 1924              		.file 17 "Inc/tim.h"
 1925              		.file 18 "MakiseGUI/MakiseGUI/ILI9340C/ili9340.h"
 1926              		.file 19 "MakiseGUI/MakiseGUI/makise_text.h"
 1927              		.file 20 "MakiseGUI/MakiseGUI/fonts/fonts.h"
 1928              		.file 21 "MakiseGUI/MakiseGUI/makise_primitives.h"
 1929              		.file 22 "/usr/arm-none-eabi/include/math.h"
 1930              		.file 23 "/usr/arm-none-eabi/include/string.h"
ARM GAS  /tmp/ccQO1hsA.s 			page 45

