ARM GAS  /tmp/cctnYOgc.s 			page 1


   1              		.cpu cortex-m4
   2              		.eabi_attribute 27, 1
   3              		.eabi_attribute 28, 1
   4              		.eabi_attribute 23, 1
   5              		.eabi_attribute 24, 1
   6              		.eabi_attribute 25, 1
   7              		.eabi_attribute 26, 1
   8              		.eabi_attribute 30, 2
   9              		.eabi_attribute 34, 1
  10              		.eabi_attribute 18, 4
  11              		.file	"makise_test.c"
  12              		.text
  13              	.Ltext0:
  14              		.cfi_sections	.debug_frame
  15              		.section	.text.mt_predraw,"ax",%progbits
  16              		.align	1
  17              		.p2align 2,,3
  18              		.global	mt_predraw
  19              		.syntax unified
  20              		.thumb
  21              		.thumb_func
  22              		.fpu fpv4-sp-d16
  24              	mt_predraw:
  25              	.LFB128:
  26              		.file 1 "Src/makise_test.c"
   1:Src/makise_test.c **** #include "makise_test.h"
   2:Src/makise_test.c **** #include "controls_595.h"
   3:Src/makise_test.c **** #include <stdio.h>
   4:Src/makise_test.c **** #include <string.h>
   5:Src/makise_test.c **** MakiseGUI* mGui;
   6:Src/makise_test.c **** MHost *host;
   7:Src/makise_test.c **** MakiseGUI    Gu;
   8:Src/makise_test.c **** MakiseBuffer Bu;
   9:Src/makise_test.c **** MakiseDriver Dr;
  10:Src/makise_test.c **** MHost hs;
  11:Src/makise_test.c **** MContainer co;
  12:Src/makise_test.c **** uint32_t sb[3920] = {0};
  13:Src/makise_test.c **** 
  14:Src/makise_test.c **** 
  15:Src/makise_test.c **** void HAL_SPI_TxHalfCpltCallback(SPI_HandleTypeDef *hspi)
  16:Src/makise_test.c **** {
  17:Src/makise_test.c ****     if(hspi == &ILI9340_SPI)
  18:Src/makise_test.c **** 	ili9340_spi_txhalfcplt(mGui->driver);
  19:Src/makise_test.c **** }
  20:Src/makise_test.c **** void HAL_SPI_TxCpltCallback(SPI_HandleTypeDef *hspi)
  21:Src/makise_test.c **** {
  22:Src/makise_test.c ****     if(hspi == &ILI9340_SPI)
  23:Src/makise_test.c **** 	ili9340_spi_txcplt(mGui->driver);
  24:Src/makise_test.c **** }
  25:Src/makise_test.c **** 
  26:Src/makise_test.c **** 
  27:Src/makise_test.c **** void mt_predraw(MakiseGUI * g)
  28:Src/makise_test.c **** {
  27              		.loc 1 28 0
  28              		.cfi_startproc
  29              		@ args = 0, pretend = 0, frame = 0
  30              		@ frame_needed = 0, uses_anonymous_args = 0
ARM GAS  /tmp/cctnYOgc.s 			page 2


  31              		@ link register save eliminated.
  32              	.LVL0:
  29:Src/makise_test.c **** //    canv[0].el.position.x = (canv[0].el.position.x+1) %150;
  30:Src/makise_test.c ****     makise_g_host_call(host, M_G_CALL_PREDRAW);
  33              		.loc 1 30 0
  34 0000 024B     		ldr	r3, .L2
  35 0002 0221     		movs	r1, #2
  36 0004 1868     		ldr	r0, [r3]
  37              	.LVL1:
  38 0006 FFF7FEBF 		b	makise_g_host_call
  39              	.LVL2:
  40              	.L3:
  41 000a 00BF     		.align	2
  42              	.L2:
  43 000c 00000000 		.word	host
  44              		.cfi_endproc
  45              	.LFE128:
  47              		.section	.text.but_h,"ax",%progbits
  48              		.align	1
  49              		.p2align 2,,3
  50              		.global	but_h
  51              		.syntax unified
  52              		.thumb
  53              		.thumb_func
  54              		.fpu fpv4-sp-d16
  56              	but_h:
  57              	.LFB129:
  31:Src/makise_test.c **** 
  32:Src/makise_test.c **** }
  33:Src/makise_test.c **** 
  34:Src/makise_test.c **** controls_595_ButtonState buttons[] = {
  35:Src/makise_test.c ****     {1, 1, GPIOC, GPIO_PIN_0, 7, 0, 0, 0},
  36:Src/makise_test.c ****     {1, 2, GPIOC, GPIO_PIN_0, 6, 0, 0, 0},
  37:Src/makise_test.c ****     {1, 3, GPIOC, GPIO_PIN_0, 5, 0, 0, 0},
  38:Src/makise_test.c ****     {1, 4, GPIOC, GPIO_PIN_0, 4, 0, 0, 0},
  39:Src/makise_test.c **** 
  40:Src/makise_test.c ****     {1, 11, GPIOC, GPIO_PIN_1, 7, 0, 0, 0},
  41:Src/makise_test.c ****     {1, 12, GPIOC, GPIO_PIN_1, 6, 0, 0, 0},
  42:Src/makise_test.c ****     {1, 13, GPIOC, GPIO_PIN_1, 5, 0, 0, 0},
  43:Src/makise_test.c ****     {1, 14, GPIOC, GPIO_PIN_1, 4, 0, 0, 0},
  44:Src/makise_test.c **** 
  45:Src/makise_test.c **** };
  46:Src/makise_test.c **** 
  47:Src/makise_test.c **** controls_595_OutputState outs[] = {
  48:Src/makise_test.c ****     {1, 5, 0, 1},
  49:Src/makise_test.c ****     {1, 6, 1, 0},
  50:Src/makise_test.c ****     {1, 7, 2, 0},
  51:Src/makise_test.c ****     {1, 8, 3, 1},
  52:Src/makise_test.c **** };
  53:Src/makise_test.c **** void but_h(
  54:Src/makise_test.c ****     uint32_t id,
  55:Src/makise_test.c ****     uint8_t event,
  56:Src/makise_test.c ****     uint32_t time)
  57:Src/makise_test.c **** {
  58              		.loc 1 57 0
  59              		.cfi_startproc
  60              		@ args = 0, pretend = 0, frame = 112
ARM GAS  /tmp/cctnYOgc.s 			page 3


  61              		@ frame_needed = 0, uses_anonymous_args = 0
  62              	.LVL3:
  63 0000 F0B5     		push	{r4, r5, r6, r7, lr}
  64              	.LCFI0:
  65              		.cfi_def_cfa_offset 20
  66              		.cfi_offset 4, -20
  67              		.cfi_offset 5, -16
  68              		.cfi_offset 6, -12
  69              		.cfi_offset 7, -8
  70              		.cfi_offset 14, -4
  58:Src/makise_test.c ****     if(event & CONTROLS_ALL_CLICK)
  71              		.loc 1 58 0
  72 0002 11F0050F 		tst	r1, #5
  57:Src/makise_test.c ****     if(event & CONTROLS_ALL_CLICK)
  73              		.loc 1 57 0
  74 0006 9DB0     		sub	sp, sp, #116
  75              	.LCFI1:
  76              		.cfi_def_cfa_offset 136
  57:Src/makise_test.c ****     if(event & CONTROLS_ALL_CLICK)
  77              		.loc 1 57 0
  78 0008 0D46     		mov	r5, r1
  79 000a 0446     		mov	r4, r0
  80 000c 1646     		mov	r6, r2
  81              		.loc 1 58 0
  82 000e 11D0     		beq	.L5
  59:Src/makise_test.c ****     {
  60:Src/makise_test.c **** 	/* if(id == 3) */
  61:Src/makise_test.c **** 	/*     butt[2].el.position.y --; */
  62:Src/makise_test.c **** 	/* if(id == 1) */
  63:Src/makise_test.c **** 	/*     butt[2].el.position.y ++; */
  64:Src/makise_test.c **** 	/* if(id == 4) */
  65:Src/makise_test.c **** 	/*     butt[2].el.position.x ++; */
  66:Src/makise_test.c **** 	/* if(id == 2) */
  67:Src/makise_test.c **** 	/*     butt[2].el.position.x --; */
  68:Src/makise_test.c **** 
  69:Src/makise_test.c **** 	//m_element_focus(&(butt[1].el), M_G_FOCUS_GET);
  70:Src/makise_test.c **** //	    makise_g_focus(&(butt[1].el), M_G_FOCUS_GET);
  71:Src/makise_test.c **** 	if(id == 12)
  83              		.loc 1 71 0
  84 0010 0C28     		cmp	r0, #12
  85 0012 2ED0     		beq	.L31
  72:Src/makise_test.c **** 	    makise_g_cont_focus_prev(host->host);
  73:Src/makise_test.c **** 	if(id == 11)
  86              		.loc 1 73 0
  87 0014 0B28     		cmp	r0, #11
  88 0016 00F0A680 		beq	.L32
  74:Src/makise_test.c **** 	    makise_g_cont_focus_next(host->host);
  75:Src/makise_test.c **** 	if(id == 3 &&
  89              		.loc 1 75 0
  90 001a 0328     		cmp	r0, #3
  91 001c 00F08A80 		beq	.L33
  76:Src/makise_test.c **** 	   makise_g_host_input(host, (MInputData){M_KEY_UP, M_INPUT_CLICK, time, 0})
  77:Src/makise_test.c **** 	   == M_INPUT_NOT_HANDLED)
  78:Src/makise_test.c **** 	    makise_g_cont_focus_prev(host->host);
  79:Src/makise_test.c **** 	if(id == 1 &&
  92              		.loc 1 79 0
  93 0020 0128     		cmp	r0, #1
ARM GAS  /tmp/cctnYOgc.s 			page 4


  94 0022 00F0A680 		beq	.L34
  80:Src/makise_test.c **** 	   makise_g_host_input(host, (MInputData){M_KEY_DOWN, M_INPUT_CLICK, time, 0})
  81:Src/makise_test.c **** 	   == M_INPUT_NOT_HANDLED)
  82:Src/makise_test.c **** 	    makise_g_cont_focus_next(host->host);
  83:Src/makise_test.c **** 	if(id == 4 &&
  95              		.loc 1 83 0
  96 0026 0428     		cmp	r0, #4
  97 0028 3CD0     		beq	.L35
  84:Src/makise_test.c **** 	   makise_g_host_input(host, (MInputData){M_KEY_RIGHT, M_INPUT_CLICK, time, 0})
  85:Src/makise_test.c **** 	   == M_INPUT_NOT_HANDLED)
  86:Src/makise_test.c **** 	    makise_g_cont_focus_next(host->host);
  87:Src/makise_test.c **** 	if(id == 2 &&
  98              		.loc 1 87 0
  99 002a 0228     		cmp	r0, #2
 100 002c 00F0B880 		beq	.L20
  88:Src/makise_test.c **** 	   makise_g_host_input(host, (MInputData){M_KEY_LEFT, M_INPUT_CLICK, time, 0})
  89:Src/makise_test.c **** 	   == M_INPUT_NOT_HANDLED)
  90:Src/makise_test.c **** 	    makise_g_cont_focus_prev(host->host);
  91:Src/makise_test.c **** 	if(id == 13)
 101              		.loc 1 91 0
 102 0030 0D28     		cmp	r0, #13
 103 0032 24D0     		beq	.L21
 104              	.LVL4:
 105              	.L5:
  92:Src/makise_test.c **** 	    makise_g_host_input(host, (MInputData){M_KEY_OK, M_INPUT_CLICK, time, 0});
  93:Src/makise_test.c **** 
  94:Src/makise_test.c ****     }
  95:Src/makise_test.c **** //	    makise_g_focus(&(butt[0].el), M_G_FOCUS_GET);
  96:Src/makise_test.c ****     //m_element_focus(&(butt[0].el), M_G_FOCUS_GET);
  97:Src/makise_test.c **** //	if(id == 13)
  98:Src/makise_test.c **** //	    makise_g_focus(&(butt[2].el), M_G_FOCUS_GET);
  99:Src/makise_test.c **** //	    m_element_focus(&(butt[2].el), M_G_FOCUS_GET);
 100:Src/makise_test.c **** 	
 101:Src/makise_test.c ****     if(event & CONTROLS_ALL_PRESSING)
 106              		.loc 1 101 0
 107 0034 15F00A0F 		tst	r5, #10
 108 0038 08D0     		beq	.L4
 102:Src/makise_test.c ****     {
 103:Src/makise_test.c **** 	if(id == 3)
 109              		.loc 1 103 0
 110 003a 032C     		cmp	r4, #3
 111 003c 58D0     		beq	.L36
 104:Src/makise_test.c **** 	    makise_g_host_input(host, (MInputData){M_KEY_UP, M_INPUT_PRESSING, time, 0});
 105:Src/makise_test.c **** 	if(id == 1)
 112              		.loc 1 105 0
 113 003e 012C     		cmp	r4, #1
 114 0040 67D0     		beq	.L37
 106:Src/makise_test.c **** 	    makise_g_host_input(host, (MInputData){M_KEY_DOWN, M_INPUT_PRESSING, time, 0});
 107:Src/makise_test.c **** 	if(id == 4)
 115              		.loc 1 107 0
 116 0042 042C     		cmp	r4, #4
 117 0044 00F0C380 		beq	.L38
 118              	.L19:
 108:Src/makise_test.c **** 	    makise_g_host_input(host, (MInputData){M_KEY_RIGHT, M_INPUT_PRESSING, time, 0});
 109:Src/makise_test.c **** 	if(id == 2) 
 119              		.loc 1 109 0
 120 0048 022C     		cmp	r4, #2
ARM GAS  /tmp/cctnYOgc.s 			page 5


 121 004a 01D0     		beq	.L39
 122              	.L4:
 110:Src/makise_test.c **** 	    makise_g_host_input(host, (MInputData){M_KEY_LEFT, M_INPUT_PRESSING, time, 0});
 111:Src/makise_test.c **** //	printf("click %d\n", id);
 112:Src/makise_test.c ****     }
 113:Src/makise_test.c **** }
 123              		.loc 1 113 0
 124 004c 1DB0     		add	sp, sp, #116
 125              	.LCFI2:
 126              		.cfi_remember_state
 127              		.cfi_def_cfa_offset 20
 128              		@ sp needed
 129 004e F0BD     		pop	{r4, r5, r6, r7, pc}
 130              	.LVL5:
 131              	.L39:
 132              	.LCFI3:
 133              		.cfi_restore_state
 110:Src/makise_test.c **** 	    makise_g_host_input(host, (MInputData){M_KEY_LEFT, M_INPUT_PRESSING, time, 0});
 134              		.loc 1 110 0
 135 0050 624B     		ldr	r3, .L41
 136 0052 8DF86440 		strb	r4, [sp, #100]
 137 0056 1868     		ldr	r0, [r3]
 138 0058 8DF86540 		strb	r4, [sp, #101]
 139 005c 0023     		movs	r3, #0
 140 005e 8DF86C30 		strb	r3, [sp, #108]
 141 0062 1A96     		str	r6, [sp, #104]
 142 0064 1CAB     		add	r3, sp, #112
 143 0066 13E90E00 		ldmdb	r3, {r1, r2, r3}
 144 006a FFF7FEFF 		bl	makise_g_host_input
 145              	.LVL6:
 146              		.loc 1 113 0
 147 006e 1DB0     		add	sp, sp, #116
 148              	.LCFI4:
 149              		.cfi_remember_state
 150              		.cfi_def_cfa_offset 20
 151              		@ sp needed
 152 0070 F0BD     		pop	{r4, r5, r6, r7, pc}
 153              	.LVL7:
 154              	.L31:
 155              	.LCFI5:
 156              		.cfi_restore_state
  72:Src/makise_test.c **** 	if(id == 11)
 157              		.loc 1 72 0
 158 0072 5A4F     		ldr	r7, .L41
 159 0074 3B68     		ldr	r3, [r7]
 160 0076 1868     		ldr	r0, [r3]
 161              	.LVL8:
 162 0078 FFF7FEFF 		bl	makise_g_cont_focus_prev
 163              	.LVL9:
 164 007c DAE7     		b	.L5
 165              	.LVL10:
 166              	.L21:
  92:Src/makise_test.c **** 
 167              		.loc 1 92 0
 168 007e 574B     		ldr	r3, .L41
 169 0080 0E96     		str	r6, [sp, #56]
 170 0082 0022     		movs	r2, #0
ARM GAS  /tmp/cctnYOgc.s 			page 6


 171              	.LVL11:
 172 0084 1868     		ldr	r0, [r3]
 173              	.LVL12:
 174 0086 8DF83C20 		strb	r2, [sp, #60]
 175 008a 0123     		movs	r3, #1
 176 008c 8DF83430 		strb	r3, [sp, #52]
 177 0090 8DF83530 		strb	r3, [sp, #53]
 178 0094 0DAB     		add	r3, sp, #52
 179 0096 0ECB     		ldm	r3, {r1, r2, r3}
 180              	.LVL13:
 181 0098 FFF7FEFF 		bl	makise_g_host_input
 182              	.LVL14:
 183              	.L14:
 101:Src/makise_test.c ****     {
 184              		.loc 1 101 0
 185 009c 15F00A0F 		tst	r5, #10
 186 00a0 D2D1     		bne	.L19
 187 00a2 D3E7     		b	.L4
 188              	.LVL15:
 189              	.L35:
  84:Src/makise_test.c **** 	   == M_INPUT_NOT_HANDLED)
 190              		.loc 1 84 0 discriminator 1
 191 00a4 0892     		str	r2, [sp, #32]
 192 00a6 0321     		movs	r1, #3
 193              	.LVL16:
 194 00a8 0122     		movs	r2, #1
 195              	.LVL17:
 196 00aa 0023     		movs	r3, #0
 197 00ac 4B4F     		ldr	r7, .L41
 198 00ae 8DF82430 		strb	r3, [sp, #36]
 199 00b2 8DF81C10 		strb	r1, [sp, #28]
 200 00b6 8DF81D20 		strb	r2, [sp, #29]
 201 00ba 07AB     		add	r3, sp, #28
 202 00bc 3868     		ldr	r0, [r7]
 203              	.LVL18:
 204 00be 0ECB     		ldm	r3, {r1, r2, r3}
 205 00c0 FFF7FEFF 		bl	makise_g_host_input
 206              	.LVL19:
  83:Src/makise_test.c **** 	   makise_g_host_input(host, (MInputData){M_KEY_RIGHT, M_INPUT_CLICK, time, 0})
 207              		.loc 1 83 0 discriminator 1
 208 00c4 0128     		cmp	r0, #1
 209 00c6 00F08480 		beq	.L40
 210              	.L13:
 101:Src/makise_test.c ****     {
 211              		.loc 1 101 0
 212 00ca 15F00A0F 		tst	r5, #10
 213 00ce BDD0     		beq	.L4
 214              	.L24:
 108:Src/makise_test.c **** 	if(id == 2) 
 215              		.loc 1 108 0
 216 00d0 0321     		movs	r1, #3
 217 00d2 0222     		movs	r2, #2
 218 00d4 0023     		movs	r3, #0
 219 00d6 8DF86030 		strb	r3, [sp, #96]
 220 00da 1796     		str	r6, [sp, #92]
 221 00dc 8DF85810 		strb	r1, [sp, #88]
 222 00e0 8DF85920 		strb	r2, [sp, #89]
ARM GAS  /tmp/cctnYOgc.s 			page 7


 223 00e4 16AB     		add	r3, sp, #88
 224 00e6 3868     		ldr	r0, [r7]
 225 00e8 0ECB     		ldm	r3, {r1, r2, r3}
 226 00ea FFF7FEFF 		bl	makise_g_host_input
 227              	.LVL20:
 228 00ee ADE7     		b	.L4
 229              	.L36:
 104:Src/makise_test.c **** 	if(id == 1)
 230              		.loc 1 104 0
 231 00f0 3A4B     		ldr	r3, .L41
 232 00f2 1196     		str	r6, [sp, #68]
 233 00f4 0421     		movs	r1, #4
 234 00f6 0222     		movs	r2, #2
 235 00f8 1868     		ldr	r0, [r3]
 236 00fa 8DF84010 		strb	r1, [sp, #64]
 237 00fe 0023     		movs	r3, #0
 238 0100 8DF84830 		strb	r3, [sp, #72]
 239 0104 8DF84120 		strb	r2, [sp, #65]
 240 0108 10AB     		add	r3, sp, #64
 241 010a 0ECB     		ldm	r3, {r1, r2, r3}
 242 010c FFF7FEFF 		bl	makise_g_host_input
 243              	.LVL21:
 244 0110 9CE7     		b	.L4
 245              	.L37:
 106:Src/makise_test.c **** 	if(id == 4)
 246              		.loc 1 106 0
 247 0112 324B     		ldr	r3, .L41
 248 0114 1496     		str	r6, [sp, #80]
 249 0116 0521     		movs	r1, #5
 250 0118 0222     		movs	r2, #2
 251 011a 1868     		ldr	r0, [r3]
 252 011c 8DF84C10 		strb	r1, [sp, #76]
 253 0120 0023     		movs	r3, #0
 254 0122 8DF85430 		strb	r3, [sp, #84]
 255 0126 8DF84D20 		strb	r2, [sp, #77]
 256 012a 13AB     		add	r3, sp, #76
 257 012c 0ECB     		ldm	r3, {r1, r2, r3}
 258 012e FFF7FEFF 		bl	makise_g_host_input
 259              	.LVL22:
 260 0132 8BE7     		b	.L4
 261              	.LVL23:
 262              	.L33:
  76:Src/makise_test.c **** 	   == M_INPUT_NOT_HANDLED)
 263              		.loc 1 76 0 discriminator 1
 264 0134 0292     		str	r2, [sp, #8]
 265 0136 0421     		movs	r1, #4
 266              	.LVL24:
 267 0138 0122     		movs	r2, #1
 268              	.LVL25:
 269 013a 0023     		movs	r3, #0
 270 013c 274F     		ldr	r7, .L41
 271 013e 8DF80C30 		strb	r3, [sp, #12]
 272 0142 8DF80410 		strb	r1, [sp, #4]
 273 0146 8DF80520 		strb	r2, [sp, #5]
 274 014a 0DEB0103 		add	r3, sp, r1
 275 014e 3868     		ldr	r0, [r7]
 276              	.LVL26:
ARM GAS  /tmp/cctnYOgc.s 			page 8


 277 0150 0ECB     		ldm	r3, {r1, r2, r3}
 278 0152 FFF7FEFF 		bl	makise_g_host_input
 279              	.LVL27:
  75:Src/makise_test.c **** 	   makise_g_host_input(host, (MInputData){M_KEY_UP, M_INPUT_CLICK, time, 0})
 280              		.loc 1 75 0 discriminator 1
 281 0156 0128     		cmp	r0, #1
 282 0158 7FF46CAF 		bne	.L5
  78:Src/makise_test.c **** 	if(id == 1 &&
 283              		.loc 1 78 0
 284 015c 3B68     		ldr	r3, [r7]
 285 015e 1868     		ldr	r0, [r3]
 286 0160 FFF7FEFF 		bl	makise_g_cont_focus_prev
 287              	.LVL28:
 288 0164 66E7     		b	.L5
 289              	.LVL29:
 290              	.L32:
  74:Src/makise_test.c **** 	if(id == 3 &&
 291              		.loc 1 74 0
 292 0166 1D4F     		ldr	r7, .L41
 293 0168 3B68     		ldr	r3, [r7]
 294 016a 1868     		ldr	r0, [r3]
 295              	.LVL30:
 296 016c FFF7FEFF 		bl	makise_g_cont_focus_next
 297              	.LVL31:
 298 0170 60E7     		b	.L5
 299              	.LVL32:
 300              	.L34:
  80:Src/makise_test.c **** 	   == M_INPUT_NOT_HANDLED)
 301              		.loc 1 80 0 discriminator 1
 302 0172 0592     		str	r2, [sp, #20]
 303 0174 0023     		movs	r3, #0
 304 0176 0522     		movs	r2, #5
 305              	.LVL33:
 306 0178 184F     		ldr	r7, .L41
 307 017a 8DF81100 		strb	r0, [sp, #17]
 308 017e 8DF81830 		strb	r3, [sp, #24]
 309 0182 8DF81020 		strb	r2, [sp, #16]
 310 0186 04AB     		add	r3, sp, #16
 311 0188 3868     		ldr	r0, [r7]
 312              	.LVL34:
 313 018a 0ECB     		ldm	r3, {r1, r2, r3}
 314              	.LVL35:
 315 018c FFF7FEFF 		bl	makise_g_host_input
 316              	.LVL36:
  79:Src/makise_test.c **** 	   makise_g_host_input(host, (MInputData){M_KEY_DOWN, M_INPUT_CLICK, time, 0})
 317              		.loc 1 79 0 discriminator 1
 318 0190 0128     		cmp	r0, #1
 319 0192 7FF44FAF 		bne	.L5
  82:Src/makise_test.c **** 	if(id == 4 &&
 320              		.loc 1 82 0
 321 0196 3B68     		ldr	r3, [r7]
 322 0198 1868     		ldr	r0, [r3]
 323 019a FFF7FEFF 		bl	makise_g_cont_focus_next
 324              	.LVL37:
 325 019e 49E7     		b	.L5
 326              	.LVL38:
 327              	.L20:
ARM GAS  /tmp/cctnYOgc.s 			page 9


  88:Src/makise_test.c **** 	   == M_INPUT_NOT_HANDLED)
 328              		.loc 1 88 0 discriminator 1
 329 01a0 0122     		movs	r2, #1
 330              	.LVL39:
 331 01a2 0023     		movs	r3, #0
 332 01a4 0D4F     		ldr	r7, .L41
 333 01a6 8DF83030 		strb	r3, [sp, #48]
 334 01aa 8DF82840 		strb	r4, [sp, #40]
 335 01ae 0B96     		str	r6, [sp, #44]
 336 01b0 8DF82920 		strb	r2, [sp, #41]
 337 01b4 0AAB     		add	r3, sp, #40
 338 01b6 3868     		ldr	r0, [r7]
 339              	.LVL40:
 340 01b8 0ECB     		ldm	r3, {r1, r2, r3}
 341              	.LVL41:
 342 01ba FFF7FEFF 		bl	makise_g_host_input
 343              	.LVL42:
  87:Src/makise_test.c **** 	   makise_g_host_input(host, (MInputData){M_KEY_LEFT, M_INPUT_CLICK, time, 0})
 344              		.loc 1 87 0 discriminator 1
 345 01be 0128     		cmp	r0, #1
 346 01c0 7FF46CAF 		bne	.L14
  90:Src/makise_test.c **** 	if(id == 13)
 347              		.loc 1 90 0
 348 01c4 3B68     		ldr	r3, [r7]
 349 01c6 1868     		ldr	r0, [r3]
 350 01c8 FFF7FEFF 		bl	makise_g_cont_focus_prev
 351              	.LVL43:
 352 01cc 66E7     		b	.L14
 353              	.L38:
 354 01ce 034F     		ldr	r7, .L41
 355 01d0 7EE7     		b	.L24
 356              	.L40:
  86:Src/makise_test.c **** 	if(id == 2 &&
 357              		.loc 1 86 0
 358 01d2 3B68     		ldr	r3, [r7]
 359 01d4 1868     		ldr	r0, [r3]
 360 01d6 FFF7FEFF 		bl	makise_g_cont_focus_next
 361              	.LVL44:
 362 01da 76E7     		b	.L13
 363              	.L42:
 364              		.align	2
 365              	.L41:
 366 01dc 00000000 		.word	host
 367              		.cfi_endproc
 368              	.LFE129:
 370              		.section	.text.HAL_SPI_TxHalfCpltCallback,"ax",%progbits
 371              		.align	1
 372              		.p2align 2,,3
 373              		.global	HAL_SPI_TxHalfCpltCallback
 374              		.syntax unified
 375              		.thumb
 376              		.thumb_func
 377              		.fpu fpv4-sp-d16
 379              	HAL_SPI_TxHalfCpltCallback:
 380              	.LFB126:
  16:Src/makise_test.c ****     if(hspi == &ILI9340_SPI)
 381              		.loc 1 16 0
ARM GAS  /tmp/cctnYOgc.s 			page 10


 382              		.cfi_startproc
 383              		@ args = 0, pretend = 0, frame = 0
 384              		@ frame_needed = 0, uses_anonymous_args = 0
 385              		@ link register save eliminated.
 386              	.LVL45:
  17:Src/makise_test.c **** 	ili9340_spi_txhalfcplt(mGui->driver);
 387              		.loc 1 17 0
 388 0000 044B     		ldr	r3, .L46
 389 0002 8342     		cmp	r3, r0
 390 0004 00D0     		beq	.L45
 391 0006 7047     		bx	lr
 392              	.L45:
  18:Src/makise_test.c **** }
 393              		.loc 1 18 0
 394 0008 034B     		ldr	r3, .L46+4
 395 000a 1B68     		ldr	r3, [r3]
 396 000c 5868     		ldr	r0, [r3, #4]
 397              	.LVL46:
 398 000e FFF7FEBF 		b	ili9340_spi_txhalfcplt
 399              	.LVL47:
 400              	.L47:
 401 0012 00BF     		.align	2
 402              	.L46:
 403 0014 00000000 		.word	hspi1
 404 0018 00000000 		.word	mGui
 405              		.cfi_endproc
 406              	.LFE126:
 408              		.section	.text.HAL_SPI_TxCpltCallback,"ax",%progbits
 409              		.align	1
 410              		.p2align 2,,3
 411              		.global	HAL_SPI_TxCpltCallback
 412              		.syntax unified
 413              		.thumb
 414              		.thumb_func
 415              		.fpu fpv4-sp-d16
 417              	HAL_SPI_TxCpltCallback:
 418              	.LFB127:
  21:Src/makise_test.c ****     if(hspi == &ILI9340_SPI)
 419              		.loc 1 21 0
 420              		.cfi_startproc
 421              		@ args = 0, pretend = 0, frame = 0
 422              		@ frame_needed = 0, uses_anonymous_args = 0
 423              		@ link register save eliminated.
 424              	.LVL48:
  22:Src/makise_test.c **** 	ili9340_spi_txcplt(mGui->driver);
 425              		.loc 1 22 0
 426 0000 044B     		ldr	r3, .L51
 427 0002 8342     		cmp	r3, r0
 428 0004 00D0     		beq	.L50
 429 0006 7047     		bx	lr
 430              	.L50:
  23:Src/makise_test.c **** }
 431              		.loc 1 23 0
 432 0008 034B     		ldr	r3, .L51+4
 433 000a 1B68     		ldr	r3, [r3]
 434 000c 5868     		ldr	r0, [r3, #4]
 435              	.LVL49:
ARM GAS  /tmp/cctnYOgc.s 			page 11


 436 000e FFF7FEBF 		b	ili9340_spi_txcplt
 437              	.LVL50:
 438              	.L52:
 439 0012 00BF     		.align	2
 440              	.L51:
 441 0014 00000000 		.word	hspi1
 442 0018 00000000 		.word	mGui
 443              		.cfi_endproc
 444              	.LFE127:
 446              		.section	.text.mt_start,"ax",%progbits
 447              		.align	1
 448              		.p2align 2,,3
 449              		.global	mt_start
 450              		.syntax unified
 451              		.thumb
 452              		.thumb_func
 453              		.fpu fpv4-sp-d16
 455              	mt_start:
 456              	.LFB130:
 114:Src/makise_test.c **** 
 115:Src/makise_test.c **** uint32_t bb[9600] = {0};
 116:Src/makise_test.c **** MakiseGUI* mt_start()
 117:Src/makise_test.c **** {
 457              		.loc 1 117 0
 458              		.cfi_startproc
 459              		@ args = 0, pretend = 0, frame = 0
 460              		@ frame_needed = 0, uses_anonymous_args = 0
 461              	.LVL51:
 462 0000 2DE9F041 		push	{r4, r5, r6, r7, r8, lr}
 463              	.LCFI6:
 464              		.cfi_def_cfa_offset 24
 465              		.cfi_offset 4, -24
 466              		.cfi_offset 5, -20
 467              		.cfi_offset 6, -16
 468              		.cfi_offset 7, -12
 469              		.cfi_offset 8, -8
 470              		.cfi_offset 14, -4
 118:Src/makise_test.c ****     //malloc structures
 119:Src/makise_test.c ****     MakiseGUI    * gu = &Gu;//malloc(sizeof(MakiseGUI));
 120:Src/makise_test.c ****     MakiseBuffer * bu = &Bu;//malloc(sizeof(MakiseBuffer));
 121:Src/makise_test.c ****     MakiseDriver * dr = &Dr;//malloc(sizeof(MakiseDriver));
 122:Src/makise_test.c ****     host = &hs;//malloc(sizeof(MHost));
 123:Src/makise_test.c ****     host->host = &co;//malloc(sizeof(MContainer));
 124:Src/makise_test.c ****     host->host->gui = gu;
 125:Src/makise_test.c **** 
 126:Src/makise_test.c ****     //init driver structure
 127:Src/makise_test.c ****     ili9340_driver(dr);
 471              		.loc 1 127 0
 472 0004 204D     		ldr	r5, .L55
 122:Src/makise_test.c ****     host->host = &co;//malloc(sizeof(MContainer));
 473              		.loc 1 122 0
 474 0006 214A     		ldr	r2, .L55+4
 123:Src/makise_test.c ****     host->host->gui = gu;
 475              		.loc 1 123 0
 476 0008 214B     		ldr	r3, .L55+8
 122:Src/makise_test.c ****     host->host = &co;//malloc(sizeof(MContainer));
 477              		.loc 1 122 0
ARM GAS  /tmp/cctnYOgc.s 			page 12


 478 000a 224E     		ldr	r6, .L55+12
 128:Src/makise_test.c ****     //malloc small buffer
 129:Src/makise_test.c ****     dr->buffer = sb;//malloc(dr->size);
 130:Src/makise_test.c ****     printf("%d\n", (uint32_t)(dr->size));
 479              		.loc 1 130 0
 480 000c 224F     		ldr	r7, .L55+16
 124:Src/makise_test.c **** 
 481              		.loc 1 124 0
 482 000e 234C     		ldr	r4, .L55+20
 131:Src/makise_test.c ****     //init gui struct
 132:Src/makise_test.c **** 
 133:Src/makise_test.c ****     uint32_t sz = makise_init(gu, dr, bu);
 483              		.loc 1 133 0
 484 0010 DFF8A880 		ldr	r8, .L55+52
 122:Src/makise_test.c ****     host->host = &co;//malloc(sizeof(MContainer));
 485              		.loc 1 122 0
 486 0014 3260     		str	r2, [r6]
 117:Src/makise_test.c ****     //malloc structures
 487              		.loc 1 117 0
 488 0016 82B0     		sub	sp, sp, #8
 489              	.LCFI7:
 490              		.cfi_def_cfa_offset 32
 127:Src/makise_test.c ****     //malloc small buffer
 491              		.loc 1 127 0
 492 0018 2846     		mov	r0, r5
 123:Src/makise_test.c ****     host->host->gui = gu;
 493              		.loc 1 123 0
 494 001a 1360     		str	r3, [r2]
 124:Src/makise_test.c **** 
 495              		.loc 1 124 0
 496 001c 1C60     		str	r4, [r3]
 127:Src/makise_test.c ****     //malloc small buffer
 497              		.loc 1 127 0
 498 001e FFF7FEFF 		bl	ili9340_driver
 499              	.LVL52:
 129:Src/makise_test.c ****     printf("%d\n", (uint32_t)(dr->size));
 500              		.loc 1 129 0
 501 0022 1F4B     		ldr	r3, .L55+24
 130:Src/makise_test.c ****     //init gui struct
 502              		.loc 1 130 0
 503 0024 6969     		ldr	r1, [r5, #20]
 129:Src/makise_test.c ****     printf("%d\n", (uint32_t)(dr->size));
 504              		.loc 1 129 0
 505 0026 2B61     		str	r3, [r5, #16]
 130:Src/makise_test.c ****     //init gui struct
 506              		.loc 1 130 0
 507 0028 3846     		mov	r0, r7
 508 002a FFF7FEFF 		bl	printf
 509              	.LVL53:
 510              		.loc 1 133 0
 511 002e 2946     		mov	r1, r5
 512 0030 4246     		mov	r2, r8
 513 0032 2046     		mov	r0, r4
 514 0034 FFF7FEFF 		bl	makise_init
 515              	.LVL54:
 516 0038 0546     		mov	r5, r0
 517              	.LVL55:
ARM GAS  /tmp/cctnYOgc.s 			page 13


 134:Src/makise_test.c ****     //malloc big buffer
 135:Src/makise_test.c ****     bu->buffer = bb;//malloc(sz);
 136:Src/makise_test.c ****     memset(bu->buffer, 0, sz);
 518              		.loc 1 136 0
 519 003a 2A46     		mov	r2, r5
 135:Src/makise_test.c ****     memset(bu->buffer, 0, sz);
 520              		.loc 1 135 0
 521 003c 1948     		ldr	r0, .L55+28
 522              	.LVL56:
 523 003e C8F80C00 		str	r0, [r8, #12]
 524              		.loc 1 136 0
 525 0042 0021     		movs	r1, #0
 526 0044 FFF7FEFF 		bl	memset
 527              	.LVL57:
 137:Src/makise_test.c ****     printf("%d\n", (uint32_t)(sz));
 528              		.loc 1 137 0
 529 0048 2946     		mov	r1, r5
 530 004a 3846     		mov	r0, r7
 531 004c FFF7FEFF 		bl	printf
 532              	.LVL58:
 138:Src/makise_test.c **** 
 139:Src/makise_test.c **** 
 140:Src/makise_test.c ****     at_list_init(gu, host);
 141:Src/makise_test.c ****     
 142:Src/makise_test.c ****     
 143:Src/makise_test.c ****     mGui = gu;
 533              		.loc 1 143 0
 534 0050 154D     		ldr	r5, .L55+32
 535              	.LVL59:
 140:Src/makise_test.c ****     
 536              		.loc 1 140 0
 537 0052 3168     		ldr	r1, [r6]
 538 0054 2046     		mov	r0, r4
 539 0056 FFF7FEFF 		bl	at_list_init
 540              	.LVL60:
 144:Src/makise_test.c ****     ili9340_init(gu);
 541              		.loc 1 144 0
 542 005a 2046     		mov	r0, r4
 143:Src/makise_test.c ****     ili9340_init(gu);
 543              		.loc 1 143 0
 544 005c 2C60     		str	r4, [r5]
 545              		.loc 1 144 0
 546 005e FFF7FEFF 		bl	ili9340_init
 547              	.LVL61:
 145:Src/makise_test.c ****     makise_start(gu);
 548              		.loc 1 145 0
 549 0062 2046     		mov	r0, r4
 550 0064 FFF7FEFF 		bl	makise_start
 551              	.LVL62:
 146:Src/makise_test.c **** 
 147:Src/makise_test.c ****     mGui->predraw = &mt_predraw;
 552              		.loc 1 147 0
 553 0068 2B68     		ldr	r3, [r5]
 554 006a 1049     		ldr	r1, .L55+36
 148:Src/makise_test.c **** 
 149:Src/makise_test.c ****     //makise_g_focus(&(butt[0].el), M_G_FOCUS_GET);
 150:Src/makise_test.c ****     controls_595_init(buttons, 8, outs, 4, &but_h);
ARM GAS  /tmp/cctnYOgc.s 			page 14


 555              		.loc 1 150 0
 556 006c 104A     		ldr	r2, .L55+40
 147:Src/makise_test.c **** 
 557              		.loc 1 147 0
 558 006e D960     		str	r1, [r3, #12]
 559              		.loc 1 150 0
 560 0070 1048     		ldr	r0, .L55+44
 561 0072 0092     		str	r2, [sp]
 562 0074 0423     		movs	r3, #4
 563 0076 104A     		ldr	r2, .L55+48
 564 0078 0821     		movs	r1, #8
 565 007a FFF7FEFF 		bl	controls_595_init
 566              	.LVL63:
 151:Src/makise_test.c ****    
 152:Src/makise_test.c ****     return mGui;
 153:Src/makise_test.c **** }
 567              		.loc 1 153 0
 568 007e 2868     		ldr	r0, [r5]
 569 0080 02B0     		add	sp, sp, #8
 570              	.LCFI8:
 571              		.cfi_def_cfa_offset 24
 572              		@ sp needed
 573 0082 BDE8F081 		pop	{r4, r5, r6, r7, r8, pc}
 574              	.L56:
 575 0086 00BF     		.align	2
 576              	.L55:
 577 0088 00000000 		.word	Dr
 578 008c 00000000 		.word	hs
 579 0090 00000000 		.word	co
 580 0094 00000000 		.word	host
 581 0098 00000000 		.word	.LC0
 582 009c 00000000 		.word	Gu
 583 00a0 00000000 		.word	.LANCHOR0
 584 00a4 00000000 		.word	.LANCHOR1
 585 00a8 00000000 		.word	mGui
 586 00ac 00000000 		.word	mt_predraw
 587 00b0 00000000 		.word	but_h
 588 00b4 00000000 		.word	.LANCHOR3
 589 00b8 00000000 		.word	.LANCHOR2
 590 00bc 00000000 		.word	Bu
 591              		.cfi_endproc
 592              	.LFE130:
 594              		.global	bb
 595              		.global	outs
 596              		.global	buttons
 597              		.global	sb
 598              		.comm	co,24,4
 599              		.comm	hs,124,4
 600              		.comm	Dr,48,4
 601              		.comm	Bu,20,4
 602              		.comm	Gu,20,4
 603              		.comm	host,4,4
 604              		.comm	mGui,4,4
 605              		.comm	makise_color_palette,4,4
 606              		.section	.bss.bb,"aw",%nobits
 607              		.align	2
 608              		.set	.LANCHOR1,. + 0
ARM GAS  /tmp/cctnYOgc.s 			page 15


 611              	bb:
 612 0000 00000000 		.space	38400
 612      00000000 
 612      00000000 
 612      00000000 
 612      00000000 
 613              		.section	.bss.sb,"aw",%nobits
 614              		.align	2
 615              		.set	.LANCHOR0,. + 0
 618              	sb:
 619 0000 00000000 		.space	15680
 619      00000000 
 619      00000000 
 619      00000000 
 619      00000000 
 620              		.section	.data.buttons,"aw",%progbits
 621              		.align	2
 622              		.set	.LANCHOR3,. + 0
 625              	buttons:
 626 0000 01       		.byte	1
 627 0001 000000   		.space	3
 628 0004 01000000 		.word	1
 629 0008 00080240 		.word	1073874944
 630 000c 0100     		.short	1
 631 000e 0700     		.short	7
 632 0010 00       		.byte	0
 633 0011 00       		.byte	0
 634 0012 0000     		.space	2
 635 0014 00000000 		.word	0
 636 0018 01       		.byte	1
 637 0019 000000   		.space	3
 638 001c 02000000 		.word	2
 639 0020 00080240 		.word	1073874944
 640 0024 0100     		.short	1
 641 0026 0600     		.short	6
 642 0028 00       		.byte	0
 643 0029 00       		.byte	0
 644 002a 0000     		.space	2
 645 002c 00000000 		.word	0
 646 0030 01       		.byte	1
 647 0031 000000   		.space	3
 648 0034 03000000 		.word	3
 649 0038 00080240 		.word	1073874944
 650 003c 0100     		.short	1
 651 003e 0500     		.short	5
 652 0040 00       		.byte	0
 653 0041 00       		.byte	0
 654 0042 0000     		.space	2
 655 0044 00000000 		.word	0
 656 0048 01       		.byte	1
 657 0049 000000   		.space	3
 658 004c 04000000 		.word	4
 659 0050 00080240 		.word	1073874944
 660 0054 0100     		.short	1
 661 0056 0400     		.short	4
 662 0058 00       		.byte	0
 663 0059 00       		.byte	0
ARM GAS  /tmp/cctnYOgc.s 			page 16


 664 005a 0000     		.space	2
 665 005c 00000000 		.word	0
 666 0060 01       		.byte	1
 667 0061 000000   		.space	3
 668 0064 0B000000 		.word	11
 669 0068 00080240 		.word	1073874944
 670 006c 0200     		.short	2
 671 006e 0700     		.short	7
 672 0070 00       		.byte	0
 673 0071 00       		.byte	0
 674 0072 0000     		.space	2
 675 0074 00000000 		.word	0
 676 0078 01       		.byte	1
 677 0079 000000   		.space	3
 678 007c 0C000000 		.word	12
 679 0080 00080240 		.word	1073874944
 680 0084 0200     		.short	2
 681 0086 0600     		.short	6
 682 0088 00       		.byte	0
 683 0089 00       		.byte	0
 684 008a 0000     		.space	2
 685 008c 00000000 		.word	0
 686 0090 01       		.byte	1
 687 0091 000000   		.space	3
 688 0094 0D000000 		.word	13
 689 0098 00080240 		.word	1073874944
 690 009c 0200     		.short	2
 691 009e 0500     		.short	5
 692 00a0 00       		.byte	0
 693 00a1 00       		.byte	0
 694 00a2 0000     		.space	2
 695 00a4 00000000 		.word	0
 696 00a8 01       		.byte	1
 697 00a9 000000   		.space	3
 698 00ac 0E000000 		.word	14
 699 00b0 00080240 		.word	1073874944
 700 00b4 0200     		.short	2
 701 00b6 0400     		.short	4
 702 00b8 00       		.byte	0
 703 00b9 00       		.byte	0
 704 00ba 0000     		.space	2
 705 00bc 00000000 		.word	0
 706              		.section	.data.outs,"aw",%progbits
 707              		.align	2
 708              		.set	.LANCHOR2,. + 0
 711              	outs:
 712 0000 01       		.byte	1
 713 0001 000000   		.space	3
 714 0004 05000000 		.word	5
 715 0008 0000     		.short	0
 716 000a 01       		.byte	1
 717 000b 00       		.space	1
 718 000c 01       		.byte	1
 719 000d 000000   		.space	3
 720 0010 06000000 		.word	6
 721 0014 0100     		.short	1
 722 0016 00       		.byte	0
ARM GAS  /tmp/cctnYOgc.s 			page 17


 723 0017 00       		.space	1
 724 0018 01       		.byte	1
 725 0019 000000   		.space	3
 726 001c 07000000 		.word	7
 727 0020 0200     		.short	2
 728 0022 00       		.byte	0
 729 0023 00       		.space	1
 730 0024 01       		.byte	1
 731 0025 000000   		.space	3
 732 0028 08000000 		.word	8
 733 002c 0300     		.short	3
 734 002e 01       		.byte	1
 735 002f 00       		.space	1
 736              		.section	.rodata.mt_start.str1.4,"aMS",%progbits,1
 737              		.align	2
 738              	.LC0:
 739 0000 25640A00 		.ascii	"%d\012\000"
 740              		.text
 741              	.Letext0:
 742              		.file 2 "MakiseGUI/MakiseGUI/makise.h"
 743              		.file 3 "/usr/arm-none-eabi/include/machine/_default_types.h"
 744              		.file 4 "/usr/arm-none-eabi/include/sys/lock.h"
 745              		.file 5 "/usr/arm-none-eabi/include/sys/_types.h"
 746              		.file 6 "/usr/lib/gcc/arm-none-eabi/6.3.0/include/stddef.h"
 747              		.file 7 "/usr/arm-none-eabi/include/sys/reent.h"
 748              		.file 8 "/usr/arm-none-eabi/include/sys/_stdint.h"
 749              		.file 9 "Drivers/CMSIS/Include/core_cm4.h"
 750              		.file 10 "Drivers/CMSIS/Device/ST/STM32F4xx/Include/system_stm32f4xx.h"
 751              		.file 11 "Drivers/CMSIS/Device/ST/STM32F4xx/Include/stm32f401xe.h"
 752              		.file 12 "Drivers/STM32F4xx_HAL_Driver/Inc/stm32f4xx_hal_def.h"
 753              		.file 13 "Drivers/STM32F4xx_HAL_Driver/Inc/stm32f4xx_hal_dma.h"
 754              		.file 14 "Drivers/STM32F4xx_HAL_Driver/Inc/stm32f4xx_hal_spi.h"
 755              		.file 15 "Drivers/STM32F4xx_HAL_Driver/Inc/stm32f4xx_hal_tim.h"
 756              		.file 16 "Inc/spi.h"
 757              		.file 17 "Inc/tim.h"
 758              		.file 18 "MakiseGUI/MakiseGUI/ILI9340C/ili9340.h"
 759              		.file 19 "MakiseGUI/MakiseGUI/makise_colors.h"
 760              		.file 20 "MakiseGUI/MakiseGUI/makise_text.h"
 761              		.file 21 "MakiseGUI/MakiseGUI/fonts/fonts.h"
 762              		.file 22 "MakiseGUI/MakiseGUI/gui/makise_gui.h"
 763              		.file 23 "MakiseGUI/MakiseGUI/gui/makise_gui_input.h"
 764              		.file 24 "MakiseGUI/MakiseGUI/gui/makise_gui_container.h"
 765              		.file 25 "MakiseGUI/MakiseGUI/gui/makise_gui_elements.h"
 766              		.file 26 "Inc/makise_test.h"
 767              		.file 27 "Controls/controls_595.h"
 768              		.file 28 "/usr/arm-none-eabi/include/stdio.h"
ARM GAS  /tmp/cctnYOgc.s 			page 18

