ARM GAS  /tmp/ccvS9VQ4.s 			page 1


   1              		.cpu cortex-m4
   2              		.eabi_attribute 27, 1
   3              		.eabi_attribute 28, 1
   4              		.eabi_attribute 20, 1
   5              		.eabi_attribute 21, 1
   6              		.eabi_attribute 23, 3
   7              		.eabi_attribute 24, 1
   8              		.eabi_attribute 25, 1
   9              		.eabi_attribute 26, 1
  10              		.eabi_attribute 30, 1
  11              		.eabi_attribute 34, 1
  12              		.eabi_attribute 18, 4
  13              		.file	"makise_test.c"
  14              		.text
  15              	.Ltext0:
  16              		.cfi_sections	.debug_frame
  17              		.section	.text.mt_predraw,"ax",%progbits
  18              		.align	1
  19              		.global	mt_predraw
  20              		.syntax unified
  21              		.thumb
  22              		.thumb_func
  23              		.fpu fpv4-sp-d16
  25              	mt_predraw:
  26              	.LFB128:
  27              		.file 1 "Src/makise_test.c"
   1:Src/makise_test.c **** #include "makise_test.h"
   2:Src/makise_test.c **** 
   3:Src/makise_test.c **** MakiseGUI* mGui;
   4:Src/makise_test.c **** MHost *host;
   5:Src/makise_test.c **** 
   6:Src/makise_test.c **** void HAL_SPI_TxHalfCpltCallback(SPI_HandleTypeDef *hspi)
   7:Src/makise_test.c **** {
   8:Src/makise_test.c ****     if(hspi == &ILI9340_SPI)
   9:Src/makise_test.c **** 	ili9340_spi_txhalfcplt(mGui->driver);
  10:Src/makise_test.c **** }
  11:Src/makise_test.c **** void HAL_SPI_TxCpltCallback(SPI_HandleTypeDef *hspi)
  12:Src/makise_test.c **** {
  13:Src/makise_test.c ****     if(hspi == &ILI9340_SPI)
  14:Src/makise_test.c **** 	ili9340_spi_txcplt(mGui->driver);
  15:Src/makise_test.c **** }
  16:Src/makise_test.c **** 
  17:Src/makise_test.c **** MButton butt[3];
  18:Src/makise_test.c **** void mt_predraw(MakiseGUI * g)
  19:Src/makise_test.c **** {
  28              		.loc 1 19 0
  29              		.cfi_startproc
  30              		@ args = 0, pretend = 0, frame = 0
  31              		@ frame_needed = 0, uses_anonymous_args = 0
  32              	.LVL0:
  33 0000 08B5     		push	{r3, lr}
  34              	.LCFI0:
  35              		.cfi_def_cfa_offset 8
  36              		.cfi_offset 3, -8
  37              		.cfi_offset 14, -4
  20:Src/makise_test.c ****     butt[1].el.position.x = (butt[1].el.position.x+1) %150;
  38              		.loc 1 20 0
ARM GAS  /tmp/ccvS9VQ4.s 			page 2


  39 0002 0A48     		ldr	r0, .L3
  40              	.LVL1:
  41 0004 D0F88430 		ldr	r3, [r0, #132]
  42 0008 5A1C     		adds	r2, r3, #1
  43 000a 0949     		ldr	r1, .L3+4
  44 000c 81FB0231 		smull	r3, r1, r1, r2
  45 0010 D317     		asrs	r3, r2, #31
  46 0012 C3EB2113 		rsb	r3, r3, r1, asr #4
  47 0016 9621     		movs	r1, #150
  48 0018 01FB1323 		mls	r3, r1, r3, r2
  49 001c C0F88430 		str	r3, [r0, #132]
  21:Src/makise_test.c ****     makise_g_host_call(host, M_G_CALL_PREDRAW);
  50              		.loc 1 21 0
  51 0020 0221     		movs	r1, #2
  52 0022 044B     		ldr	r3, .L3+8
  53 0024 1868     		ldr	r0, [r3]
  54 0026 FFF7FEFF 		bl	makise_g_host_call
  55              	.LVL2:
  56 002a 08BD     		pop	{r3, pc}
  57              	.L4:
  58              		.align	2
  59              	.L3:
  60 002c 00000000 		.word	butt
  61 0030 B5814E1B 		.word	458129845
  62 0034 00000000 		.word	host
  63              		.cfi_endproc
  64              	.LFE128:
  66              		.section	.text.HAL_SPI_TxHalfCpltCallback,"ax",%progbits
  67              		.align	1
  68              		.global	HAL_SPI_TxHalfCpltCallback
  69              		.syntax unified
  70              		.thumb
  71              		.thumb_func
  72              		.fpu fpv4-sp-d16
  74              	HAL_SPI_TxHalfCpltCallback:
  75              	.LFB126:
   7:Src/makise_test.c ****     if(hspi == &ILI9340_SPI)
  76              		.loc 1 7 0
  77              		.cfi_startproc
  78              		@ args = 0, pretend = 0, frame = 0
  79              		@ frame_needed = 0, uses_anonymous_args = 0
  80              	.LVL3:
  81 0000 08B5     		push	{r3, lr}
  82              	.LCFI1:
  83              		.cfi_def_cfa_offset 8
  84              		.cfi_offset 3, -8
  85              		.cfi_offset 14, -4
   8:Src/makise_test.c **** 	ili9340_spi_txhalfcplt(mGui->driver);
  86              		.loc 1 8 0
  87 0002 054B     		ldr	r3, .L9
  88 0004 8342     		cmp	r3, r0
  89 0006 00D0     		beq	.L8
  90              	.LVL4:
  91              	.L5:
  92 0008 08BD     		pop	{r3, pc}
  93              	.LVL5:
  94              	.L8:
ARM GAS  /tmp/ccvS9VQ4.s 			page 3


   9:Src/makise_test.c **** }
  95              		.loc 1 9 0
  96 000a 044B     		ldr	r3, .L9+4
  97 000c 1B68     		ldr	r3, [r3]
  98 000e 5868     		ldr	r0, [r3, #4]
  99              	.LVL6:
 100 0010 FFF7FEFF 		bl	ili9340_spi_txhalfcplt
 101              	.LVL7:
  10:Src/makise_test.c **** void HAL_SPI_TxCpltCallback(SPI_HandleTypeDef *hspi)
 102              		.loc 1 10 0
 103 0014 F8E7     		b	.L5
 104              	.L10:
 105 0016 00BF     		.align	2
 106              	.L9:
 107 0018 00000000 		.word	hspi1
 108 001c 00000000 		.word	mGui
 109              		.cfi_endproc
 110              	.LFE126:
 112              		.section	.text.HAL_SPI_TxCpltCallback,"ax",%progbits
 113              		.align	1
 114              		.global	HAL_SPI_TxCpltCallback
 115              		.syntax unified
 116              		.thumb
 117              		.thumb_func
 118              		.fpu fpv4-sp-d16
 120              	HAL_SPI_TxCpltCallback:
 121              	.LFB127:
  12:Src/makise_test.c ****     if(hspi == &ILI9340_SPI)
 122              		.loc 1 12 0
 123              		.cfi_startproc
 124              		@ args = 0, pretend = 0, frame = 0
 125              		@ frame_needed = 0, uses_anonymous_args = 0
 126              	.LVL8:
 127 0000 08B5     		push	{r3, lr}
 128              	.LCFI2:
 129              		.cfi_def_cfa_offset 8
 130              		.cfi_offset 3, -8
 131              		.cfi_offset 14, -4
  13:Src/makise_test.c **** 	ili9340_spi_txcplt(mGui->driver);
 132              		.loc 1 13 0
 133 0002 054B     		ldr	r3, .L15
 134 0004 8342     		cmp	r3, r0
 135 0006 00D0     		beq	.L14
 136              	.LVL9:
 137              	.L11:
 138 0008 08BD     		pop	{r3, pc}
 139              	.LVL10:
 140              	.L14:
  14:Src/makise_test.c **** }
 141              		.loc 1 14 0
 142 000a 044B     		ldr	r3, .L15+4
 143 000c 1B68     		ldr	r3, [r3]
 144 000e 5868     		ldr	r0, [r3, #4]
 145              	.LVL11:
 146 0010 FFF7FEFF 		bl	ili9340_spi_txcplt
 147              	.LVL12:
  15:Src/makise_test.c **** 
ARM GAS  /tmp/ccvS9VQ4.s 			page 4


 148              		.loc 1 15 0
 149 0014 F8E7     		b	.L11
 150              	.L16:
 151 0016 00BF     		.align	2
 152              	.L15:
 153 0018 00000000 		.word	hspi1
 154 001c 00000000 		.word	mGui
 155              		.cfi_endproc
 156              	.LFE127:
 158              		.section	.text.mt_start,"ax",%progbits
 159              		.align	1
 160              		.global	mt_start
 161              		.syntax unified
 162              		.thumb
 163              		.thumb_func
 164              		.fpu fpv4-sp-d16
 166              	mt_start:
 167              	.LFB129:
  22:Src/makise_test.c **** }
  23:Src/makise_test.c **** 
  24:Src/makise_test.c **** char t0[] = "lel";
  25:Src/makise_test.c **** char t1[] = "fuu";
  26:Src/makise_test.c **** char t2[] = "pid";
  27:Src/makise_test.c **** MakiseGUI* mt_start()
  28:Src/makise_test.c **** {
 168              		.loc 1 28 0
 169              		.cfi_startproc
 170              		@ args = 0, pretend = 0, frame = 8
 171              		@ frame_needed = 0, uses_anonymous_args = 0
 172 0000 2DE9F04F 		push	{r4, r5, r6, r7, r8, r9, r10, fp, lr}
 173              	.LCFI3:
 174              		.cfi_def_cfa_offset 36
 175              		.cfi_offset 4, -36
 176              		.cfi_offset 5, -32
 177              		.cfi_offset 6, -28
 178              		.cfi_offset 7, -24
 179              		.cfi_offset 8, -20
 180              		.cfi_offset 9, -16
 181              		.cfi_offset 10, -12
 182              		.cfi_offset 11, -8
 183              		.cfi_offset 14, -4
 184 0004 89B0     		sub	sp, sp, #36
 185              	.LCFI4:
 186              		.cfi_def_cfa_offset 72
  29:Src/makise_test.c ****     //malloc structures
  30:Src/makise_test.c ****     MakiseGUI * gu = malloc(sizeof(MakiseGUI));
 187              		.loc 1 30 0
 188 0006 1420     		movs	r0, #20
 189 0008 FFF7FEFF 		bl	malloc
 190              	.LVL13:
 191 000c 0446     		mov	r4, r0
 192              	.LVL14:
  31:Src/makise_test.c ****     MakiseBuffer * bu = malloc(sizeof(MakiseBuffer));
 193              		.loc 1 31 0
 194 000e 1420     		movs	r0, #20
 195              	.LVL15:
 196 0010 FFF7FEFF 		bl	malloc
ARM GAS  /tmp/ccvS9VQ4.s 			page 5


 197              	.LVL16:
 198 0014 8046     		mov	r8, r0
 199              	.LVL17:
  32:Src/makise_test.c ****     MakiseDriver * dr = malloc(sizeof(MakiseDriver));
 200              		.loc 1 32 0
 201 0016 3020     		movs	r0, #48
 202              	.LVL18:
 203 0018 FFF7FEFF 		bl	malloc
 204              	.LVL19:
 205 001c 0546     		mov	r5, r0
 206              	.LVL20:
  33:Src/makise_test.c ****     host = malloc(sizeof(MHost));
 207              		.loc 1 33 0
 208 001e 0420     		movs	r0, #4
 209              	.LVL21:
 210 0020 FFF7FEFF 		bl	malloc
 211              	.LVL22:
 212 0024 0646     		mov	r6, r0
 213 0026 3A4F     		ldr	r7, .L19
 214 0028 3860     		str	r0, [r7]
  34:Src/makise_test.c ****     host->host = malloc(sizeof(MContainer));
 215              		.loc 1 34 0
 216 002a 1820     		movs	r0, #24
 217 002c FFF7FEFF 		bl	malloc
 218              	.LVL23:
 219 0030 3060     		str	r0, [r6]
  35:Src/makise_test.c ****     host->host->gui = gu;
 220              		.loc 1 35 0
 221 0032 0460     		str	r4, [r0]
  36:Src/makise_test.c **** 
  37:Src/makise_test.c ****     //init driver structure
  38:Src/makise_test.c ****     ili9340_driver(dr);
 222              		.loc 1 38 0
 223 0034 2846     		mov	r0, r5
 224 0036 FFF7FEFF 		bl	ili9340_driver
 225              	.LVL24:
  39:Src/makise_test.c ****     //malloc small buffer
  40:Src/makise_test.c ****     dr->buffer = malloc(dr->size);
 226              		.loc 1 40 0
 227 003a 6869     		ldr	r0, [r5, #20]
 228 003c FFF7FEFF 		bl	malloc
 229              	.LVL25:
 230 0040 0146     		mov	r1, r0
 231 0042 2861     		str	r0, [r5, #16]
  41:Src/makise_test.c ****     printf("%lu\n", (uint32_t)(dr->buffer));
 232              		.loc 1 41 0
 233 0044 334E     		ldr	r6, .L19+4
 234 0046 3046     		mov	r0, r6
 235 0048 FFF7FEFF 		bl	printf
 236              	.LVL26:
  42:Src/makise_test.c ****     //init gui struct
  43:Src/makise_test.c ****     uint32_t sz = makise_init(gu, dr, bu);
 237              		.loc 1 43 0
 238 004c 4246     		mov	r2, r8
 239 004e 2946     		mov	r1, r5
 240 0050 0794     		str	r4, [sp, #28]
 241 0052 2046     		mov	r0, r4
ARM GAS  /tmp/ccvS9VQ4.s 			page 6


 242 0054 FFF7FEFF 		bl	makise_init
 243              	.LVL27:
 244 0058 8146     		mov	r9, r0
 245              	.LVL28:
  44:Src/makise_test.c ****     //malloc big buffer
  45:Src/makise_test.c ****     bu->buffer = malloc(sz);
 246              		.loc 1 45 0
 247 005a FFF7FEFF 		bl	malloc
 248              	.LVL29:
 249 005e 0546     		mov	r5, r0
 250              	.LVL30:
 251 0060 C8F80C00 		str	r0, [r8, #12]
  46:Src/makise_test.c ****     memset(bu->buffer, 0, sz);
 252              		.loc 1 46 0
 253 0064 4A46     		mov	r2, r9
 254 0066 0021     		movs	r1, #0
 255 0068 FFF7FEFF 		bl	memset
 256              	.LVL31:
  47:Src/makise_test.c ****     printf("%lu\n", (uint32_t)(bu->buffer));
 257              		.loc 1 47 0
 258 006c 2946     		mov	r1, r5
 259 006e 3046     		mov	r0, r6
 260 0070 FFF7FEFF 		bl	printf
 261              	.LVL32:
  48:Src/makise_test.c **** 
  49:Src/makise_test.c ****     m_button_create(&butt[0], host->host, 50, 50, 100, 70, t0, 0, 2, 1);
 262              		.loc 1 49 0
 263 0074 3B68     		ldr	r3, [r7]
 264 0076 1968     		ldr	r1, [r3]
 265 0078 DFF8B080 		ldr	r8, .L19+28
 266              	.LVL33:
 267 007c 0126     		movs	r6, #1
 268 007e 0596     		str	r6, [sp, #20]
 269 0080 4FF0020A 		mov	r10, #2
 270 0084 CDF810A0 		str	r10, [sp, #16]
 271 0088 4FF00009 		mov	r9, #0
 272              	.LVL34:
 273 008c CDF80C90 		str	r9, [sp, #12]
 274 0090 214B     		ldr	r3, .L19+8
 275 0092 0293     		str	r3, [sp, #8]
 276 0094 4624     		movs	r4, #70
 277              	.LVL35:
 278 0096 0194     		str	r4, [sp, #4]
 279 0098 4FF0640B 		mov	fp, #100
 280 009c CDF800B0 		str	fp, [sp]
 281 00a0 3223     		movs	r3, #50
 282 00a2 1A46     		mov	r2, r3
 283 00a4 4046     		mov	r0, r8
 284 00a6 FFF7FEFF 		bl	m_button_create
 285              	.LVL36:
  50:Src/makise_test.c ****     m_button_create(&butt[1], host->host, 50, 150, 100, 50, t1, 1, 0, 1);
 286              		.loc 1 50 0
 287 00aa 3B68     		ldr	r3, [r7]
 288 00ac 1968     		ldr	r1, [r3]
 289 00ae 0596     		str	r6, [sp, #20]
 290 00b0 CDF81090 		str	r9, [sp, #16]
 291 00b4 0396     		str	r6, [sp, #12]
ARM GAS  /tmp/ccvS9VQ4.s 			page 7


 292 00b6 194B     		ldr	r3, .L19+12
 293 00b8 0293     		str	r3, [sp, #8]
 294 00ba 3225     		movs	r5, #50
 295 00bc 0195     		str	r5, [sp, #4]
 296 00be CDF800B0 		str	fp, [sp]
 297 00c2 9623     		movs	r3, #150
 298 00c4 2A46     		mov	r2, r5
 299 00c6 08F16800 		add	r0, r8, #104
 300 00ca FFF7FEFF 		bl	m_button_create
 301              	.LVL37:
  51:Src/makise_test.c ****     m_button_create(&butt[2], host->host, 50, 220, 70, 50, t2, 2, 1, 0);
 302              		.loc 1 51 0
 303 00ce 3B68     		ldr	r3, [r7]
 304 00d0 1968     		ldr	r1, [r3]
 305 00d2 CDF81490 		str	r9, [sp, #20]
 306 00d6 0496     		str	r6, [sp, #16]
 307 00d8 CDF80CA0 		str	r10, [sp, #12]
 308 00dc 104B     		ldr	r3, .L19+16
 309 00de 0293     		str	r3, [sp, #8]
 310 00e0 0195     		str	r5, [sp, #4]
 311 00e2 0094     		str	r4, [sp]
 312 00e4 DC23     		movs	r3, #220
 313 00e6 2A46     		mov	r2, r5
 314 00e8 08F1D000 		add	r0, r8, #208
 315 00ec FFF7FEFF 		bl	m_button_create
 316              	.LVL38:
  52:Src/makise_test.c ****     
  53:Src/makise_test.c ****     mGui = gu;
 317              		.loc 1 53 0
 318 00f0 0C4D     		ldr	r5, .L19+20
 319 00f2 079C     		ldr	r4, [sp, #28]
 320 00f4 2C60     		str	r4, [r5]
  54:Src/makise_test.c ****     ili9340_init(gu);
 321              		.loc 1 54 0
 322 00f6 2046     		mov	r0, r4
 323 00f8 FFF7FEFF 		bl	ili9340_init
 324              	.LVL39:
  55:Src/makise_test.c ****     makise_start(gu);
 325              		.loc 1 55 0
 326 00fc 2046     		mov	r0, r4
 327 00fe FFF7FEFF 		bl	makise_start
 328              	.LVL40:
  56:Src/makise_test.c **** 
  57:Src/makise_test.c ****     mGui->predraw = &mt_predraw;
 329              		.loc 1 57 0
 330 0102 2868     		ldr	r0, [r5]
 331 0104 084B     		ldr	r3, .L19+24
 332 0106 C360     		str	r3, [r0, #12]
  58:Src/makise_test.c ****     return mGui;
  59:Src/makise_test.c **** }
 333              		.loc 1 59 0
 334 0108 09B0     		add	sp, sp, #36
 335              	.LCFI5:
 336              		.cfi_def_cfa_offset 36
 337              		@ sp needed
 338 010a BDE8F08F 		pop	{r4, r5, r6, r7, r8, r9, r10, fp, pc}
 339              	.LVL41:
ARM GAS  /tmp/ccvS9VQ4.s 			page 8


 340              	.L20:
 341 010e 00BF     		.align	2
 342              	.L19:
 343 0110 00000000 		.word	host
 344 0114 00000000 		.word	.LC0
 345 0118 00000000 		.word	.LANCHOR0
 346 011c 00000000 		.word	.LANCHOR1
 347 0120 00000000 		.word	.LANCHOR2
 348 0124 00000000 		.word	mGui
 349 0128 00000000 		.word	mt_predraw
 350 012c 00000000 		.word	butt
 351              		.cfi_endproc
 352              	.LFE129:
 354              		.global	t2
 355              		.global	t1
 356              		.global	t0
 357              		.comm	butt,312,4
 358              		.comm	host,4,4
 359              		.comm	mGui,4,4
 360              		.section	.data.t0,"aw",%progbits
 361              		.align	2
 362              		.set	.LANCHOR0,. + 0
 365              	t0:
 366 0000 6C656C00 		.ascii	"lel\000"
 367              		.section	.data.t1,"aw",%progbits
 368              		.align	2
 369              		.set	.LANCHOR1,. + 0
 372              	t1:
 373 0000 66757500 		.ascii	"fuu\000"
 374              		.section	.data.t2,"aw",%progbits
 375              		.align	2
 376              		.set	.LANCHOR2,. + 0
 379              	t2:
 380 0000 70696400 		.ascii	"pid\000"
 381              		.section	.rodata.mt_start.str1.4,"aMS",%progbits,1
 382              		.align	2
 383              	.LC0:
 384 0000 256C750A 		.ascii	"%lu\012\000"
 384      00
 385              		.text
 386              	.Letext0:
 387              		.file 2 "MakiseGUI/MakiseGUI/makise.h"
 388              		.file 3 "/usr/arm-none-eabi/include/machine/_default_types.h"
 389              		.file 4 "/usr/arm-none-eabi/include/sys/lock.h"
 390              		.file 5 "/usr/arm-none-eabi/include/sys/_types.h"
 391              		.file 6 "/usr/lib/gcc/arm-none-eabi/6.3.0/include/stddef.h"
 392              		.file 7 "/usr/arm-none-eabi/include/sys/reent.h"
 393              		.file 8 "/usr/arm-none-eabi/include/sys/_stdint.h"
 394              		.file 9 "Drivers/CMSIS/Include/core_cm4.h"
 395              		.file 10 "Drivers/CMSIS/Device/ST/STM32F4xx/Include/system_stm32f4xx.h"
 396              		.file 11 "Drivers/CMSIS/Device/ST/STM32F4xx/Include/stm32f401xe.h"
 397              		.file 12 "Drivers/STM32F4xx_HAL_Driver/Inc/stm32f4xx_hal_def.h"
 398              		.file 13 "Drivers/STM32F4xx_HAL_Driver/Inc/stm32f4xx_hal_dma.h"
 399              		.file 14 "Drivers/STM32F4xx_HAL_Driver/Inc/stm32f4xx_hal_spi.h"
 400              		.file 15 "Drivers/STM32F4xx_HAL_Driver/Inc/stm32f4xx_hal_tim.h"
 401              		.file 16 "Inc/spi.h"
 402              		.file 17 "Inc/tim.h"
ARM GAS  /tmp/ccvS9VQ4.s 			page 9


 403              		.file 18 "MakiseGUI/MakiseGUI/ILI9340C/ili9340.h"
 404              		.file 19 "MakiseGUI/MakiseGUI/makise_text.h"
 405              		.file 20 "MakiseGUI/MakiseGUI/fonts/fonts.h"
 406              		.file 21 "MakiseGUI/MakiseGUI/gui/makise_gui.h"
 407              		.file 22 "MakiseGUI/MakiseGUI/gui/makise_gui_input.h"
 408              		.file 23 "MakiseGUI/MakiseGUI/gui/makise_gui_elements.h"
 409              		.file 24 "MakiseGUI/MakiseGUI/gui/makise_gui_container.h"
 410              		.file 25 "Inc/makise_test.h"
 411              		.file 26 "/usr/arm-none-eabi/include/stdlib.h"
 412              		.file 27 "/usr/arm-none-eabi/include/stdio.h"
ARM GAS  /tmp/ccvS9VQ4.s 			page 10


DEFINED SYMBOLS
                            *ABS*:0000000000000000 makise_test.c
     /tmp/ccvS9VQ4.s:18     .text.mt_predraw:0000000000000000 $t
     /tmp/ccvS9VQ4.s:25     .text.mt_predraw:0000000000000000 mt_predraw
     /tmp/ccvS9VQ4.s:60     .text.mt_predraw:000000000000002c $d
                            *COM*:0000000000000138 butt
                            *COM*:0000000000000004 host
     /tmp/ccvS9VQ4.s:67     .text.HAL_SPI_TxHalfCpltCallback:0000000000000000 $t
     /tmp/ccvS9VQ4.s:74     .text.HAL_SPI_TxHalfCpltCallback:0000000000000000 HAL_SPI_TxHalfCpltCallback
     /tmp/ccvS9VQ4.s:107    .text.HAL_SPI_TxHalfCpltCallback:0000000000000018 $d
                            *COM*:0000000000000004 mGui
     /tmp/ccvS9VQ4.s:113    .text.HAL_SPI_TxCpltCallback:0000000000000000 $t
     /tmp/ccvS9VQ4.s:120    .text.HAL_SPI_TxCpltCallback:0000000000000000 HAL_SPI_TxCpltCallback
     /tmp/ccvS9VQ4.s:153    .text.HAL_SPI_TxCpltCallback:0000000000000018 $d
     /tmp/ccvS9VQ4.s:159    .text.mt_start:0000000000000000 $t
     /tmp/ccvS9VQ4.s:166    .text.mt_start:0000000000000000 mt_start
     /tmp/ccvS9VQ4.s:343    .text.mt_start:0000000000000110 $d
     /tmp/ccvS9VQ4.s:379    .data.t2:0000000000000000 t2
     /tmp/ccvS9VQ4.s:372    .data.t1:0000000000000000 t1
     /tmp/ccvS9VQ4.s:365    .data.t0:0000000000000000 t0
     /tmp/ccvS9VQ4.s:361    .data.t0:0000000000000000 $d
     /tmp/ccvS9VQ4.s:368    .data.t1:0000000000000000 $d
     /tmp/ccvS9VQ4.s:375    .data.t2:0000000000000000 $d
     /tmp/ccvS9VQ4.s:382    .rodata.mt_start.str1.4:0000000000000000 $d
                     .debug_frame:0000000000000010 $d

UNDEFINED SYMBOLS
makise_g_host_call
ili9340_spi_txhalfcplt
hspi1
ili9340_spi_txcplt
malloc
ili9340_driver
printf
makise_init
memset
m_button_create
ili9340_init
makise_start
